 DBLog

 Timestamp is 56ebc43b (Fri Mar 18 10:02:51 2016)

 Preferred load address is 10000000

 Start         Length     Name                   Class
 0001:00000000 00023922H .text                   CODE
 0001:00023930 0000368bH .text$x                 CODE
 0001:00026fc0 0000011cH .text$yc                CODE
 0001:000270e0 000000ecH .text$yd                CODE
 0002:00000000 00000430H .idata$5                DATA
 0002:00000430 00000004H .CRT$XCA                DATA
 0002:00000434 0000000cH .CRT$XCL                DATA
 0002:00000440 0000000cH .CRT$XCU                DATA
 0002:0000044c 00000004H .CRT$XCZ                DATA
 0002:00000450 00000004H .CRT$XIA                DATA
 0002:00000454 00000004H .CRT$XIAA               DATA
 0002:00000458 00000004H .CRT$XIC                DATA
 0002:0000045c 00000004H .CRT$XIZ                DATA
 0002:00000460 00002b00H .rdata                  DATA
 0002:00002f60 00000097H .rdata$debug            DATA
 0002:00002ff8 00000f84H .rdata$r                DATA
 0002:00003f80 00000280H .rdata$sxdata           DATA
 0002:00004200 00000004H .rtc$IAA                DATA
 0002:00004204 00000004H .rtc$IZZ                DATA
 0002:00004208 00000004H .rtc$TAA                DATA
 0002:0000420c 00000004H .rtc$TZZ                DATA
 0002:00004210 00004c8cH .xdata$x                DATA
 0002:00008e9c 00000004H ATL$__a                 DATA
 0002:00008ea0 00000004H ATL$__z                 DATA
 0002:00008ea4 000000b4H .idata$2                DATA
 0002:00008f58 00000014H .idata$3                DATA
 0002:00008f6c 00000430H .idata$4                DATA
 0002:0000939c 00000784H .idata$6                DATA
 0002:00009b20 000000a2H .edata                  DATA
 0003:00000000 00000a78H .data                   DATA
 0003:00000a78 0000059cH .bss                    DATA
 0004:00000000 00000184H .rsrc$01                DATA
 0004:00000190 000015e8H .rsrc$02                DATA

  Address         Publics by Value              Rva+Base       Lib:Object

 0000:00000000       __except_list              00000000     <absolute>
 0000:000000a0       ___safe_se_handler_count   000000a0     <absolute>
 0000:00009876       __ldused                   00009876     <absolute>
 0000:00009876       __fltused                  00009876     <absolute>
 0000:00000000       ___ImageBase               10000000     <linker-defined>
 0001:00000000       ??3@YAXPAX0@Z              10001000 f i Columns.obj
 0001:00000000       ?AssertValid@CObject@@UBEXXZ 10001000 f i DBLog.obj
 0001:00000010       ??1bad_alloc@std@@UAE@XZ   10001010 f i Columns.obj
 0001:00000050       ??_Gbad_alloc@std@@UAEPAXI@Z 10001050 f i Columns.obj
 0001:00000050       ??_Ebad_alloc@std@@UAEPAXI@Z 10001050 f i Columns.obj
 0001:000000b0       ??1CComBSTR@ATL@@QAE@XZ    100010b0 f i Columns.obj
 0001:000000c0       ??$_Allocate@V_variant_t@@@std@@YAPAV_variant_t@@IPAV1@@Z 100010c0 f i Columns.obj
 0001:00000150       ??0bad_alloc@std@@QAE@ABV01@@Z 10001150 f i Columns.obj
 0001:000001b0       ??$_Allocate@V_bstr_t@@@std@@YAPAV_bstr_t@@IPAV1@@Z 100011b0 f i Columns.obj
 0001:00000240       ??1stringdispid@CComTypeInfoHolder@ATL@@QAE@XZ 10001240 f i Columns.obj
 0001:00000280       ?Compare@Data_t@_bstr_t@@QBEHABV12@@Z 10001280 f i Columns.obj
 0001:00000300       ??0_variant_t@@QAE@ABV0@@Z 10001300 f i Columns.obj
 0001:00000330       ??0_variant_t@@QAE@PBD@Z   10001330 f i Columns.obj
 0001:00000350       ??4_variant_t@@QAEAAV0@ABV0@@Z 10001350 f i Columns.obj
 0001:00000370       ??1COleSafeArray@@QAE@XZ   10001370 f i Columns.obj
 0001:00000370       ??1_variant_t@@QAE@XZ      10001370 f i Columns.obj
 0001:00000380       ??0_com_error@@QAE@ABV0@@Z 10001380 f i Columns.obj
 0001:000003c0       ??1_com_error@@UAE@XZ      100013c0 f i Columns.obj
 0001:000003f0       ??_E_com_error@@UAEPAXI@Z  100013f0 f i Columns.obj
 0001:000003f0       ??_G_com_error@@UAEPAXI@Z  100013f0 f i Columns.obj
 0001:00000430       ??1_SafeArrayBase@TSUTIL@@UAE@XZ 10001430 f i Columns.obj
 0001:00000460       ?Set@_SafeArrayBase@TSUTIL@@QAEXPAUtagSAFEARRAY@@_N@Z 10001460 f i Columns.obj
 0001:000004b0       ??1?$SafeArray@PA_W$07@TSUTIL@@UAE@XZ 100014b0 f i Columns.obj
 0001:00000510       ?GetForeignKeyValue@CDbColumn@@AAEXAAVLoggingInfo@@AAV_variant_t@@H@Z 10001510 f   Columns.obj
 0001:000005d0       ?SetForeignKey@CDbColumn@@AAEXAAVLoggingInfo@@AAVADOLoggingObject@@H@Z 100015d0 f   Columns.obj
 0001:00000650       ??1?$_com_ptr_t@V?$_com_IIID@UThread@TS@@$1?_GUID_6ad5e6e0_5c69_11d1_93c6_0020af68e893@@3U__s_GUID@@B@@@@QAE@XZ 10001650 f i DBLog.obj
 0001:00000650       ??1?$_com_ptr_t@V?$_com_IIID@UField@@$1?_GUID_00001569_0000_0010_8000_00aa006d2ea4@@3U__s_GUID@@B@@@@QAE@XZ 10001650 f i Columns.obj
 0001:00000650       ??1?$CComPtrBase@UITypeInfo2@@@ATL@@QAE@XZ 10001650 f i DBLog.obj
 0001:00000650       ??1?$_com_ptr_t@V?$_com_IIID@UIInstrSessionMgr@SM@@$1?_GUID_3bba9220_6d15_11d3_8de1_006097053485@@3U__s_GUID@@B@@@@QAE@XZ 10001650 f i TSDBLog.obj
 0001:00000650       ??1?$_com_ptr_t@V?$_com_IIID@UExecution@TS@@$1?_GUID_7dc7e990_18dc_11d1_93be_0020af68e893@@3U__s_GUID@@B@@@@QAE@XZ 10001650 f i DBLog.obj
 0001:00000650       ??1?$_com_ptr_t@V?$_com_IIID@UFields@@$1?_GUID_00001564_0000_0010_8000_00aa006d2ea4@@3U__s_GUID@@B@@@@QAE@XZ 10001650 f i Columns.obj
 0001:00000650       ??1?$_com_ptr_t@V?$_com_IIID@USequenceContext@TS@@$1?_GUID_6427d0e0_e410_11d0_93b4_0020af68e893@@3U__s_GUID@@B@@@@QAE@XZ 10001650 f i Columns.obj
 0001:00000650       ??1?$CComPtrBase@UITypeLib@@@ATL@@QAE@XZ 10001650 f i DBLog.obj
 0001:00000650       ??1?$_com_ptr_t@V?$_com_IIID@UProperties@@$1?_GUID_00000504_0000_0010_8000_00aa006d2ea4@@3U__s_GUID@@B@@@@QAE@XZ 10001650 f i DBLog.obj
 0001:00000650       ??1?$_com_ptr_t@V?$_com_IIID@UProperty@@$1?_GUID_00000503_0000_0010_8000_00aa006d2ea4@@3U__s_GUID@@B@@@@QAE@XZ 10001650 f i DBLog.obj
 0001:00000650       ??1?$_com_ptr_t@V?$_com_IIID@U_Parameter@@$1?_GUID_0000150c_0000_0010_8000_00aa006d2ea4@@3U__s_GUID@@B@@@@QAE@XZ 10001650 f i Columns.obj
 0001:00000650       ??1?$_com_ptr_t@V?$_com_IIID@UCommand25@@$1?_GUID_0000154e_0000_0010_8000_00aa006d2ea4@@3U__s_GUID@@B@@@@QAE@XZ 10001650 f i Columns.obj
 0001:00000650       ??1?$_com_ptr_t@V?$_com_IIID@U_Connection@@$1?_GUID_00001550_0000_0010_8000_00aa006d2ea4@@3U__s_GUID@@B@@@@QAE@XZ 10001650 f i Columns.obj
 0001:00000650       ??1?$_com_ptr_t@V?$_com_IIID@UIInstrSession@SM@@$1?_GUID_8ab74eec_6c57_11d3_8de1_006097053485@@3U__s_GUID@@B@@@@QAE@XZ 10001650 f i DBLog.obj
 0001:00000650       ??1?$_com_ptr_t@V?$_com_IIID@UIDispatch@@$1?_GUID_00020400_0000_0000_c000_000000000046@@3U__s_GUID@@B@@@@QAE@XZ 10001650 f i DBLog.obj
 0001:00000650       ??1?$_com_ptr_t@V?$_com_IIID@UPropertyObject@TS@@$1?_GUID_8d8769a0_09c0_11d1_93bd_0020af68e893@@3U__s_GUID@@B@@@@QAE@XZ 10001650 f i Columns.obj
 0001:00000650       ??1?$_com_ptr_t@V?$_com_IIID@UParameters@@$1?_GUID_0000150d_0000_0010_8000_00aa006d2ea4@@3U__s_GUID@@B@@@@QAE@XZ 10001650 f i Columns.obj
 0001:00000650       ??1?$_com_ptr_t@V?$_com_IIID@UErrors@@$1?_GUID_00000501_0000_0010_8000_00aa006d2ea4@@3U__s_GUID@@B@@@@QAE@XZ 10001650 f i DBLog.obj
 0001:00000650       ??1?$_com_ptr_t@V?$_com_IIID@UPropertyObjectType@TS@@$1?_GUID_606104e9_6ede_469c_a1fc_181acc1856bc@@3U__s_GUID@@B@@@@QAE@XZ 10001650 f i Columns.obj
 0001:00000650       ??1?$_com_ptr_t@V?$_com_IIID@U_Recordset@@$1?_GUID_00001556_0000_0010_8000_00aa006d2ea4@@3U__s_GUID@@B@@@@QAE@XZ 10001650 f i Columns.obj
 0001:00000650       ??1?$_com_ptr_t@V?$_com_IIID@UError@@$1?_GUID_00000500_0000_0010_8000_00aa006d2ea4@@3U__s_GUID@@B@@@@QAE@XZ 10001650 f i DBLog.obj
 0001:00000650       ??1?$_com_ptr_t@V?$_com_IIID@UArrayDimensions@TS@@$1?_GUID_65a60a52_3e57_4707_be4b_8d00bc08e32f@@3U__s_GUID@@B@@@@QAE@XZ 10001650 f i DBLog.obj
 0001:00000650       ??1?$CComPtrBase@UIRegistrar@@@ATL@@QAE@XZ 10001650 f i DBLog.obj
 0001:00000650       ??1?$_com_ptr_t@V?$_com_IIID@UIUnknown@@$1?_GUID_00000000_0000_0000_c000_000000000046@@3U__s_GUID@@B@@@@QAE@XZ 10001650 f i DBLog.obj
 0001:00000650       ??1?$CComPtrBase@UITypeInfo@@@ATL@@QAE@XZ 10001650 f i DBLog.obj
 0001:00000650       ??1?$_com_ptr_t@V?$_com_IIID@UITSDatalink@@$1?_GUID_9d6338d0_57fb_11d4_8105_0090276f59e1@@3U__s_GUID@@B@@@@QAE@XZ 10001650 f i DBLog.obj
 0001:00000650       ??1?$_com_ptr_t@V?$_com_IIID@UExpression@TS@@$1?_GUID_e7495e94_98e0_4d89_bfea_3f850f0a0399@@3U__s_GUID@@B@@@@QAE@XZ 10001650 f i Columns.obj
 0001:00000650       ??1?$CComPtrBase@UIUnknown@@@ATL@@QAE@XZ 10001650 f i DBLog.obj
 0001:00000650       ??1?$_com_ptr_t@V?$_com_IIID@UIEngine@TS@@$1?_GUID_b2794ef5_c0b6_11d0_939c_0020af68e893@@3U__s_GUID@@B@@@@QAE@XZ 10001650 f i Columns.obj
 0001:00000660       ??_G?$SafeArray@PA_W$07@TSUTIL@@UAEPAXI@Z 10001660 f i Columns.obj
 0001:00000660       ??_E?$SafeArray@PA_W$07@TSUTIL@@UAEPAXI@Z 10001660 f i Columns.obj
 0001:000006d0       ??0_bstr_t@@QAE@PBD@Z      100016d0 f i Columns.obj
 0001:00000760       ??0_bstr_t@@QAE@PB_W@Z     10001760 f i Columns.obj
 0001:00000800       ??B_bstr_t@@QBEPADXZ       10001800 f i Columns.obj
 0001:00000800       ??B_bstr_t@@QBEPBDXZ       10001800 f i Columns.obj
 0001:00000830       ??7_bstr_t@@QBE_NXZ        10001830 f i Columns.obj
 0001:00000850       ?length@_bstr_t@@QBEIXZ    10001850 f i Columns.obj
 0001:00000870       ??0Data_t@_bstr_t@@QAE@ABV1@0@Z 10001870 f i Columns.obj
 0001:00000970       ??0_variant_t@@QAE@ABV_bstr_t@@@Z 10001970 f i Columns.obj
 0001:000009c0       ??_E_SafeArrayBase@TSUTIL@@UAEPAXI@Z 100019c0 f i Columns.obj
 0001:000009c0       ??_G_SafeArrayBase@TSUTIL@@UAEPAXI@Z 100019c0 f i Columns.obj
 0001:00000a00       ?GetNumArrayElements@DBMemoryBuilder@@AAEIV_variant_t@@PAI@Z 10001a00 f   Columns.obj
 0001:00000ae0       ?WriteBinaryZeros@DBMemoryBuilder@@AAEXAAVADOLoggingObject@@AAV_bstr_t@@I@Z 10001ae0 f   Columns.obj
 0001:00000bc0       ??4?$_com_ptr_t@V?$_com_IIID@UIUnknown@@$1?_GUID_00000000_0000_0000_c000_000000000046@@3U__s_GUID@@B@@@@QAEAAV0@ABV0@@Z 10001bc0 f i TSDBLog.obj
 0001:00000bc0       ??4?$_com_ptr_t@V?$_com_IIID@UPropertyObject@TS@@$1?_GUID_8d8769a0_09c0_11d1_93bd_0020af68e893@@3U__s_GUID@@B@@@@QAEAAV0@ABV0@@Z 10001bc0 f i Columns.obj
 0001:00000bc0       ??4?$_com_ptr_t@V?$_com_IIID@UCommand25@@$1?_GUID_0000154e_0000_0010_8000_00aa006d2ea4@@3U__s_GUID@@B@@@@QAEAAV0@ABV0@@Z 10001bc0 f i Statement.obj
 0001:00000bc0       ??4?$_com_ptr_t@V?$_com_IIID@UExpression@TS@@$1?_GUID_e7495e94_98e0_4d89_bfea_3f850f0a0399@@3U__s_GUID@@B@@@@QAEAAV0@ABV0@@Z 10001bc0 f i Columns.obj
 0001:00000c00       ?CreateInstance@?$_com_ptr_t@V?$_com_IIID@UCommand25@@$1?_GUID_0000154e_0000_0010_8000_00aa006d2ea4@@3U__s_GUID@@B@@@@QAEJABU_GUID@@PAUIUnknown@@K@Z 10001c00 f i Columns.obj
 0001:00000ca0       ??$_Cons_val@V?$allocator@V_variant_t@@@std@@V_variant_t@@V3@@std@@YAXAAV?$allocator@V_variant_t@@@0@PAV_variant_t@@$$QAV2@@Z 10001ca0 f i Columns.obj
 0001:00000d00       ??0_bstr_t@@QAE@ABV0@@Z    10001d00 f i Columns.obj
 0001:00000d20       ??8_bstr_t@@QBE_NABV0@@Z   10001d20 f i Columns.obj
 0001:00000da0       ??9_bstr_t@@QBE_NABV0@@Z   10001da0 f i Columns.obj
 0001:00000e20       ??$_Rotate@PAV_variant_t@@HV1@@std@@YAXPAV_variant_t@@00PAH0@Z 10001e20 f i Columns.obj
 0001:00000f60       ??$_Cons_val@V?$allocator@V_bstr_t@@@std@@V_bstr_t@@V3@@std@@YAXAAV?$allocator@V_bstr_t@@@0@PAV_bstr_t@@$$QAV2@@Z 10001f60 f i Columns.obj
 0001:00000fc0       ??1_bstr_t@@QAE@XZ         10001fc0 f i Columns.obj
 0001:00001010       ??4_bstr_t@@QAEAAV0@ABV0@@Z 10002010 f i Columns.obj
 0001:00001080       ??4_bstr_t@@QAEAAV0@PBD@Z  10002080 f i Columns.obj
 0001:00001170       ??4_bstr_t@@QAEAAV0@PB_W@Z 10002170 f i Columns.obj
 0001:00001260       ??Y_bstr_t@@QAEAAV0@ABV0@@Z 10002260 f i Columns.obj
 0001:00001320       ??0_bstr_t@@QAE@ABV_variant_t@@@Z 10002320 f i Columns.obj
 0001:000013e0       ?Description@_com_error@@QBE?AV_bstr_t@@XZ 100023e0 f i Columns.obj
 0001:00001480       ??0TSDBLogException@@QAE@HJPBD@Z 10002480 f i Columns.obj
 0001:000014f0       ?GetName@CDbColumn@@QAE?AV_bstr_t@@XZ 100024f0 f i Columns.obj
 0001:00001550       ?HasSameName@Statement@@QAE_NV_bstr_t@@@Z 10002550 f i Columns.obj
 0001:000015e0       ??0TSDBLogException@@QAE@ABV0@@Z 100025e0 f i Columns.obj
 0001:00001650       ?WriteStringValues@DBMemoryBuilder@@AAEXAAVADOLoggingObject@@AAV_bstr_t@@I@Z 10002650 f   Columns.obj
 0001:000019d0       ??1TSDBLogException@@QAE@XZ 100029d0 f i Columns.obj
 0001:00001a50       ?WriteBinaryArray@DBMemoryBuilder@@AAEXAAVADOLoggingObject@@AAV_bstr_t@@AAV_variant_t@@IAAIAA_N@Z 10002a50 f   Columns.obj
 0001:00001dd0       ?EscapeCRLF@DBMemoryBuilder@@AAEXAAV_bstr_t@@@Z 10002dd0 f   Columns.obj
 0001:00001fa0       ?GetNumTypeSizeFromFormat@DBMemoryBuilder@@AAEHG@Z 10002fa0 f   Columns.obj
 0001:00002040       ?GetNumTypeFromFormat@DBMemoryBuilder@@AAEGABV_bstr_t@@G@Z 10003040 f   Columns.obj
 0001:00002240       ?InitForeignKeyInformation@CDbColumn@@QAEXXZ 10003240 f   Columns.obj
 0001:00002520       ?ValidatePreConditions@CDbColumn@@AAE_NAAVLoggingInfo@@@Z 10003520 f   Columns.obj
 0001:000027a0       ?UpdateOutputValue@CDbColumn@@QAEXAAVLoggingInfo@@V_variant_t@@@Z 100037a0 f   Columns.obj
 0001:000028b0       ?GetColumnStatus@CDbColumn@@CA?AV_bstr_t@@J@Z 100038b0 f   Columns.obj
 0001:00002ab0       ?GetPrimaryKeyValue@CDbColumn@@AAEXAAVLoggingInfo@@AAV_variant_t@@@Z 10003ab0 f   Columns.obj
 0001:00003010       ?SetPrimaryKey@CDbColumn@@AAEXAAVLoggingInfo@@AAVADOLoggingObject@@@Z 10004010 f   Columns.obj
 0001:00003090       ?GetDateTimeValue@CDbColumn@@AAEXV_bstr_t@@AAV_variant_t@@@Z 10004090 f   Columns.obj
 0001:00003170       ??$_Uninit_move@PAV_variant_t@@PAV1@V?$allocator@V_variant_t@@@std@@V1@@std@@YAPAV_variant_t@@PAV1@00AAV?$allocator@V_variant_t@@@0@0U_Nonscalar_ptr_iterator_tag@0@@Z 10004170 f i Columns.obj
 0001:00003210       ??$_Move@PAV_bstr_t@@PAV1@@std@@YAPAV_bstr_t@@PAV1@00U_Nonscalar_ptr_iterator_tag@0@@Z 10004210 f i Columns.obj
 0001:000032a0       ?ChangeArrayType@DBMemoryBuilder@@AAEXAAV_variant_t@@G@Z 100042a0 f   Columns.obj
 0001:00003bf0       ?WriteBinaryValue@DBMemoryBuilder@@AAEXAAVADOLoggingObject@@AAV_bstr_t@@AAV_variant_t@@IAAIAA_N@Z 10004bf0 f   Columns.obj
 0001:00003d40       ?WriteBinaryValues@DBMemoryBuilder@@AAEXAAVADOLoggingObject@@AAV_bstr_t@@I@Z 10004d40 f   Columns.obj
 0001:00003ec0       ??$_Umove@PAV_variant_t@@@?$vector@V_variant_t@@V?$allocator@V_variant_t@@@std@@@std@@IAEPAV_variant_t@@PAV2@00@Z 10004ec0 f i Columns.obj
 0001:00003ef0       ??$_Rotate@PAV_bstr_t@@HV1@@std@@YAXPAV_bstr_t@@00PAH0@Z 10004ef0 f i Columns.obj
 0001:00004100       ?Write@DBMemoryBuilder@@QAEXAAVADOLoggingObject@@AAV_bstr_t@@I@Z 10005100 f   Columns.obj
 0001:00004200       ??1?$vector@V_variant_t@@V?$allocator@V_variant_t@@@std@@@std@@QAE@XZ 10005200 f i Columns.obj
 0001:00004250       ?reserve@?$vector@V_variant_t@@V?$allocator@V_variant_t@@@std@@@std@@QAEXI@Z 10005250 f i Columns.obj
 0001:00004340       ??$_Dest_val@V?$allocator@V_bstr_t@@@std@@V_bstr_t@@@std@@YAXAAV?$allocator@V_bstr_t@@@0@PAV_bstr_t@@@Z 10005340 f i Columns.obj
 0001:00004390       ?_Reserve@?$vector@V_variant_t@@V?$allocator@V_variant_t@@@std@@@std@@IAEXI@Z 10005390 f i Columns.obj
 0001:000043f0       ??$_Uninit_move@PAV_bstr_t@@PAV1@V?$allocator@V_bstr_t@@@std@@V1@@std@@YAPAV_bstr_t@@PAV1@00AAV?$allocator@V_bstr_t@@@0@0U_Nonscalar_ptr_iterator_tag@0@@Z 100053f0 f i Columns.obj
 0001:00004490       ??0DBMemoryBuilder@@QAE@W4ColDataType@@@Z 10005490 f   Columns.obj
 0001:000044e0       ??1DBMemoryBuilder@@QAE@XZ 100054e0 f i Columns.obj
 0001:00004560       ??$_Destroy_range@V?$allocator@V_bstr_t@@@std@@@std@@YAXPAV_bstr_t@@0AAV?$allocator@V_bstr_t@@@0@U_Nonscalar_ptr_iterator_tag@0@@Z 10005560 f i Columns.obj
 0001:000045d0       ??$emplace_back@AAY0EA@_W@?$vector@V_variant_t@@V?$allocator@V_variant_t@@@std@@@std@@QAEXAAY0EA@_W@Z 100055d0 f i Columns.obj
 0001:00004660       ??$emplace@AAV_variant_t@@@?$vector@V_variant_t@@V?$allocator@V_variant_t@@@std@@@std@@QAE?AV?$_Vector_iterator@V?$_Vector_val@V_variant_t@@V?$allocator@V_variant_t@@@std@@@std@@@1@V?$_Vector_const_iterator@V?$_Vector_val@V_variant_t@@V?$allocator@V_variant_t@@@std@@@std@@@1@AAV_variant_t@@@Z 10005660 f i Columns.obj
 0001:00004720       ??$emplace@AAV_bstr_t@@@?$vector@V_variant_t@@V?$allocator@V_variant_t@@@std@@@std@@QAE?AV?$_Vector_iterator@V?$_Vector_val@V_variant_t@@V?$allocator@V_variant_t@@@std@@@std@@@1@V?$_Vector_const_iterator@V?$_Vector_val@V_variant_t@@V?$allocator@V_variant_t@@@std@@@std@@@1@AAV_bstr_t@@@Z 10005720 f i Columns.obj
 0001:00004800       ??$_Umove@PAV_bstr_t@@@?$vector@V_bstr_t@@V?$allocator@V_bstr_t@@@std@@@std@@IAEPAV_bstr_t@@PAV2@00@Z 10005800 f i Columns.obj
 0001:00004830       ?reserve@?$vector@V_bstr_t@@V?$allocator@V_bstr_t@@@std@@@std@@QAEXI@Z 10005830 f i Columns.obj
 0001:00004910       ?_Reserve@?$vector@V_bstr_t@@V?$allocator@V_bstr_t@@@std@@@std@@IAEXI@Z 10005910 f i Columns.obj
 0001:00004970       ?AppendNumber@DBMemoryBuilder@@AAEXAAV?$_com_ptr_t@V?$_com_IIID@UPropertyObject@TS@@$1?_GUID_8d8769a0_09c0_11d1_93bd_0020af68e893@@3U__s_GUID@@B@@@@G@Z 10005970 f   Columns.obj
 0001:00004bc0       ?AppendString@DBMemoryBuilder@@AAEXAAV?$_com_ptr_t@V?$_com_IIID@UPropertyObject@TS@@$1?_GUID_8d8769a0_09c0_11d1_93bd_0020af68e893@@3U__s_GUID@@B@@@@V_bstr_t@@_N@Z 10005bc0 f   Columns.obj
 0001:00004dc0       ?AppendBoolean@DBMemoryBuilder@@AAEXAAV?$_com_ptr_t@V?$_com_IIID@UPropertyObject@TS@@$1?_GUID_8d8769a0_09c0_11d1_93bd_0020af68e893@@3U__s_GUID@@B@@@@G@Z 10005dc0 f   Columns.obj
 0001:00004f40       ?AppendNumericArray@DBMemoryBuilder@@AAEXAAV?$_com_ptr_t@V?$_com_IIID@UPropertyObject@TS@@$1?_GUID_8d8769a0_09c0_11d1_93bd_0020af68e893@@3U__s_GUID@@B@@@@G@Z 10005f40 f   Columns.obj
 0001:000051b0       ?AppendStringArray@DBMemoryBuilder@@AAEXAAV?$_com_ptr_t@V?$_com_IIID@UPropertyObject@TS@@$1?_GUID_8d8769a0_09c0_11d1_93bd_0020af68e893@@3U__s_GUID@@B@@@@@Z 100061b0 f   Columns.obj
 0001:00005430       ?AppendBooleanArray@DBMemoryBuilder@@AAEXAAV?$_com_ptr_t@V?$_com_IIID@UPropertyObject@TS@@$1?_GUID_8d8769a0_09c0_11d1_93bd_0020af68e893@@3U__s_GUID@@B@@@@G@Z 10006430 f   Columns.obj
 0001:000056e0       ?push_back@?$vector@V_bstr_t@@V?$allocator@V_bstr_t@@@std@@@std@@QAEX$$QAV_bstr_t@@@Z 100066e0 f i Columns.obj
 0001:000057a0       ?Append@DBMemoryBuilder@@QAEXAAV?$_com_ptr_t@V?$_com_IIID@UPropertyObject@TS@@$1?_GUID_8d8769a0_09c0_11d1_93bd_0020af68e893@@3U__s_GUID@@B@@@@AAV_bstr_t@@HV3@@Z 100067a0 f   Columns.obj
 0001:00005c70       ?SetColumn@CDbColumn@@QAEXAAVLoggingInfo@@AAVADOLoggingObject@@H@Z 10006c70 f   Columns.obj
 0001:00006850       ??1?$vector@V_bstr_t@@V?$allocator@V_bstr_t@@@std@@@std@@QAE@XZ 10007850 f i Columns.obj
 0001:00006890       ??1CDbColumn@@QAE@XZ       10007890 f   Columns.obj
 0001:00006a50       ??$_GetSafeArrayElemValue@V?$vector@V_bstr_t@@V?$allocator@V_bstr_t@@@std@@@std@@PA_W@TSUTIL@@YAXAAPA_WAAV?$vector@V_bstr_t@@V?$allocator@V_bstr_t@@@std@@@std@@J@Z 10007a50 f i Columns.obj
 0001:00006b60       ??$_GetVectorFromSafeArray@V?$vector@V_bstr_t@@V?$allocator@V_bstr_t@@@std@@@std@@PA_W@TSUTIL@@YAXPAUtagSAFEARRAY@@AAV?$vector@V_bstr_t@@V?$allocator@V_bstr_t@@@std@@@std@@@Z 10007b60 f i Columns.obj
 0001:00006c40       ??0CDbColumn@@QAE@AAV?$_com_ptr_t@V?$_com_IIID@UIEngine@TS@@$1?_GUID_b2794ef5_c0b6_11d0_939c_0020af68e893@@3U__s_GUID@@B@@@@AAV?$_com_ptr_t@V?$_com_IIID@UPropertyObject@TS@@$1?_GUID_8d8769a0_09c0_11d1_93bd_0020af68e893@@3U__s_GUID@@B@@@@PAVStatement@@@Z 10007c40 f   Columns.obj
 0001:000074d0       _IsEqualGUID               100084d0 f i DBLog.obj
 0001:00007540       ?AtlThrowImpl@ATL@@YGXJ@Z  10008540 f i DBLog.obj
 0001:00007560       ?wcsncpy_s@Checked@ATL@@YAHPA_WIPB_WI@Z 10008560 f i DBLog.obj
 0001:00007600       ?Init@CComCriticalSection@ATL@@QAEJXZ 10008600 f i DBLog.obj
 0001:00007630       ??1CComSafeDeleteCriticalSection@ATL@@QAE@XZ 10008630 f i DBLog.obj
 0001:00007650       ?GetValueType@PropertyObjectType@TS@@QAE?AW4PropertyValueTypes@2@XZ 10008650 f   DBLog.obj
 0001:00007680       ?GetNumElements@PropertyObject@TS@@QAEJXZ 10008680 f   DBLog.obj
 0001:000076c0       ?GetNumTokens@Expression@TS@@QAEJXZ 100086c0 f   DBLog.obj
 0001:000076f0       ?Tokenize@Expression@TS@@QAEJJJ@Z 100086f0 f   DBLog.obj
 0001:00007730       ?GetLockCount@CAtlModule@ATL@@UAEJXZ 10008730 f i DBLog.obj
 0001:00007790       ?Init@CComModule@ATL@@QAEJPAU_ATL_OBJMAP_ENTRY30@2@PAUHINSTANCE__@@PBU_GUID@@@Z 10008790 f i DBLog.obj
 0001:00007810       ?Term@CComModule@ATL@@QAEXXZ 10008810 f i DBLog.obj
 0001:000078b0       ?GetId@Execution@TS@@QAEJXZ 100088b0 f   DBLog.obj
 0001:000078f0       ?GetTerminationMonitorStatus@Execution@TS@@QAEFPAUPropertyObject@2@ABV_variant_t@@@Z 100088f0 f   DBLog.obj
 0001:00007950       ?GetId@Thread@TS@@QAEJXZ   10008950 f   DBLog.obj
 0001:00007980       ?GetCallStackSize@Thread@TS@@QAEJXZ 10008980 f   DBLog.obj
 0001:000079b0       ?GetCallStackDepth@SequenceContext@TS@@QAEJXZ 100089b0 f   DBLog.obj
 0001:000079f0       ?GetCallerDiscardsResults@SequenceContext@TS@@QAEFXZ 100089f0 f   DBLog.obj
 0001:00007a30       ??1CComAutoDeleteCriticalSection@ATL@@QAE@XZ 10008a30 f i DBLog.obj
 0001:00007a80       ?GetCount@_Collection@@QAEJXZ 10008a80 f   DBLog.obj
 0001:00007ab0       ?Append@_DynaCollection@@QAEJPAUIDispatch@@@Z 10008ab0 f   DBLog.obj
 0001:00007ae0       ?GetNumber@Error@@QAEJXZ   10008ae0 f   DBLog.obj
 0001:00007b10       ?GetNativeError@Error@@QAEJXZ 10008b10 f   DBLog.obj
 0001:00007b40       ?GetAttributes@Field20@@QAEJXZ 10008b40 f   DBLog.obj
 0001:00007b70       ?GetValue@Field20@@QAE?AV_variant_t@@XZ 10008b70 f   DBLog.obj
 0001:00007c00       ?PutValue@Field20@@QAEXABV_variant_t@@@Z 10008c00 f   DBLog.obj
 0001:00007c40       ?AppendChunk@Field20@@QAEJABV_variant_t@@@Z 10008c40 f   DBLog.obj
 0001:00007c90       ?GetStatus@Field@@QAEJXZ   10008c90 f   DBLog.obj
 0001:00007cc0       ?GetValue@_Parameter@@QAE?AV_variant_t@@XZ 10008cc0 f   DBLog.obj
 0001:00007d50       ?PutValue@_Parameter@@QAEXABV_variant_t@@@Z 10008d50 f   DBLog.obj
 0001:00007d90       ?AppendChunk@_Parameter@@QAEJABV_variant_t@@@Z 10008d90 f   DBLog.obj
 0001:00007de0       ?PutAttributes@_Parameter@@QAEXJ@Z 10008de0 f   DBLog.obj
 0001:00007e10       ?PutRefActiveConnection@Command15@@QAEXPAU_Connection@@@Z 10008e10 f   DBLog.obj
 0001:00007e40       ?PutCommandType@Command15@@QAEXW4CommandTypeEnum@@@Z 10008e40 f   DBLog.obj
 0001:00007e70       ?Close@Connection15@@QAEJXZ 10008e70 f   DBLog.obj
 0001:00007ea0       ?BeginTrans@Connection15@@QAEJXZ 10008ea0 f   DBLog.obj
 0001:00007ed0       ?CommitTrans@Connection15@@QAEJXZ 10008ed0 f   DBLog.obj
 0001:00007f00       ?RollbackTrans@Connection15@@QAEJXZ 10008f00 f   DBLog.obj
 0001:00007f30       ?PutMode@Connection15@@QAEXW4ConnectModeEnum@@@Z 10008f30 f   DBLog.obj
 0001:00007f60       ?PutRefActiveConnection@Recordset15@@QAEXPAUIDispatch@@@Z 10008f60 f   DBLog.obj
 0001:00007f90       ?GetEOF@Recordset15@@QAEFXZ 10008f90 f   DBLog.obj
 0001:00007fd0       ?PutRefSource@Recordset15@@QAEXPAUIDispatch@@@Z 10008fd0 f   DBLog.obj
 0001:00008000       ?AddNew@Recordset15@@QAEJABV_variant_t@@0@Z 10009000 f   DBLog.obj
 0001:00008070       ?Close@Recordset15@@QAEJXZ 10009070 f   DBLog.obj
 0001:000080a0       ?MoveFirst@Recordset15@@QAEJXZ 100090a0 f   DBLog.obj
 0001:000080d0       ?Open@Recordset15@@QAEJABV_variant_t@@0W4CursorTypeEnum@@W4LockTypeEnum@@J@Z 100090d0 f   DBLog.obj
 0001:00008150       ?Update@Recordset15@@QAEJABV_variant_t@@0@Z 10009150 f   DBLog.obj
 0001:000081c0       ?UpdateBatch@Recordset15@@QAEJW4AffectEnum@@@Z 100091c0 f   DBLog.obj
 0001:000081f0       ?PutCursorLocation@Recordset15@@QAEXW4CursorLocationEnum@@@Z 100091f0 f   DBLog.obj
 0001:00008220       ?Dump@CObject@@UBEXAAVCDumpContext@@@Z 10009220 f i DBLog.obj
 0001:00008220       ?ObjectMain@CComObjectRootBase@ATL@@SGX_N@Z 10009220 f i DBLog.obj
 0001:00008220       ?Serialize@CObject@@UAEXAAVCArchive@@@Z 10009220 f i DBLog.obj
 0001:00008230       ??3CObject@@SGXPAX@Z       10009230 f i DBLog.obj
 0001:00008240       ?SupportsRestartManager@CWinApp@@UBEHXZ 10009240 f i DBLog.obj
 0001:00008250       ?SupportsApplicationRecovery@CWinApp@@UBEHXZ 10009250 f i DBLog.obj
 0001:00008260       ?SupportsAutosaveAtRestart@CWinApp@@UBEHXZ 10009260 f i DBLog.obj
 0001:00008270       ?SupportsAutosaveAtInterval@CWinApp@@UBEHXZ 10009270 f i DBLog.obj
 0001:00008280       ?ReopenPreviousFilesAtRestart@CWinApp@@UBEHXZ 10009280 f i DBLog.obj
 0001:00008290       ?RestoreAutosavedFilesAtRestart@CWinApp@@UBEHXZ 10009290 f i DBLog.obj
 0001:000082a0       ?GetApplicationRestartFlags@CWinApp@@UAEKXZ 100092a0 f i DBLog.obj
 0001:000082a0       ?GetApplicationRecoveryParameter@CWinApp@@UAEPAXXZ 100092a0 f i DBLog.obj
 0001:000082a0       ?_AfxInitManaged@@YAHXZ    100092a0 f i DBLog.obj
 0001:000082a0       ?GetObjectDescription@?$CComCoClass@VCTSDatalink@@$1?CLSID_TSDatalink@@3U_GUID@@B@ATL@@SGPBDXZ 100092a0 f i DBLog.obj
 0001:000082a0       ?GetCategoryMap@CComObjectRootBase@ATL@@SAPBU_ATL_CATMAP_ENTRY@2@XZ 100092a0 f i DBLog.obj
 0001:000082a0       ?GetObjectDescription@?$CComCoClass@VCTSDBLog@@$1?CLSID_TSDBLog@@3U_GUID@@B@ATL@@SGPBDXZ 100092a0 f i DBLog.obj
 0001:000082b0       ?GetApplicationRecoveryPingInterval@CWinApp@@UAEKXZ 100092b0 f i DBLog.obj
 0001:000082c0       ??_GCDBLogApp@@UAEPAXI@Z   100092c0 f i DBLog.obj
 0001:000082c0       ??_ECDBLogApp@@UAEPAXI@Z   100092c0 f i DBLog.obj
 0001:00008310       ?InitInstance@CDBLogApp@@UAEHXZ 10009310 f   DBLog.obj
 0001:00008340       ?ExitInstance@CDBLogApp@@UAEHXZ 10009340 f   DBLog.obj
 0001:00008360       _DllCanUnloadNow@0         10009360 f   DBLog.obj
 0001:000083d0       ??0?$CComObject@VCTSDatalink@@@ATL@@QAE@PAX@Z 100093d0 f i DBLog.obj
 0001:00008430       ??$AtlMultiply@H@ATL@@YAJPAHHH@Z 10009430 f i DBLog.obj
 0001:00008460       ?AtlA2WHelper@@YGPA_WPA_WPBDHI@Z 10009460 f i DBLog.obj
 0001:000084a0       ?AddTermFunc@CAtlModule@ATL@@QAEJP6GXK@ZK@Z 100094a0 f i DBLog.obj
 0001:000084e0       ??0stringdispid@CComTypeInfoHolder@ATL@@QAE@XZ 100094e0 f i DBLog.obj
 0001:00008520       ??1?$CAtlSafeAllocBufferManager@VCCRTAllocator@ATL@@@_ATL_SAFE_ALLOCA_IMPL@ATL@@QAE@XZ 10009520 f i DBLog.obj
 0001:00008550       ??$AtlAdd@K@ATL@@YAJPAKKK@Z 10009550 f i DBLog.obj
 0001:00008580       ?AddRef@?$CComObject@VCTSDatalink@@@ATL@@UAGKXZ 10009580 f i DBLog.obj
 0001:00008580       ?AddRef@?$CComObject@VCTSDBLog@@@ATL@@UAGKXZ 10009580 f i DBLog.obj
 0001:000085a0       ?Release@?$CComObject@VCTSDatalink@@@ATL@@UAGKXZ 100095a0 f i DBLog.obj
 0001:000085a0       ?Release@?$CComObject@VCTSDBLog@@@ATL@@UAGKXZ 100095a0 f i DBLog.obj
 0001:000085d0       ??_E?$CComObject@VCTSDatalink@@@ATL@@UAEPAXI@Z 100095d0 f i DBLog.obj
 0001:000085d0       ??_G?$CComObject@VCTSDatalink@@@ATL@@UAEPAXI@Z 100095d0 f i DBLog.obj
 0001:00008650       ??1?$CComContainedObject@VCTSDatalink@@@ATL@@QAE@XZ 10009650 f i DBLog.obj
 0001:00008690       ?Release@?$CComObject@VCTSDatalink@@@ATL@@W3AGKXZ 10009690 f i DBLog.obj
 0001:00008690       ?Release@?$CComObject@VCTSDBLog@@@ATL@@W3AGKXZ 10009690 f i DBLog.obj
 0001:000086a0       ?AddRef@?$CComObject@VCTSDBLog@@@ATL@@W3AGKXZ 100096a0 f i DBLog.obj
 0001:000086a0       ?AddRef@?$CComObject@VCTSDatalink@@@ATL@@W3AGKXZ 100096a0 f i DBLog.obj
 0001:000086b0       ?Release@?$CComContainedObject@VCTSDatalink@@@ATL@@W3AGKXZ 100096b0 f i DBLog.obj
 0001:000086b0       ?Release@?$CComContainedObject@VCTSDBLog@@@ATL@@W3AGKXZ 100096b0 f i DBLog.obj
 0001:000086c0       ?_AtlVerifyStackAvailable@_ATL_SAFE_ALLOCA_IMPL@ATL@@YA_NK@Z 100096c0 f i DBLog.obj
 0001:00008760       ??0CAtlModule@ATL@@QAE@XZ  10009760 f i DBLog.obj
 0001:000087d0       ??1CAtlModule@ATL@@UAE@XZ  100097d0 f i DBLog.obj
 0001:00008820       ??1?$CComPtr@UIUnknown@@@ATL@@QAE@XZ 10009820 f i DBLog.obj
 0001:00008820       ??1?$CComPtr@UITypeInfo@@@ATL@@QAE@XZ 10009820 f i DBLog.obj
 0001:00008820       ??1?$CComPtr@UITypeInfo2@@@ATL@@QAE@XZ 10009820 f i DBLog.obj
 0001:00008820       ??1?$CComPtr@UITypeLib@@@ATL@@QAE@XZ 10009820 f i DBLog.obj
 0001:00008820       ??1?$CComPtr@UIRegistrar@@@ATL@@QAE@XZ 10009820 f i DBLog.obj
 0001:00008860       ??1?$CAtlModuleT@VCComModule@ATL@@@ATL@@UAE@XZ 10009860 f i DBLog.obj
 0001:000088e0       ?LoadNameCache@CComTypeInfoHolder@ATL@@QAEJPAUITypeInfo@@@Z 100098e0 f i DBLog.obj
 0001:00008ad0       ?Cleanup@CComTypeInfoHolder@ATL@@SGXK@Z 10009ad0 f i DBLog.obj
 0001:00008b20       ?Allocate@?$CAtlSafeAllocBufferManager@VCCRTAllocator@ATL@@@_ATL_SAFE_ALLOCA_IMPL@ATL@@QAEPAXK@Z 10009b20 f i DBLog.obj
 0001:00008b60       ??1?$CComObjectRootEx@VCComMultiThreadModel@ATL@@@ATL@@QAE@XZ 10009b60 f i DBLog.obj
 0001:00008bb0       ??1?$CComCritSecLock@VCComCriticalSection@ATL@@@ATL@@QAE@XZ 10009bb0 f i DBLog.obj
 0001:00008bd0       ?IsEqualObject@?$CComPtrBase@UITypeInfo@@@ATL@@QAE_NPAUIUnknown@@@Z 10009bd0 f i DBLog.obj
 0001:00008cc0       ?GetMessageMap@CDBLogApp@@MBEPBUAFX_MSGMAP@@XZ 10009cc0 f   DBLog.obj
 0001:00008cd0       ?CreateInstance@?$CComCreator@V?$CComObject@VCTSDatalink@@@ATL@@@ATL@@SGJPAXABU_GUID@@PAPAX@Z 10009cd0 f i DBLog.obj
 0001:00008e00       ?CreateInstance@CComClassFactory@ATL@@UAGJPAUIUnknown@@ABU_GUID@@PAPAX@Z 10009e00 f i DBLog.obj
 0001:00008e60       ?LockServer@CComClassFactory@ATL@@UAGJH@Z 10009e60 f i DBLog.obj
 0001:00008e90       ?_AtlInitialConstruct@?$CComAggObject@VCTSDBLog@@@ATL@@QAEJXZ 10009e90 f i DBLog.obj
 0001:00008ed0       ?QueryInterface@?$CComObject@VCTSDatalink@@@ATL@@UAGJABU_GUID@@PAPAX@Z 10009ed0 f i DBLog.obj
 0001:00008ef0       ??0?$CComAggObject@VCTSDatalink@@@ATL@@QAE@PAX@Z 10009ef0 f i DBLog.obj
 0001:00008f80       ?_AtlInitialConstruct@?$CComAggObject@VCTSDatalink@@@ATL@@QAEJXZ 10009f80 f i DBLog.obj
 0001:00008fc0       ?AddRef@?$CComAggObject@VCTSDatalink@@@ATL@@UAGKXZ 10009fc0 f i DBLog.obj
 0001:00008fc0       ?AddRef@?$CComAggObject@VCTSDBLog@@@ATL@@UAGKXZ 10009fc0 f i DBLog.obj
 0001:00008fe0       ?Release@?$CComAggObject@VCTSDatalink@@@ATL@@UAGKXZ 10009fe0 f i DBLog.obj
 0001:00008fe0       ?Release@?$CComAggObject@VCTSDBLog@@@ATL@@UAGKXZ 10009fe0 f i DBLog.obj
 0001:00009010       ?QueryInterface@?$CComAggObject@VCTSDatalink@@@ATL@@UAGJABU_GUID@@PAPAX@Z 1000a010 f i DBLog.obj
 0001:00009080       ??1CTSDBLog@@QAE@XZ        1000a080 f i DBLog.obj
 0001:00009100       ??1?$CComContainedObject@VCTSDBLog@@@ATL@@QAE@XZ 1000a100 f i DBLog.obj
 0001:00009180       ??_G?$CComAggObject@VCTSDatalink@@@ATL@@UAEPAXI@Z 1000a180 f i DBLog.obj
 0001:00009180       ??_E?$CComAggObject@VCTSDatalink@@@ATL@@UAEPAXI@Z 1000a180 f i DBLog.obj
 0001:00009200       ?QueryInterface@?$CComObject@VCTSDatalink@@@ATL@@W3AGJABU_GUID@@PAPAX@Z 1000a200 f i DBLog.obj
 0001:00009210       ?GetElementType@PropertyObjectType@TS@@QAE?AV?$_com_ptr_t@V?$_com_IIID@UPropertyObjectType@TS@@$1?_GUID_606104e9_6ede_469c_a1fc_181acc1856bc@@3U__s_GUID@@B@@@@XZ 1000a210 f   DBLog.obj
 0001:00009290       ?GetArrayDimensions@PropertyObjectType@TS@@QAE?AV?$_com_ptr_t@V?$_com_IIID@UArrayDimensions@TS@@$1?_GUID_65a60a52_3e57_4707_be4b_8d00bc08e32f@@3U__s_GUID@@B@@@@XZ 1000a290 f   DBLog.obj
 0001:00009310       ?GetPropertyObjectByOffset@PropertyObject@TS@@QAE?AV?$_com_ptr_t@V?$_com_IIID@UPropertyObject@TS@@$1?_GUID_8d8769a0_09c0_11d1_93bd_0020af68e893@@3U__s_GUID@@B@@@@JJ@Z 1000a310 f   DBLog.obj
 0001:000093a0       ?GetType@PropertyObject@TS@@QAE?AV?$_com_ptr_t@V?$_com_IIID@UPropertyObjectType@TS@@$1?_GUID_606104e9_6ede_469c_a1fc_181acc1856bc@@3U__s_GUID@@B@@@@XZ 1000a3a0 f   DBLog.obj
 0001:00009420       ?Evaluate@Expression@TS@@QAE?AV?$_com_ptr_t@V?$_com_IIID@UPropertyObject@TS@@$1?_GUID_8d8769a0_09c0_11d1_93bd_0020af68e893@@3U__s_GUID@@B@@@@PAUPropertyObject@2@J@Z 1000a420 f   DBLog.obj
 0001:000094a0       ?UpdateRegistryFromResourceDHelper@CAtlModule@ATL@@QAGJPB_WHPAU_ATL_REGMAP_ENTRY@2@@Z 1000a4a0 f i DBLog.obj
 0001:00009570       ?Lock@CAtlModule@ATL@@UAEJXZ 1000a570 f i DBLog.obj
 0001:00009580       ?Unlock@CAtlModule@ATL@@UAEJXZ 1000a580 f i DBLog.obj
 0001:00009590       ?GetGITPtr@CAtlModule@ATL@@UAEJPAPAUIGlobalInterfaceTable@@@Z 1000a590 f i DBLog.obj
 0001:000095e0       ?UpdateRegistryFromResourceS@CComModule@ATL@@UAGJPBDHPAU_ATL_REGMAP_ENTRY@2@@Z 1000a5e0 f i DBLog.obj
 0001:000095e0       ?UpdateRegistryFromResourceS@CComModule@ATL@@UAGJIHPAU_ATL_REGMAP_ENTRY@2@@Z 1000a5e0 f i DBLog.obj
 0001:000095f0       ?AddCommonRGSReplacements@?$CAtlModuleT@VCComModule@ATL@@@ATL@@UAEJPAUIRegistrarBase@@@Z 1000a5f0 f i DBLog.obj
 0001:00009610       ??_ECComModule@ATL@@UAEPAXI@Z 1000a610 f i DBLog.obj
 0001:00009610       ??_GCComModule@ATL@@UAEPAXI@Z 1000a610 f i DBLog.obj
 0001:000096a0       _AtlUnRegisterTypeLib@8    1000a6a0 f i DBLog.obj
 0001:000097e0       _AtlRegisterTypeLib@8      1000a7e0 f i DBLog.obj
 0001:000099a0       _AtlComModuleRegisterServer@12 1000a9a0 f i DBLog.obj
 0001:00009a30       _AtlComModuleUnregisterServer@12 1000aa30 f i DBLog.obj
 0001:00009ac0       ?GetClassObject@CComModule@ATL@@QAEJABU_GUID@@0PAPAX@Z 1000aac0 f i DBLog.obj
 0001:00009c00       ?NewExpression@IEngine@TS@@QAE?AV?$_com_ptr_t@V?$_com_IIID@UExpression@TS@@$1?_GUID_e7495e94_98e0_4d89_bfea_3f850f0a0399@@3U__s_GUID@@B@@@@XZ 1000ac00 f   DBLog.obj
 0001:00009c80       ?AsPropertyObject@Execution@TS@@QAE?AV?$_com_ptr_t@V?$_com_IIID@UPropertyObject@TS@@$1?_GUID_8d8769a0_09c0_11d1_93bd_0020af68e893@@3U__s_GUID@@B@@@@XZ 1000ac80 f   DBLog.obj
 0001:00009d00       ?InitTerminationMonitor@Execution@TS@@QAE?AV?$_com_ptr_t@V?$_com_IIID@UPropertyObject@TS@@$1?_GUID_8d8769a0_09c0_11d1_93bd_0020af68e893@@3U__s_GUID@@B@@@@XZ 1000ad00 f   DBLog.obj
 0001:00009d80       ?GetSequenceContext@Thread@TS@@QAE?AV?$_com_ptr_t@V?$_com_IIID@USequenceContext@TS@@$1?_GUID_6427d0e0_e410_11d0_93b4_0020af68e893@@3U__s_GUID@@B@@@@JPAJ@Z 1000ad80 f   DBLog.obj
 0001:00009e00       ?AsPropertyObject@SequenceContext@TS@@QAE?AV?$_com_ptr_t@V?$_com_IIID@UPropertyObject@TS@@$1?_GUID_8d8769a0_09c0_11d1_93bd_0020af68e893@@3U__s_GUID@@B@@@@XZ 1000ae00 f   DBLog.obj
 0001:00009e80       ?GetCaller@SequenceContext@TS@@QAE?AV?$_com_ptr_t@V?$_com_IIID@USequenceContext@TS@@$1?_GUID_6427d0e0_e410_11d0_93b4_0020af68e893@@3U__s_GUID@@B@@@@XZ 1000ae80 f   DBLog.obj
 0001:00009f00       ?GetRoot@SequenceContext@TS@@QAE?AV?$_com_ptr_t@V?$_com_IIID@USequenceContext@TS@@$1?_GUID_6427d0e0_e410_11d0_93b4_0020af68e893@@3U__s_GUID@@B@@@@XZ 1000af00 f   DBLog.obj
 0001:00009f80       ?GetThread@SequenceContext@TS@@QAE?AV?$_com_ptr_t@V?$_com_IIID@UThread@TS@@$1?_GUID_6ad5e6e0_5c69_11d1_93c6_0020af68e893@@3U__s_GUID@@B@@@@XZ 1000af80 f   DBLog.obj
 0001:0000a000       ?GetExecution@SequenceContext@TS@@QAE?AV?$_com_ptr_t@V?$_com_IIID@UExecution@TS@@$1?_GUID_7dc7e990_18dc_11d1_93be_0020af68e893@@3U__s_GUID@@B@@@@XZ 1000b000 f   DBLog.obj
 0001:0000a080       ?GetEngine@SequenceContext@TS@@QAE?AV?$_com_ptr_t@V?$_com_IIID@UIEngine@TS@@$1?_GUID_b2794ef5_c0b6_11d0_939c_0020af68e893@@3U__s_GUID@@B@@@@XZ 1000b080 f   DBLog.obj
 0001:0000a100       ??1CComClassFactory@ATL@@UAE@XZ 1000b100 f i DBLog.obj
 0001:0000a160       ??_ECComClassFactory@ATL@@UAEPAXI@Z 1000b160 f i DBLog.obj
 0001:0000a160       ??_GCComClassFactory@ATL@@UAEPAXI@Z 1000b160 f i DBLog.obj
 0001:0000a1e0       ??$?4UITypeInfo2@@@?$CComPtr@UITypeInfo@@@ATL@@QAEPAUITypeInfo@@ABV?$CComPtr@UITypeInfo2@@@1@@Z 1000b1e0 f i DBLog.obj
 0001:0000a210       ?GetItem@Properties@@QAE?AV?$_com_ptr_t@V?$_com_IIID@UProperty@@$1?_GUID_00000503_0000_0010_8000_00aa006d2ea4@@3U__s_GUID@@B@@@@ABV_variant_t@@@Z 1000b210 f   DBLog.obj
 0001:0000a2b0       ?GetProperties@_ADO@@QAE?AV?$_com_ptr_t@V?$_com_IIID@UProperties@@$1?_GUID_00000504_0000_0010_8000_00aa006d2ea4@@3U__s_GUID@@B@@@@XZ 1000b2b0 f   DBLog.obj
 0001:0000a330       ?GetItem@Errors@@QAE?AV?$_com_ptr_t@V?$_com_IIID@UError@@$1?_GUID_00000500_0000_0010_8000_00aa006d2ea4@@3U__s_GUID@@B@@@@ABV_variant_t@@@Z 1000b330 f   DBLog.obj
 0001:0000a3d0       ?GetItem@Fields15@@QAE?AV?$_com_ptr_t@V?$_com_IIID@UField@@$1?_GUID_00001569_0000_0010_8000_00aa006d2ea4@@3U__s_GUID@@B@@@@ABV_variant_t@@@Z 1000b3d0 f   DBLog.obj
 0001:0000a470       ?GetItem@Parameters@@QAE?AV?$_com_ptr_t@V?$_com_IIID@U_Parameter@@$1?_GUID_0000150c_0000_0010_8000_00aa006d2ea4@@3U__s_GUID@@B@@@@ABV_variant_t@@@Z 1000b470 f   DBLog.obj
 0001:0000a510       ?GetActiveConnection@Command15@@QAE?AV?$_com_ptr_t@V?$_com_IIID@U_Connection@@$1?_GUID_00001550_0000_0010_8000_00aa006d2ea4@@3U__s_GUID@@B@@@@XZ 1000b510 f   DBLog.obj
 0001:0000a590       ?Execute@Command15@@QAE?AV?$_com_ptr_t@V?$_com_IIID@U_Recordset@@$1?_GUID_00001556_0000_0010_8000_00aa006d2ea4@@3U__s_GUID@@B@@@@PAUtagVARIANT@@0J@Z 1000b590 f   DBLog.obj
 0001:0000a620       ?GetParameters@Command15@@QAE?AV?$_com_ptr_t@V?$_com_IIID@UParameters@@$1?_GUID_0000150d_0000_0010_8000_00aa006d2ea4@@3U__s_GUID@@B@@@@XZ 1000b620 f   DBLog.obj
 0001:0000a6a0       ?GetErrors@Connection15@@QAE?AV?$_com_ptr_t@V?$_com_IIID@UErrors@@$1?_GUID_00000501_0000_0010_8000_00aa006d2ea4@@3U__s_GUID@@B@@@@XZ 1000b6a0 f   DBLog.obj
 0001:0000a720       ?GetFields@Recordset15@@QAE?AV?$_com_ptr_t@V?$_com_IIID@UFields@@$1?_GUID_00001564_0000_0010_8000_00aa006d2ea4@@3U__s_GUID@@B@@@@XZ 1000b720 f   DBLog.obj
 0001:0000a7a0       _DllGetClassObject@12      1000b7a0 f   DBLog.obj
 0001:0000a7b0       ??0?$CComObjectCached@VCComClassFactory@ATL@@@ATL@@QAE@PAX@Z 1000b7b0 f i DBLog.obj
 0001:0000a840       ?AddRef@?$CComObjectCached@VCComClassFactory@ATL@@@ATL@@UAGKXZ 1000b840 f i DBLog.obj
 0001:0000a870       ?Release@?$CComObjectCached@VCComClassFactory@ATL@@@ATL@@UAGKXZ 1000b870 f i DBLog.obj
 0001:0000a8c0       ?QueryInterface@?$CComObjectCached@VCComClassFactory@ATL@@@ATL@@UAGJABU_GUID@@PAPAX@Z 1000b8c0 f i DBLog.obj
 0001:0000a8e0       ?CreateInstance@?$CComCreator@V?$CComAggObject@VCTSDatalink@@@ATL@@@ATL@@SGJPAXABU_GUID@@PAPAX@Z 1000b8e0 f i DBLog.obj
 0001:0000a9e0       ??_E?$CComObjectCached@VCComClassFactory@ATL@@@ATL@@UAEPAXI@Z 1000b9e0 f i DBLog.obj
 0001:0000a9e0       ??_G?$CComObjectCached@VCComClassFactory@ATL@@@ATL@@UAEPAXI@Z 1000b9e0 f i DBLog.obj
 0001:0000aa70       ?UpdateRegistryFromResourceD@CAtlModule@ATL@@QAGJPBDHPAU_ATL_REGMAP_ENTRY@2@@Z 1000ba70 f i DBLog.obj
 0001:0000ab60       ?UpdateRegistryFromResourceD@CComModule@ATL@@UAGJPBDHPAU_ATL_REGMAP_ENTRY@2@@Z 1000bb60 f i DBLog.obj
 0001:0000ab70       ?UpdateRegistryFromResourceD@CComModule@ATL@@UAGJIHPAU_ATL_REGMAP_ENTRY@2@@Z 1000bb70 f i DBLog.obj
 0001:0000ab80       ?GetTI@CComTypeInfoHolder@ATL@@QAEJK@Z 1000bb80 f i DBLog.obj
 0001:0000ae50       ?CreateInstance@?$CComCreator@V?$CComObjectCached@VCComClassFactory@ATL@@@ATL@@@ATL@@SGJPAXABU_GUID@@PAPAX@Z 1000be50 f i DBLog.obj
 0001:0000af70       ?CreateInstance@?$CComCreator2@V?$CComCreator@V?$CComObject@VCTSDatalink@@@ATL@@@ATL@@V?$CComCreator@V?$CComAggObject@VCTSDatalink@@@ATL@@@2@@ATL@@SGJPAXABU_GUID@@PAPAX@Z 1000bf70 f i DBLog.obj
 0001:0000af90       ?UpdateRegistry@CTSDatalink@@SGJH@Z 1000bf90 f i DBLog.obj
 0001:0000afb0       ?UpdateRegistry@CTSDBLog@@SGJH@Z 1000bfb0 f i DBLog.obj
 0001:0000afd0       ?RegisterServer@CComModule@ATL@@QAEJHPBU_GUID@@@Z 1000bfd0 f i DBLog.obj
 0001:0000b070       ?UnregisterServer@CComModule@ATL@@QAEJHPBU_GUID@@@Z 1000c070 f i DBLog.obj
 0001:0000b100       ?GetIDsOfNames@CComTypeInfoHolder@ATL@@QAEJABU_GUID@@PAPA_WIKPAJ@Z 1000c100 f i DBLog.obj
 0001:0000b220       ?AttachObject@IInstrSession@SM@@QAEJV_bstr_t@@PAUIUnknown@@0F@Z 1000c220 f   DBLog.obj
 0001:0000b340       ?TSRenamed_GetObject@IInstrSession@SM@@QAE?AV?$_com_ptr_t@V?$_com_IIID@UIUnknown@@$1?_GUID_00000000_0000_0000_c000_000000000046@@3U__s_GUID@@B@@@@V_bstr_t@@@Z 1000c340 f   DBLog.obj
 0001:0000b410       ?DetachData@IInstrSession@SM@@QAEJV_bstr_t@@@Z 1000c410 f   DBLog.obj
 0001:0000b4c0       ?GetInstrSession@IInstrSessionMgr@SM@@QAE?AV?$_com_ptr_t@V?$_com_IIID@UIInstrSession@SM@@$1?_GUID_8ab74eec_6c57_11d3_8de1_006097053485@@3U__s_GUID@@B@@@@V_bstr_t@@F@Z 1000c4c0 f   DBLog.obj
 0001:0000b590       ?GetSource@Error@@QAE?AV_bstr_t@@XZ 1000c590 f   DBLog.obj
 0001:0000b640       ?GetDescription@Error@@QAE?AV_bstr_t@@XZ 1000c640 f   DBLog.obj
 0001:0000b6f0       ?GetSQLState@Error@@QAE?AV_bstr_t@@XZ 1000c6f0 f   DBLog.obj
 0001:0000b7a0       ?GetCommandText@Command15@@QAE?AV_bstr_t@@XZ 1000c7a0 f   DBLog.obj
 0001:0000b850       ?PutCommandText@Command15@@QAEXV_bstr_t@@@Z 1000c850 f   DBLog.obj
 0001:0000b900       ?CreateParameter@Command15@@QAE?AV?$_com_ptr_t@V?$_com_IIID@U_Parameter@@$1?_GUID_0000150c_0000_0010_8000_00aa006d2ea4@@3U__s_GUID@@B@@@@V_bstr_t@@W4DataTypeEnum@@W4ParameterDirectionEnum@@JABV_variant_t@@@Z 1000c900 f   DBLog.obj
 0001:0000ba00       ?GetConnectionString@Connection15@@QAE?AV_bstr_t@@XZ 1000ca00 f   DBLog.obj
 0001:0000bab0       ?PutConnectionString@Connection15@@QAEXV_bstr_t@@@Z 1000cab0 f   DBLog.obj
 0001:0000bb60       ?GetVersion@Connection15@@QAE?AV_bstr_t@@XZ 1000cb60 f   DBLog.obj
 0001:0000bc10       ?Open@Connection15@@QAEJV_bstr_t@@00J@Z 1000cc10 f   DBLog.obj
 0001:0000bd80       ?Find@Recordset15@@QAEJV_bstr_t@@JW4SearchDirectionEnum@@ABV_variant_t@@@Z 1000cd80 f   DBLog.obj
 0001:0000be60       _DllRegisterServer@0       1000ce60 f   DBLog.obj
 0001:0000be70       _DllUnregisterServer@0     1000ce70 f   DBLog.obj
 0001:0000be80       ?GetTypeInfo@?$IDispatchImpl@UITSDatalink@@$1?IID_ITSDatalink@@3U_GUID@@B$1?LIBID_DBLOGLib@@3U3@B$00$0A@VCComTypeInfoHolder@ATL@@@ATL@@UAGJIKPAPAUITypeInfo@@@Z 1000ce80 f i DBLog.obj
 0001:0000bee0       ?GetIDsOfNames@?$IDispatchImpl@UITSDatalink@@$1?IID_ITSDatalink@@3U_GUID@@B$1?LIBID_DBLOGLib@@3U3@B$00$0A@VCComTypeInfoHolder@ATL@@@ATL@@UAGJABU_GUID@@PAPA_WIKPAJ@Z 1000cee0 f i DBLog.obj
 0001:0000bf10       ?Invoke@?$IDispatchImpl@UITSDatalink@@$1?IID_ITSDatalink@@3U_GUID@@B$1?LIBID_DBLOGLib@@3U3@B$00$0A@VCComTypeInfoHolder@ATL@@@ATL@@UAGJJABU_GUID@@KGPAUtagDISPPARAMS@@PAUtagVARIANT@@PAUtagEXCEPINFO@@PAI@Z 1000cf10 f i DBLog.obj
 0001:0000bf70       ??0?$CComObject@VCTSDBLog@@@ATL@@QAE@PAX@Z 1000cf70 f i DBLog.obj
 0001:0000c000       ?GetTypeInfoCount@?$IDispatchImpl@UITSDBLog@@$1?IID_ITSDBLog@@3U_GUID@@B$1?LIBID_DBLOGLib@@3U3@B$00$0A@VCComTypeInfoHolder@ATL@@@ATL@@UAGJPAI@Z 1000d000 f i DBLog.obj
 0001:0000c000       ?GetTypeInfoCount@?$IDispatchImpl@UITSDatalink@@$1?IID_ITSDatalink@@3U_GUID@@B$1?LIBID_DBLOGLib@@3U3@B$00$0A@VCComTypeInfoHolder@ATL@@@ATL@@UAGJPAI@Z 1000d000 f i DBLog.obj
 0001:0000c020       ?QueryInterface@?$CComObject@VCTSDBLog@@@ATL@@UAGJABU_GUID@@PAPAX@Z 1000d020 f i DBLog.obj
 0001:0000c040       ?QueryInterface@?$CComObject@VCTSDBLog@@@ATL@@W3AGJABU_GUID@@PAPAX@Z 1000d040 f i DBLog.obj
 0001:0000c050       ??1?$CComObject@VCTSDBLog@@@ATL@@UAE@XZ 1000d050 f i DBLog.obj
 0001:0000c0f0       ??_G?$CComObject@VCTSDBLog@@@ATL@@UAEPAXI@Z 1000d0f0 f i DBLog.obj
 0001:0000c0f0       ??_E?$CComObject@VCTSDBLog@@@ATL@@UAEPAXI@Z 1000d0f0 f i DBLog.obj
 0001:0000c110       ?GetTypeInfo@?$IDispatchImpl@UITSDBLog@@$1?IID_ITSDBLog@@3U_GUID@@B$1?LIBID_DBLOGLib@@3U3@B$00$0A@VCComTypeInfoHolder@ATL@@@ATL@@UAGJIKPAPAUITypeInfo@@@Z 1000d110 f i DBLog.obj
 0001:0000c170       ?GetIDsOfNames@?$IDispatchImpl@UITSDBLog@@$1?IID_ITSDBLog@@3U_GUID@@B$1?LIBID_DBLOGLib@@3U3@B$00$0A@VCComTypeInfoHolder@ATL@@@ATL@@UAGJABU_GUID@@PAPA_WIKPAJ@Z 1000d170 f i DBLog.obj
 0001:0000c1a0       ?Invoke@?$IDispatchImpl@UITSDBLog@@$1?IID_ITSDBLog@@3U_GUID@@B$1?LIBID_DBLOGLib@@3U3@B$00$0A@VCComTypeInfoHolder@ATL@@@ATL@@UAGJJABU_GUID@@KGPAUtagDISPPARAMS@@PAUtagVARIANT@@PAUtagEXCEPINFO@@PAI@Z 1000d1a0 f i DBLog.obj
 0001:0000c200       ?AddRef@?$CComContainedObject@VCTSDBLog@@@ATL@@UAGKXZ 1000d200 f i DBLog.obj
 0001:0000c200       ?AddRef@?$CComContainedObject@VCTSDatalink@@@ATL@@UAGKXZ 1000d200 f i DBLog.obj
 0001:0000c220       ?Release@?$CComContainedObject@VCTSDBLog@@@ATL@@UAGKXZ 1000d220 f i DBLog.obj
 0001:0000c220       ?Release@?$CComContainedObject@VCTSDatalink@@@ATL@@UAGKXZ 1000d220 f i DBLog.obj
 0001:0000c240       ?QueryInterface@?$CComContainedObject@VCTSDBLog@@@ATL@@UAGJABU_GUID@@PAPAX@Z 1000d240 f i DBLog.obj
 0001:0000c240       ?QueryInterface@?$CComContainedObject@VCTSDatalink@@@ATL@@UAGJABU_GUID@@PAPAX@Z 1000d240 f i DBLog.obj
 0001:0000c260       ?AddRef@?$CComContainedObject@VCTSDatalink@@@ATL@@W3AGKXZ 1000d260 f i DBLog.obj
 0001:0000c260       ?AddRef@?$CComContainedObject@VCTSDBLog@@@ATL@@W3AGKXZ 1000d260 f i DBLog.obj
 0001:0000c270       ?QueryInterface@?$CComContainedObject@VCTSDatalink@@@ATL@@W3AGJABU_GUID@@PAPAX@Z 1000d270 f i DBLog.obj
 0001:0000c270       ?QueryInterface@?$CComContainedObject@VCTSDBLog@@@ATL@@W3AGJABU_GUID@@PAPAX@Z 1000d270 f i DBLog.obj
 0001:0000c280       ?GetLowerBoundsString@ArrayDimensions@TS@@QAE?AV_bstr_t@@XZ 1000d280 f   DBLog.obj
 0001:0000c330       ?GetUpperBoundsString@ArrayDimensions@TS@@QAE?AV_bstr_t@@XZ 1000d330 f   DBLog.obj
 0001:0000c3e0       ?GetTypeName@PropertyObjectType@TS@@QAE?AV_bstr_t@@XZ 1000d3e0 f   DBLog.obj
 0001:0000c490       ?GetDisplayString@PropertyObjectType@TS@@QAE?AV_bstr_t@@XZ 1000d490 f   DBLog.obj
 0001:0000c540       ?GetValNumber@PropertyObject@TS@@QAENV_bstr_t@@J@Z 1000d540 f   DBLog.obj
 0001:0000c610       ?SetValNumber@PropertyObject@TS@@QAEJV_bstr_t@@JN@Z 1000d610 f   DBLog.obj
 0001:0000c6d0       ?GetValBoolean@PropertyObject@TS@@QAEFV_bstr_t@@J@Z 1000d6d0 f   DBLog.obj
 0001:0000c7a0       ?GetValString@PropertyObject@TS@@QAE?AV_bstr_t@@V3@J@Z 1000d7a0 f   DBLog.obj
 0001:0000c8b0       ?SetValString@PropertyObject@TS@@QAEJV_bstr_t@@J0@Z 1000d8b0 f   DBLog.obj
 0001:0000c9d0       ?GetPropertyObject@PropertyObject@TS@@QAE?AV?$_com_ptr_t@V?$_com_IIID@UPropertyObject@TS@@$1?_GUID_8d8769a0_09c0_11d1_93bd_0020af68e893@@3U__s_GUID@@B@@@@V_bstr_t@@J@Z 1000d9d0 f   DBLog.obj
 0001:0000caa0       ?SetPropertyObject@PropertyObject@TS@@QAEJV_bstr_t@@JPAU12@@Z 1000daa0 f   DBLog.obj
 0001:0000cb60       ?GetValVariant@PropertyObject@TS@@QAE?AV_variant_t@@V_bstr_t@@J@Z 1000db60 f   DBLog.obj
 0001:0000cc50       ?SetValVariant@PropertyObject@TS@@QAEJV_bstr_t@@JABV_variant_t@@@Z 1000dc50 f   DBLog.obj
 0001:0000cd30       ?GetValIDispatch@PropertyObject@TS@@QAE?AV?$_com_ptr_t@V?$_com_IIID@UIDispatch@@$1?_GUID_00020400_0000_0000_c000_000000000046@@3U__s_GUID@@B@@@@V_bstr_t@@J@Z 1000dd30 f   DBLog.obj
 0001:0000ce00       ?SetValIDispatch@PropertyObject@TS@@QAEJV_bstr_t@@JPAUIDispatch@@@Z 1000de00 f   DBLog.obj
 0001:0000cec0       ?GetFlags@PropertyObject@TS@@QAEJV_bstr_t@@J@Z 1000dec0 f   DBLog.obj
 0001:0000cf90       ?GetDimensions@PropertyObject@TS@@QAEJV_bstr_t@@JPAPA_W1PAJPAW4PropertyValueTypes@2@@Z 1000df90 f   DBLog.obj
 0001:0000d060       ?GetArrayIndex@PropertyObject@TS@@QAE?AV_bstr_t@@V3@JJ@Z 1000e060 f   DBLog.obj
 0001:0000d170       ?NewSubProperty@PropertyObject@TS@@QAEJV_bstr_t@@W4PropertyValueTypes@2@F0J@Z 1000e170 f   DBLog.obj
 0001:0000d290       ?DeleteSubProperty@PropertyObject@TS@@QAEJV_bstr_t@@J@Z 1000e290 f   DBLog.obj
 0001:0000d350       ?GetNumSubProperties@PropertyObject@TS@@QAEJV_bstr_t@@@Z 1000e350 f   DBLog.obj
 0001:0000d410       ?GetNthSubPropertyName@PropertyObject@TS@@QAE?AV_bstr_t@@V3@JJ@Z 1000e410 f   DBLog.obj
 0001:0000d530       ?Exists@PropertyObject@TS@@QAEFV_bstr_t@@J@Z 1000e530 f   DBLog.obj
 0001:0000d600       ?Clone@PropertyObject@TS@@QAE?AV?$_com_ptr_t@V?$_com_IIID@UPropertyObject@TS@@$1?_GUID_8d8769a0_09c0_11d1_93bd_0020af68e893@@3U__s_GUID@@B@@@@V_bstr_t@@J@Z 1000e600 f   DBLog.obj
 0001:0000d6e0       ?Evaluate@PropertyObject@TS@@QAE?AV?$_com_ptr_t@V?$_com_IIID@UPropertyObject@TS@@$1?_GUID_8d8769a0_09c0_11d1_93bd_0020af68e893@@3U__s_GUID@@B@@@@V_bstr_t@@@Z 1000e6e0 f   DBLog.obj
 0001:0000d7b0       ?EvaluateEx@PropertyObject@TS@@QAE?AV?$_com_ptr_t@V?$_com_IIID@UPropertyObject@TS@@$1?_GUID_8d8769a0_09c0_11d1_93bd_0020af68e893@@3U__s_GUID@@B@@@@V_bstr_t@@J@Z 1000e7b0 f   DBLog.obj
 0001:0000d890       ?GetName@PropertyObject@TS@@QAE?AV_bstr_t@@XZ 1000e890 f   DBLog.obj
 0001:0000d940       ?GetFormattedValue@PropertyObject@TS@@QAE?AV_bstr_t@@V3@J0F0@Z 1000e940 f   DBLog.obj
 0001:0000db00       ?GetNumericFormat@PropertyObject@TS@@QAE?AV_bstr_t@@XZ 1000eb00 f   DBLog.obj
 0001:0000dbb0       ?PutText@Expression@TS@@QAEXV_bstr_t@@@Z 1000ebb0 f   DBLog.obj
 0001:0000dc60       ?FindFile@IEngine@TS@@QAEFV_bstr_t@@PAPA_WPAFW4FindFilePromptOptions@2@W4FindFileSearchListOptions@2@FABV_variant_t@@@Z 1000ec60 f   DBLog.obj
 0001:0000dd60       ?GetResourceString@IEngine@TS@@QAE?AV_bstr_t@@V3@0ABV_variant_t@@PAUtagVARIANT@@@Z 1000ed60 f   DBLog.obj
 0001:0000dee0       ?PostUIMessage@Thread@TS@@QAEJW4UIMessageCodes@2@NV_bstr_t@@F@Z 1000eee0 f   DBLog.obj
 0001:0000dfb0       ?CreateInstance@?$CComCreator@V?$CComObject@VCTSDBLog@@@ATL@@@ATL@@SGJPAXABU_GUID@@PAPAX@Z 1000efb0 f i DBLog.obj
 0001:0000e0e0       ??0?$CComAggObject@VCTSDBLog@@@ATL@@QAE@PAX@Z 1000f0e0 f i DBLog.obj
 0001:0000e1a0       ?QueryInterface@?$CComAggObject@VCTSDBLog@@@ATL@@UAGJABU_GUID@@PAPAX@Z 1000f1a0 f i DBLog.obj
 0001:0000e210       ??1?$CComAggObject@VCTSDBLog@@@ATL@@UAE@XZ 1000f210 f i DBLog.obj
 0001:0000e2c0       ??_E?$CComAggObject@VCTSDBLog@@@ATL@@UAEPAXI@Z 1000f2c0 f i DBLog.obj
 0001:0000e2c0       ??_G?$CComAggObject@VCTSDBLog@@@ATL@@UAEPAXI@Z 1000f2c0 f i DBLog.obj
 0001:0000e2e0       ?CreateInstance@?$CComCreator@V?$CComAggObject@VCTSDBLog@@@ATL@@@ATL@@SGJPAXABU_GUID@@PAPAX@Z 1000f2e0 f i DBLog.obj
 0001:0000e3e0       ?CreateInstance@?$CComCreator2@V?$CComCreator@V?$CComObject@VCTSDBLog@@@ATL@@@ATL@@V?$CComCreator@V?$CComAggObject@VCTSDBLog@@@ATL@@@2@@ATL@@SGJPAXABU_GUID@@PAPAX@Z 1000f3e0 f i DBLog.obj
 0001:0000e400       ??1CCritSectLock@@QAE@XZ   1000f400 f i DBLogUtil.obj
 0001:0000e420       ?GetContext@LoggingInfo@@QAEAAV?$_com_ptr_t@V?$_com_IIID@USequenceContext@TS@@$1?_GUID_6427d0e0_e410_11d0_93b4_0020af68e893@@3U__s_GUID@@B@@@@XZ 1000f420 f   DBLogUtil.obj
 0001:0000e430       ?LoggingNewStep@LoggingInfo@@QAEXXZ 1000f430 f   DBLogUtil.obj
 0001:0000e440       ?CreatingStubStepResult@LoggingInfo@@QAEX_N@Z 1000f440 f   DBLogUtil.obj
 0001:0000e450       ?GetLastTerminationStatus@LoggingInfo@@QAE_NXZ 1000f450 f   DBLogUtil.obj
 0001:0000e460       ??$_CompareUnknown@PAUPropertyObject@TS@@@?$_com_ptr_t@V?$_com_IIID@UPropertyObject@TS@@$1?_GUID_8d8769a0_09c0_11d1_93bd_0020af68e893@@3U__s_GUID@@B@@@@ABEHPAUPropertyObject@TS@@@Z 1000f460 f i DBLogUtil.obj
 0001:0000e500       ?GetTerminationMonitorStatus@LoggingInfo@@QAE_NXZ 1000f500 f   DBLogUtil.obj
 0001:0000e5c0       ??$_QueryInterface@V?$_com_ptr_t@V?$_com_IIID@USequenceContext@TS@@$1?_GUID_6427d0e0_e410_11d0_93b4_0020af68e893@@3U__s_GUID@@B@@@@@?$_com_ptr_t@V?$_com_IIID@UPropertyObject@TS@@$1?_GUID_8d8769a0_09c0_11d1_93bd_0020af68e893@@3U__s_GUID@@B@@@@AAEJV?$_com_ptr_t@V?$_com_IIID@USequenceContext@TS@@$1?_GUID_6427d0e0_e410_11d0_93b4_0020af68e893@@3U__s_GUID@@B@@@@@Z 1000f5c0 f i DBLogUtil.obj
 0001:0000e680       ?InitTerminationMonitor@LoggingInfo@@QAEXXZ 1000f680 f   DBLogUtil.obj
 0001:0000e760       ??$?0V?$_com_IIID@USequenceContext@TS@@$1?_GUID_6427d0e0_e410_11d0_93b4_0020af68e893@@3U__s_GUID@@B@@@?$_com_ptr_t@V?$_com_IIID@UPropertyObject@TS@@$1?_GUID_8d8769a0_09c0_11d1_93bd_0020af68e893@@3U__s_GUID@@B@@@@QAE@ABV?$_com_ptr_t@V?$_com_IIID@USequenceContext@TS@@$1?_GUID_6427d0e0_e410_11d0_93b4_0020af68e893@@3U__s_GUID@@B@@@@@Z 1000f760 f i DBLogUtil.obj
 0001:0000e7e0       ?Attach@_bstr_t@@QAEXPA_W@Z 1000f7e0 f i DBLogUtil.obj
 0001:0000e8a0       ?Clear@LoggingInfo@@QAEXXZ 1000f8a0 f   DBLogUtil.obj
 0001:0000ea90       ?Initialize@LoggingInfo@@QAEXAAV?$_com_ptr_t@V?$_com_IIID@USequenceContext@TS@@$1?_GUID_6427d0e0_e410_11d0_93b4_0020af68e893@@3U__s_GUID@@B@@@@W4LoggingInfoTypes@1@_NAA_N2@Z 1000fa90 f   DBLogUtil.obj
 0001:0000f330       ??1LoggingInfo@@QAE@XZ     10010330 f   DBLogUtil.obj
 0001:0000f610       ?SetUUT@LoggingInfo@@QAEXAAV?$_com_ptr_t@V?$_com_IIID@UPropertyObject@TS@@$1?_GUID_8d8769a0_09c0_11d1_93bd_0020af68e893@@3U__s_GUID@@B@@@@@Z 10010610 f   DBLogUtil.obj
 0001:0000f6d0       ?SetDBOptions@LoggingInfo@@QAEXAAV?$_com_ptr_t@V?$_com_IIID@UPropertyObject@TS@@$1?_GUID_8d8769a0_09c0_11d1_93bd_0020af68e893@@3U__s_GUID@@B@@@@@Z 100106d0 f   DBLogUtil.obj
 0001:0000f800       ?GetDBOptionResultFilter@LoggingInfo@@QAE_NXZ 10010800 f   DBLogUtil.obj
 0001:0000fa20       ?GetDBOptionShowProgress@LoggingInfo@@QAE_NXZ 10010a20 f   DBLogUtil.obj
 0001:0000fb30       ?GetDBOptionIncludeAdditionalResults@LoggingInfo@@QAE_NXZ 10010b30 f   DBLogUtil.obj
 0001:0000fc40       ?GetDBOptionIncludeMeasurements@LoggingInfo@@QAE_NXZ 10010c40 f   DBLogUtil.obj
 0001:0000fd50       ?GetDBOptionIncludeLimits@LoggingInfo@@QAE_NXZ 10010d50 f   DBLogUtil.obj
 0001:0000fe60       ?SetStartTime@LoggingInfo@@QAEXAAV?$_com_ptr_t@V?$_com_IIID@UPropertyObject@TS@@$1?_GUID_8d8769a0_09c0_11d1_93bd_0020af68e893@@3U__s_GUID@@B@@@@@Z 10010e60 f   DBLogUtil.obj
 0001:0000ff20       ?SetStartDate@LoggingInfo@@QAEXAAV?$_com_ptr_t@V?$_com_IIID@UPropertyObject@TS@@$1?_GUID_8d8769a0_09c0_11d1_93bd_0020af68e893@@3U__s_GUID@@B@@@@@Z 10010f20 f   DBLogUtil.obj
 0001:0000ffe0       ?SetStationInfo@LoggingInfo@@QAEXAAV?$_com_ptr_t@V?$_com_IIID@UPropertyObject@TS@@$1?_GUID_8d8769a0_09c0_11d1_93bd_0020af68e893@@3U__s_GUID@@B@@@@@Z 10010fe0 f   DBLogUtil.obj
 0001:000100a0       ?GetExecutionOrder@LoggingInfo@@QAEHXZ 100110a0 f   DBLogUtil.obj
 0001:00010230       ?SetExecutionOrder@LoggingInfo@@QAEXH@Z 10011230 f   DBLogUtil.obj
 0001:00010380       ?GetRootExecutionOrder@LoggingInfo@@QAEHXZ 10011380 f   DBLogUtil.obj
 0001:00010580       ?SetRootExecutionOrder@LoggingInfo@@QAEXH@Z 10011580 f   DBLogUtil.obj
 0001:00010740       ?SetUUTResult@LoggingInfo@@QAEXAAV?$_com_ptr_t@V?$_com_IIID@UPropertyObject@TS@@$1?_GUID_8d8769a0_09c0_11d1_93bd_0020af68e893@@3U__s_GUID@@B@@@@@Z 10011740 f   DBLogUtil.obj
 0001:00010800       ?GetStepResult@LoggingInfo@@QAEAAV?$_com_ptr_t@V?$_com_IIID@UPropertyObject@TS@@$1?_GUID_8d8769a0_09c0_11d1_93bd_0020af68e893@@3U__s_GUID@@B@@@@XZ 10011800 f   DBLogUtil.obj
 0001:000108d0       ?SetStepResult@LoggingInfo@@QAEXV?$_com_ptr_t@V?$_com_IIID@UPropertyObject@TS@@$1?_GUID_8d8769a0_09c0_11d1_93bd_0020af68e893@@3U__s_GUID@@B@@@@@Z 100118d0 f   DBLogUtil.obj
 0001:00010a00       ?GetPropData@LoggingInfo@@QAEAAV?$_com_ptr_t@V?$_com_IIID@UPropertyObject@TS@@$1?_GUID_8d8769a0_09c0_11d1_93bd_0020af68e893@@3U__s_GUID@@B@@@@XZ 10011a00 f   DBLogUtil.obj
 0001:00010ad0       ?GetPropPath@LoggingInfo@@QAE?AV_bstr_t@@XZ 10011ad0 f   DBLogUtil.obj
 0001:00010d30       ?SetPropPath@LoggingInfo@@QAEXV_bstr_t@@@Z 10011d30 f   DBLogUtil.obj
 0001:00010f30       ?SetPropCategory@LoggingInfo@@QAEXW4PropertyCategory@@@Z 10011f30 f   DBLogUtil.obj
 0001:000110a0       ?SetPropertyOrder@LoggingInfo@@QAEXH@Z 100120a0 f   DBLogUtil.obj
 0001:00011210       ?ResetPropertyOrder@LoggingInfo@@QAEXXZ 10012210 f   DBLogUtil.obj
 0001:00011220       ?IncPropertyOrder@LoggingInfo@@QAEXXZ 10012220 f   DBLogUtil.obj
 0001:00011230       ?GetTSDBLogResString@@YA?AV_bstr_t@@V?$_com_ptr_t@V?$_com_IIID@UIEngine@TS@@$1?_GUID_b2794ef5_c0b6_11d0_939c_0020af68e893@@3U__s_GUID@@B@@@@PBD@Z 10012230 f   DBLogUtil.obj
 0001:000113a0       ?PrefixTSDBLogErrorString@@YA?AV_bstr_t@@V?$_com_ptr_t@V?$_com_IIID@UIEngine@TS@@$1?_GUID_b2794ef5_c0b6_11d0_939c_0020af68e893@@3U__s_GUID@@B@@@@V1@H@Z 100123a0 f   DBLogUtil.obj
 0001:00011760       ?SetErrorInfoForException@@YAJABU_GUID@@JPBD1@Z 10012760 f   DBLogUtil.obj
 0001:00011990       ?GetTextForAdoErrors@@YA?AV_bstr_t@@V?$_com_ptr_t@V?$_com_IIID@U_Connection@@$1?_GUID_00001550_0000_0010_8000_00aa006d2ea4@@3U__s_GUID@@B@@@@V1@@Z 10012990 f   DBLogUtil.obj
 0001:000125b0       ??0LoggingInfo@@QAE@AAV?$_com_ptr_t@V?$_com_IIID@USequenceContext@TS@@$1?_GUID_6427d0e0_e410_11d0_93b4_0020af68e893@@3U__s_GUID@@B@@@@_N@Z 100135b0 f   DBLogUtil.obj
 0001:000126d0       ??0LoggingInfo@@QAE@AAV?$_com_ptr_t@V?$_com_IIID@USequenceContext@TS@@$1?_GUID_6427d0e0_e410_11d0_93b4_0020af68e893@@3U__s_GUID@@B@@@@W4LoggingInfoTypes@0@_NAA_N2@Z 100136d0 f   DBLogUtil.obj
 0001:000127f0       ?IncExecutionOrder@LoggingInfo@@QAEXXZ 100137f0 f   DBLogUtil.obj
 0001:000128b0       ?SetResultProperty@LoggingInfo@@QAEXV?$_com_ptr_t@V?$_com_IIID@UPropertyObject@TS@@$1?_GUID_8d8769a0_09c0_11d1_93bd_0020af68e893@@3U__s_GUID@@B@@@@@Z 100138b0 f   DBLogUtil.obj
 0001:000131f0       ?ClearPropertyInfo@LoggingInfo@@QAEXXZ 100141f0 f   DBLogUtil.obj
 0001:00015120       ?FormatToVariant@@YAHKPAD0AAV_variant_t@@@Z 10016120 f   format.obj
 0001:000159e0       ??0CMutex@@QAE@XZ          100169e0 f   Mutex.obj
 0001:000159f0       ??1CMutex@@QAE@XZ          100169f0 f   Mutex.obj
 0001:00015cb0       ?Initialize@CMutex@@QAEXV_bstr_t@@_NAAUIDispatch@@AAV2@PAJ@Z 10016cb0 f   Mutex.obj
 0001:00015fb0       ?GetStatus@ADOLoggingObject@@UAEHAAV_bstr_t@@@Z 10016fb0 f i Statement.obj
 0001:00015fc0       ?Release@?$_com_ptr_t@V?$_com_IIID@UIUnknown@@$1?_GUID_00000000_0000_0000_c000_000000000046@@3U__s_GUID@@B@@@@QAEXXZ 10016fc0 f i TSDBLog.obj
 0001:00015fc0       ?Release@?$_com_ptr_t@V?$_com_IIID@UCommand25@@$1?_GUID_0000154e_0000_0010_8000_00aa006d2ea4@@3U__s_GUID@@B@@@@QAEXXZ 10016fc0 f i Statement.obj
 0001:00015ff0       ?GetTail@?$CList@PAVCKeyItem@@PAV1@@@QAEAAPAVCKeyItem@@XZ 10016ff0 f i Statement.obj
 0001:00016000       ?GetHead@?$CList@PAVCDbColumn@@PAV1@@@QAEAAPAVCDbColumn@@XZ 10017000 f i Statement.obj
 0001:00016010       ?GetLastKeyListFromId@Statement@@QAEPAVCLastKeyList@@J@Z 10017010 f   Statement.obj
 0001:00016040       ?Commit@Statement@@QAEXXZ  10017040 f   Statement.obj
 0001:00016070       ?Close@Statement@@QAEXXZ   10017070 f   Statement.obj
 0001:000160f0       ??0?$_com_ptr_t@V?$_com_IIID@U_Recordset@@$1?_GUID_00001556_0000_0010_8000_00aa006d2ea4@@3U__s_GUID@@B@@@@QAE@ABV0@@Z 100170f0 f i Statement.obj
 0001:000160f0       ??0?$_com_ptr_t@V?$_com_IIID@U_Connection@@$1?_GUID_00001550_0000_0010_8000_00aa006d2ea4@@3U__s_GUID@@B@@@@QAE@ABV0@@Z 100170f0 f i Columns.obj
 0001:00016110       ?RemoveTail@?$CList@PAVCKeyItem@@PAV1@@@QAEPAVCKeyItem@@XZ 10017110 f i Statement.obj
 0001:00016180       ??1?$CList@PAVCKeyItem@@PAV1@@@UAE@XZ 10017180 f i Statement.obj
 0001:000161c0       ?RemoveAt@?$CList@PAVCLastKeyList@@PAV1@@@QAEXPAU__POSITION@@@Z 100171c0 f i Statement.obj
 0001:00016230       ??1?$CList@PAVCLastKeyList@@PAV1@@@UAE@XZ 10017230 f i Statement.obj
 0001:00016270       ??1?$CList@PAVCDbColumn@@PAV1@@@UAE@XZ 10017270 f i Statement.obj
 0001:000162b0       ??0?$CList@V?$CStringT@DV?$StrTraitMFC_DLL@DV?$ChTraitsCRT@D@ATL@@@@@ATL@@AAV12@@@QAE@H@Z 100172b0 f i Statement.obj
 0001:000162e0       ??_E?$CList@PAVCKeyItem@@PAV1@@@UAEPAXI@Z 100172e0 f i Statement.obj
 0001:000162e0       ??_G?$CList@PAVCKeyItem@@PAV1@@@UAEPAXI@Z 100172e0 f i Statement.obj
 0001:00016330       ??_G?$CList@PAVCLastKeyList@@PAV1@@@UAEPAXI@Z 10017330 f i Statement.obj
 0001:00016330       ??_E?$CList@PAVCLastKeyList@@PAV1@@@UAEPAXI@Z 10017330 f i Statement.obj
 0001:00016380       ??_G?$CList@PAVCDbColumn@@PAV1@@@UAEPAXI@Z 10017380 f i Statement.obj
 0001:00016380       ??_E?$CList@PAVCDbColumn@@PAV1@@@UAEPAXI@Z 10017380 f i Statement.obj
 0001:000163d0       ?NewNode@?$CList@PAVCKeyItem@@PAV1@@@IAEPAUCNode@1@PAU21@0@Z 100173d0 f i Statement.obj
 0001:000163d0       ?NewNode@?$CList@PAVCDbColumn@@PAV1@@@IAEPAUCNode@1@PAU21@0@Z 100173d0 f i Statement.obj
 0001:000163d0       ?NewNode@?$CList@PAVStatement@@PAV1@@@IAEPAUCNode@1@PAU21@0@Z 100173d0 f i TSDatalink.obj
 0001:000163d0       ?NewNode@?$CList@PAVCLastKeyList@@PAV1@@@IAEPAUCNode@1@PAU21@0@Z 100173d0 f i Statement.obj
 0001:00016430       ?NewNode@?$CList@V?$CStringT@DV?$StrTraitMFC_DLL@DV?$ChTraitsCRT@D@ATL@@@@@ATL@@AAV12@@@IAEPAUCNode@1@PAU21@0@Z 10017430 f i Statement.obj
 0001:000164a0       ??1ADOLoggingObject_Recordset@@QAE@XZ 100174a0 f i Statement.obj
 0001:000164a0       ??1ADOLoggingObject_Command@@QAE@XZ 100174a0 f i Statement.obj
 0001:000164e0       ?GetLastKeyList@Statement@@QAEPAVCLastKeyList@@AAVLoggingInfo@@@Z 100174e0 f   Statement.obj
 0001:000165d0       ?GetKeyValueForDepth@Statement@@QAE?AV_variant_t@@AAVLoggingInfo@@H@Z 100175d0 f   Statement.obj
 0001:000166b0       ?GetLastKeyItem@Statement@@QAEPAVCKeyItem@@AAVLoggingInfo@@@Z 100176b0 f   Statement.obj
 0001:00016760       ?AddTail@?$CList@V?$CStringT@DV?$StrTraitMFC_DLL@DV?$ChTraitsCRT@D@ATL@@@@@ATL@@AAV12@@@QAEPAU__POSITION@@AAV?$CStringT@DV?$StrTraitMFC_DLL@DV?$ChTraitsCRT@D@ATL@@@@@ATL@@@Z 10017760 f i Statement.obj
 0001:000167a0       ??1?$CList@V?$CStringT@DV?$StrTraitMFC_DLL@DV?$ChTraitsCRT@D@ATL@@@@@ATL@@AAV12@@@UAE@XZ 100177a0 f i Statement.obj
 0001:000167e0       ?Serialize@?$CList@V?$CStringT@DV?$StrTraitMFC_DLL@DV?$ChTraitsCRT@D@ATL@@@@@ATL@@AAV12@@@UAEXAAVCArchive@@@Z 100177e0 f i Statement.obj
 0001:00016960       ??_E?$CList@V?$CStringT@DV?$StrTraitMFC_DLL@DV?$ChTraitsCRT@D@ATL@@@@@ATL@@AAV12@@@UAEPAXI@Z 10017960 f i Statement.obj
 0001:00016960       ??_G?$CList@V?$CStringT@DV?$StrTraitMFC_DLL@DV?$ChTraitsCRT@D@ATL@@@@@ATL@@AAV12@@@UAEPAXI@Z 10017960 f i Statement.obj
 0001:000169c0       ??0ADOLoggingObject_Command@@QAE@V?$_com_ptr_t@V?$_com_IIID@UCommand25@@$1?_GUID_0000154e_0000_0010_8000_00aa006d2ea4@@3U__s_GUID@@B@@@@@Z 100179c0 f i Statement.obj
 0001:00016a50       ?AppendChunk@ADOLoggingObject_Command@@UAEJAAV_bstr_t@@AAV_variant_t@@@Z 10017a50 f i Statement.obj
 0001:00016b70       ?AppendChunk@ADOLoggingObject_Command@@UAEJAAV_bstr_t@@0@Z 10017b70 f i Statement.obj
 0001:00016ce0       ?Assign@ADOLoggingObject_Command@@UAEXAAV_bstr_t@@AAV_variant_t@@@Z 10017ce0 f i Statement.obj
 0001:00016e00       ?Assign@ADOLoggingObject_Command@@UAEXAAV_bstr_t@@0@Z 10017e00 f i Statement.obj
 0001:00016f70       ??0ADOLoggingObject_Recordset@@QAE@V?$_com_ptr_t@V?$_com_IIID@U_Recordset@@$1?_GUID_00001556_0000_0010_8000_00aa006d2ea4@@3U__s_GUID@@B@@@@@Z 10017f70 f i Statement.obj
 0001:00017000       ?IsCommand@ADOLoggingObject_Command@@UAE_NXZ 10018000 f i Statement.obj
 0001:00017000       ?IsRecordSet@ADOLoggingObject_Recordset@@UAE_NXZ 10018000 f i Statement.obj
 0001:00017010       ?IsCommand@ADOLoggingObject_Recordset@@UAE_NXZ 10018010 f i Statement.obj
 0001:00017010       ?IsRecordSet@ADOLoggingObject_Command@@UAE_NXZ 10018010 f i Statement.obj
 0001:00017020       ?AppendChunk@ADOLoggingObject_Recordset@@UAEJAAV_bstr_t@@AAV_variant_t@@@Z 10018020 f i Statement.obj
 0001:00017140       ?AppendChunk@ADOLoggingObject_Recordset@@UAEJAAV_bstr_t@@0@Z 10018140 f i Statement.obj
 0001:000172b0       ?Assign@ADOLoggingObject_Recordset@@UAEXAAV_bstr_t@@AAV_variant_t@@@Z 100182b0 f i Statement.obj
 0001:000173d0       ?Assign@ADOLoggingObject_Recordset@@UAEXAAV_bstr_t@@0@Z 100183d0 f i Statement.obj
 0001:00017540       ?GetStatus@ADOLoggingObject_Recordset@@UAEHAAV_bstr_t@@@Z 10018540 f i Statement.obj
 0001:00017660       ??1CLastKeyList@@QAE@XZ    10018660 f i Statement.obj
 0001:00017760       ?GetLastKeyValue@Statement@@QAE?AV_variant_t@@AAVLoggingInfo@@@Z 10018760 f   Statement.obj
 0001:00017810       ?PushKeyValue@Statement@@QAEXAAVLoggingInfo@@V_variant_t@@@Z 10018810 f   Statement.obj
 0001:00017a50       ?PopKeyValue@Statement@@QAEXAAVLoggingInfo@@_N@Z 10018a50 f   Statement.obj
 0001:00017bf0       ??H_bstr_t@@QBE?AV0@ABV0@@Z 10018bf0 f i Statement.obj
 0001:00017c60       ??H@YA?AV_bstr_t@@PBDABV0@@Z 10018c60 f i Statement.obj
 0001:00017d00       ?GetForeignKeyName@CDbColumn@@QAE?AV_bstr_t@@XZ 10018d00 f i Statement.obj
 0001:00017d60       ?InitForeignKeyInformation@Statement@@QAEXAAV?$_com_ptr_t@V?$_com_IIID@USequenceContext@TS@@$1?_GUID_6427d0e0_e410_11d0_93b4_0020af68e893@@3U__s_GUID@@B@@@@@Z 10018d60 f   Statement.obj
 0001:00018300       ?CreateOnTheFlyCommands@Statement@@QAEXXZ 10019300 f   Statement.obj
 0001:00019090       ?Open@Statement@@QAEXAAV?$_com_ptr_t@V?$_com_IIID@USequenceContext@TS@@$1?_GUID_6427d0e0_e410_11d0_93b4_0020af68e893@@3U__s_GUID@@B@@@@V?$_com_ptr_t@V?$_com_IIID@U_Connection@@$1?_GUID_00001550_0000_0010_8000_00aa006d2ea4@@3U__s_GUID@@B@@@@@Z 1001a090 f   Statement.obj
 0001:000199b0       ?GetIntrinsicTypeName@Statement@@QAE?AV_bstr_t@@W4PropertyValueTypes@TS@@@Z 1001a9b0 f   Statement.obj
 0001:00019a50       ?WillLog@Statement@@QAE_NAAVLoggingInfo@@@Z 1001aa50 f   Statement.obj
 0001:0001a090       ?Execute@Statement@@QAEXAAVLoggingInfo@@AAJW4eProcessType@1@@Z 1001b090 f   Statement.obj
 0001:0001b500       ?CreateParentStubs@Statement@@QAEXAAVLoggingInfo@@@Z 1001c500 f   Statement.obj
 0001:0001b7b0       ?ExecuteForOnTheFly@Statement@@QAEXAAVLoggingInfo@@AAJ@Z 1001c7b0 f   Statement.obj
 0001:0001b8d0       ??1Statement@@QAE@XZ       1001c8d0 f   Statement.obj
 0001:0001bf00       ??0Statement@@QAE@AAV?$_com_ptr_t@V?$_com_IIID@USequenceContext@TS@@$1?_GUID_6427d0e0_e410_11d0_93b4_0020af68e893@@3U__s_GUID@@B@@@@AAV?$_com_ptr_t@V?$_com_IIID@UPropertyObject@TS@@$1?_GUID_8d8769a0_09c0_11d1_93bd_0020af68e893@@3U__s_GUID@@B@@@@PAVCTSDatalink@@@Z 1001cf00 f   Statement.obj
 0001:0001c8a0       ?CanProcess@PropertyInfo@@QAE_NJ@Z 1001d8a0 f i TSDatalink.obj
 0001:0001c8e0       ?InterfaceSupportsErrorInfo@CTSDatalink@@UAGJABU_GUID@@@Z 1001d8e0 f   TSDatalink.obj
 0001:0001c930       ?ResetTraversingOptions@CTSDatalink@@AAEJAAVLoggingInfo@@J@Z 1001d930 f   TSDatalink.obj
 0001:0001c950       ?RemoveAll@?$CList@PAVStatement@@PAV1@@@QAEXXZ 1001d950 f i TSDatalink.obj
 0001:0001c980       ?ProcessStatements@CTSDatalink@@AAEXAAVLoggingInfo@@_NAAV?$CList@PAVStatement@@PAV1@@@AAJ@Z 1001d980 f   TSDatalink.obj
 0001:0001c9d0       ?PopStatementKeyValues@CTSDatalink@@AAEXAAVLoggingInfo@@AAV?$CList@PAVStatement@@PAV1@@@_N@Z 1001d9d0 f   TSDatalink.obj
 0001:0001ca00       ?CommitBatchStatement@CTSDatalink@@AAEXAAV?$CList@PAVStatement@@PAV1@@@@Z 1001da00 f   TSDatalink.obj
 0001:0001ca30       ?BeginTransaction@CTSDatalink@@AAEXXZ 1001da30 f   TSDatalink.obj
 0001:0001ca50       ?CloseAllStatements@CTSDatalink@@AAEXXZ 1001da50 f   TSDatalink.obj
 0001:0001caa0       ??1?$CList@PAVStatement@@PAV1@@@UAE@XZ 1001daa0 f i TSDatalink.obj
 0001:0001cae0       ??_G?$CList@PAVStatement@@PAV1@@@UAEPAXI@Z 1001dae0 f i TSDatalink.obj
 0001:0001cae0       ??_E?$CList@PAVStatement@@PAV1@@@UAEPAXI@Z 1001dae0 f i TSDatalink.obj
 0001:0001cb30       ?clearStatements@CTSDatalink@@AAEXAAV?$CList@PAVStatement@@PAV1@@@@Z 1001db30 f   TSDatalink.obj
 0001:0001cbc0       ?RollbackTransaction@CTSDatalink@@AAEXXZ 1001dbc0 f   TSDatalink.obj
 0001:0001cbf0       ?CommitTransaction@CTSDatalink@@AAEXXZ 1001dbf0 f   TSDatalink.obj
 0001:0001cc20       ?CreateInstance@?$_com_ptr_t@V?$_com_IIID@U_Connection@@$1?_GUID_00001550_0000_0010_8000_00aa006d2ea4@@3U__s_GUID@@B@@@@QAEJABU_GUID@@PAUIUnknown@@K@Z 1001dc20 f i TSDatalink.obj
 0001:0001ccc0       ?AddTail@?$CList@PAVCDbColumn@@PAV1@@@QAEPAU__POSITION@@PAVCDbColumn@@@Z 1001dcc0 f i Statement.obj
 0001:0001ccc0       ?AddTail@?$CList@PAVStatement@@PAV1@@@QAEPAU__POSITION@@PAVStatement@@@Z 1001dcc0 f i TSDatalink.obj
 0001:0001ccf0       ?Serialize@?$CList@PAVCKeyItem@@PAV1@@@UAEXAAVCArchive@@@Z 1001dcf0 f i Statement.obj
 0001:0001ccf0       ?Serialize@?$CList@PAVCLastKeyList@@PAV1@@@UAEXAAVCArchive@@@Z 1001dcf0 f i Statement.obj
 0001:0001ccf0       ?Serialize@?$CList@PAVStatement@@PAV1@@@UAEXAAVCArchive@@@Z 1001dcf0 f i TSDatalink.obj
 0001:0001ccf0       ?Serialize@?$CList@PAVCDbColumn@@PAV1@@@UAEXAAVCArchive@@@Z 1001dcf0 f i Statement.obj
 0001:0001cf00       ??$_QueryInterface@PAUIDispatch@@@?$_com_ptr_t@V?$_com_IIID@UPropertyObject@TS@@$1?_GUID_8d8769a0_09c0_11d1_93bd_0020af68e893@@3U__s_GUID@@B@@@@AAEJPAUIDispatch@@@Z 1001df00 f i TSDatalink.obj
 0001:0001cf70       ??$?0UIDispatch@@@?$_com_ptr_t@V?$_com_IIID@UPropertyObject@TS@@$1?_GUID_8d8769a0_09c0_11d1_93bd_0020af68e893@@3U__s_GUID@@B@@@@QAE@PAUIDispatch@@@Z 1001df70 f i TSDatalink.obj
 0001:0001cfa0       ?NewUUT@CTSDatalink@@UAGJPAUIDispatch@@00000@Z 1001dfa0 f   TSDatalink.obj
 0001:0001d3b0       ??0PropertyInfo@@QAE@AAV?$_com_ptr_t@V?$_com_IIID@UPropertyObject@TS@@$1?_GUID_8d8769a0_09c0_11d1_93bd_0020af68e893@@3U__s_GUID@@B@@@@@Z 1001e3b0 f i TSDatalink.obj
 0001:0001d450       ??0PropertyInfo@@QAE@AAV0@AAV?$_com_ptr_t@V?$_com_IIID@UPropertyObject@TS@@$1?_GUID_8d8769a0_09c0_11d1_93bd_0020af68e893@@3U__s_GUID@@B@@@@V_bstr_t@@@Z 1001e450 f i TSDatalink.obj
 0001:0001d860       ?UpdateLoggingInfo@PropertyInfo@@QAEXAAVLoggingInfo@@@Z 1001e860 f i TSDatalink.obj
 0001:0001d910       ??1CTSDatalink@@QAE@XZ     1001e910 f   TSDatalink.obj
 0001:0001db10       ?SetRuntimeBooleans@CTSDatalink@@UAGJPAUIDispatch@@0@Z 1001eb10 f   TSDatalink.obj
 0001:0001e070       ??1PropertyInfo@@QAE@XZ    1001f070 f i TSDatalink.obj
 0001:0001e110       ?GetDateDataType@CTSDatalink@@QAE?AW4DataTypeEnum@@XZ 1001f110 f   TSDatalink.obj
 0001:0001e210       ?LogUUTResult@CTSDatalink@@UAGJPAUIDispatch@@0@Z 1001f210 f   TSDatalink.obj
 0001:0001e410       ?Initialize@CTSDatalink@@UAGJPAUIDispatch@@0@Z 1001f410 f   TSDatalink.obj
 0001:0001ee20       ?RecursePropertyResults@CTSDatalink@@AAEXAAVLoggingInfo@@AAVPropertyInfo@@J@Z 1001fe20 f   TSDatalink.obj
 0001:0001f410       ?LogOneResult@CTSDatalink@@UAGJPAUIDispatch@@0@Z 10020410 f   TSDatalink.obj
 0001:0001f7f0       ??0CTSDatalink@@QAE@XZ     100207f0 f   TSDatalink.obj
 0001:0001f9d0       ?RecurseResultsTree@CTSDatalink@@AAEXAAVLoggingInfo@@H@Z 100209d0 f   TSDatalink.obj
 0001:0001ff00       ?LogResults@CTSDatalink@@UAGJPAUIDispatch@@0@Z 10020f00 f   TSDatalink.obj
 0001:000206e0       ?InterfaceSupportsErrorInfo@CTSDBLog@@UAGJABU_GUID@@@Z 100216e0 f   TSDBLog.obj
 0001:000207a0       ??C?$_com_ptr_t@V?$_com_IIID@USequenceContext@TS@@$1?_GUID_6427d0e0_e410_11d0_93b4_0020af68e893@@3U__s_GUID@@B@@@@QBEPAUSequenceContext@TS@@XZ 100217a0 f i Columns.obj
 0001:000207a0       ??C?$_com_ptr_t@V?$_com_IIID@UExpression@TS@@$1?_GUID_e7495e94_98e0_4d89_bfea_3f850f0a0399@@3U__s_GUID@@B@@@@QBEPAUExpression@TS@@XZ 100217a0 f i Columns.obj
 0001:000207a0       ??C?$_com_ptr_t@V?$_com_IIID@UExecution@TS@@$1?_GUID_7dc7e990_18dc_11d1_93be_0020af68e893@@3U__s_GUID@@B@@@@QBEPAUExecution@TS@@XZ 100217a0 f i DBLogUtil.obj
 0001:000207a0       ??C?$_com_ptr_t@V?$_com_IIID@UCommand25@@$1?_GUID_0000154e_0000_0010_8000_00aa006d2ea4@@3U__s_GUID@@B@@@@QBEPAUCommand25@@XZ 100217a0 f i Columns.obj
 0001:000207a0       ??C?$_com_ptr_t@V?$_com_IIID@U_Parameter@@$1?_GUID_0000150c_0000_0010_8000_00aa006d2ea4@@3U__s_GUID@@B@@@@QBEPAU_Parameter@@XZ 100217a0 f i Columns.obj
 0001:000207a0       ??C?$_com_ptr_t@V?$_com_IIID@UThread@TS@@$1?_GUID_6ad5e6e0_5c69_11d1_93c6_0020af68e893@@3U__s_GUID@@B@@@@QBEPAUThread@TS@@XZ 100217a0 f i DBLogUtil.obj
 0001:000207a0       ??C?$_com_ptr_t@V?$_com_IIID@U_Recordset@@$1?_GUID_00001556_0000_0010_8000_00aa006d2ea4@@3U__s_GUID@@B@@@@QBEPAU_Recordset@@XZ 100217a0 f i Columns.obj
 0001:000207a0       ??C?$_com_ptr_t@V?$_com_IIID@UITSDatalink@@$1?_GUID_9d6338d0_57fb_11d4_8105_0090276f59e1@@3U__s_GUID@@B@@@@QBEPAUITSDatalink@@XZ 100217a0 f i TSDBLog.obj
 0001:000207a0       ??C?$_com_ptr_t@V?$_com_IIID@UPropertyObject@TS@@$1?_GUID_8d8769a0_09c0_11d1_93bd_0020af68e893@@3U__s_GUID@@B@@@@QBEPAUPropertyObject@TS@@XZ 100217a0 f i Columns.obj
 0001:000207a0       ??C?$_com_ptr_t@V?$_com_IIID@UIEngine@TS@@$1?_GUID_b2794ef5_c0b6_11d0_939c_0020af68e893@@3U__s_GUID@@B@@@@QBEPAUIEngine@TS@@XZ 100217a0 f i Columns.obj
 0001:000207a0       ??C?$_com_ptr_t@V?$_com_IIID@UFields@@$1?_GUID_00001564_0000_0010_8000_00aa006d2ea4@@3U__s_GUID@@B@@@@QBEPAUFields@@XZ 100217a0 f i Columns.obj
 0001:000207a0       ??C?$_com_ptr_t@V?$_com_IIID@U_Connection@@$1?_GUID_00001550_0000_0010_8000_00aa006d2ea4@@3U__s_GUID@@B@@@@QBEPAU_Connection@@XZ 100217a0 f i DBLogUtil.obj
 0001:000207a0       ??C?$_com_ptr_t@V?$_com_IIID@UParameters@@$1?_GUID_0000150d_0000_0010_8000_00aa006d2ea4@@3U__s_GUID@@B@@@@QBEPAUParameters@@XZ 100217a0 f i Columns.obj
 0001:000207a0       ??C?$_com_ptr_t@V?$_com_IIID@UField@@$1?_GUID_00001569_0000_0010_8000_00aa006d2ea4@@3U__s_GUID@@B@@@@QBEPAUField@@XZ 100217a0 f i Columns.obj
 0001:000207c0       ??$_QueryInterface@V?$_com_ptr_t@V?$_com_IIID@UIDispatch@@$1?_GUID_00020400_0000_0000_c000_000000000046@@3U__s_GUID@@B@@@@@?$_com_ptr_t@V?$_com_IIID@UITSDatalink@@$1?_GUID_9d6338d0_57fb_11d4_8105_0090276f59e1@@3U__s_GUID@@B@@@@AAEJV?$_com_ptr_t@V?$_com_IIID@UIDispatch@@$1?_GUID_00020400_0000_0000_c000_000000000046@@3U__s_GUID@@B@@@@@Z 100217c0 f i TSDBLog.obj
 0001:000207c0       ??$_QueryInterface@V?$_com_ptr_t@V?$_com_IIID@UIUnknown@@$1?_GUID_00000000_0000_0000_c000_000000000046@@3U__s_GUID@@B@@@@@?$_com_ptr_t@V?$_com_IIID@UITSDatalink@@$1?_GUID_9d6338d0_57fb_11d4_8105_0090276f59e1@@3U__s_GUID@@B@@@@AAEJV?$_com_ptr_t@V?$_com_IIID@UIUnknown@@$1?_GUID_00000000_0000_0000_c000_000000000046@@3U__s_GUID@@B@@@@@Z 100217c0 f i TSDBLog.obj
 0001:00020880       ?CreateInstance@?$_com_ptr_t@V?$_com_IIID@UITSDatalink@@$1?_GUID_9d6338d0_57fb_11d4_8105_0090276f59e1@@3U__s_GUID@@B@@@@QAEJABU_GUID@@PAUIUnknown@@K@Z 10021880 f i TSDBLog.obj
 0001:00020920       ??$?4V?$_com_IIID@UIUnknown@@$1?_GUID_00000000_0000_0000_c000_000000000046@@3U__s_GUID@@B@@@?$_com_ptr_t@V?$_com_IIID@UITSDatalink@@$1?_GUID_9d6338d0_57fb_11d4_8105_0090276f59e1@@3U__s_GUID@@B@@@@QAEAAV0@ABV?$_com_ptr_t@V?$_com_IIID@UIUnknown@@$1?_GUID_00000000_0000_0000_c000_000000000046@@3U__s_GUID@@B@@@@@Z 10021920 f i TSDBLog.obj
 0001:00020990       ??$_QueryInterface@V?$_com_ptr_t@V?$_com_IIID@UITSDatalink@@$1?_GUID_9d6338d0_57fb_11d4_8105_0090276f59e1@@3U__s_GUID@@B@@@@@?$_com_ptr_t@V?$_com_IIID@UIDispatch@@$1?_GUID_00020400_0000_0000_c000_000000000046@@3U__s_GUID@@B@@@@AAEJV?$_com_ptr_t@V?$_com_IIID@UITSDatalink@@$1?_GUID_9d6338d0_57fb_11d4_8105_0090276f59e1@@3U__s_GUID@@B@@@@@Z 10021990 f i TSDBLog.obj
 0001:00020990       ??$_QueryInterface@V?$_com_ptr_t@V?$_com_IIID@UIInstrSession@SM@@$1?_GUID_8ab74eec_6c57_11d3_8de1_006097053485@@3U__s_GUID@@B@@@@@?$_com_ptr_t@V?$_com_IIID@UIDispatch@@$1?_GUID_00020400_0000_0000_c000_000000000046@@3U__s_GUID@@B@@@@AAEJV?$_com_ptr_t@V?$_com_IIID@UIInstrSession@SM@@$1?_GUID_8ab74eec_6c57_11d3_8de1_006097053485@@3U__s_GUID@@B@@@@@Z 10021990 f i TSDBLog.obj
 0001:00020a50       ??$?0V?$_com_IIID@UIInstrSession@SM@@$1?_GUID_8ab74eec_6c57_11d3_8de1_006097053485@@3U__s_GUID@@B@@@?$_com_ptr_t@V?$_com_IIID@UIDispatch@@$1?_GUID_00020400_0000_0000_c000_000000000046@@3U__s_GUID@@B@@@@QAE@ABV?$_com_ptr_t@V?$_com_IIID@UIInstrSession@SM@@$1?_GUID_8ab74eec_6c57_11d3_8de1_006097053485@@3U__s_GUID@@B@@@@@Z 10021a50 f i TSDBLog.obj
 0001:00020ad0       ??$?4V?$_com_IIID@UITSDatalink@@$1?_GUID_9d6338d0_57fb_11d4_8105_0090276f59e1@@3U__s_GUID@@B@@@?$_com_ptr_t@V?$_com_IIID@UIDispatch@@$1?_GUID_00020400_0000_0000_c000_000000000046@@3U__s_GUID@@B@@@@QAEAAV0@ABV?$_com_ptr_t@V?$_com_IIID@UITSDatalink@@$1?_GUID_9d6338d0_57fb_11d4_8105_0090276f59e1@@3U__s_GUID@@B@@@@@Z 10021ad0 f i TSDBLog.obj
 0001:00020b40       ?GetDatalink@CTSDBLog@@IAEJV?$_com_ptr_t@V?$_com_IIID@USequenceContext@TS@@$1?_GUID_6427d0e0_e410_11d0_93b4_0020af68e893@@3U__s_GUID@@B@@@@AAV?$_com_ptr_t@V?$_com_IIID@UPropertyObject@TS@@$1?_GUID_8d8769a0_09c0_11d1_93bd_0020af68e893@@3U__s_GUID@@B@@@@AAV_bstr_t@@@Z 10021b40 f   TSDBLog.obj
 0001:00021630       ?NewUUT@CTSDBLog@@UAGJPAUIDispatch@@00000@Z 10022630 f   TSDBLog.obj
 0001:00021980       ?LogUUTResult@CTSDBLog@@UAGJPAUIDispatch@@0@Z 10022980 f   TSDBLog.obj
 0001:00021bd0       ?LogOneResult@CTSDBLog@@UAGJPAUIDispatch@@0@Z 10022bd0 f   TSDBLog.obj
 0001:00021e20       ?LogResults@CTSDBLog@@UAGJPAUIDispatch@@00@Z 10022e20 f   TSDBLog.obj
 0001:0002228e       ??3@YAXPAX@Z               1002328e f   mfc100:mfc100.dll
 0001:00022294       ??2@YAPAXI@Z               10023294 f   mfc100:mfc100.dll
 0001:0002229a       ?AfxSafeArrayInit@@YGXPAVCOleSafeArray@@@Z 1002329a f   mfc100:mfc100.dll
 0001:000222a0       ??_V@YAXPAX@Z              100232a0 f   mfc100:mfc100.dll
 0001:000222a6       ?GetUBound@COleSafeArray@@QAEXKPAJ@Z 100232a6 f   mfc100:mfc100.dll
 0001:000222ac       ?GetLBound@COleSafeArray@@QAEXKPAJ@Z 100232ac f   mfc100:mfc100.dll
 0001:000222b2       ?GetOneDimSize@COleSafeArray@@QAEKXZ 100232b2 f   mfc100:mfc100.dll
 0001:000222b8       ??0COleSafeArray@@QAE@ABUtagVARIANT@@@Z 100232b8 f   mfc100:mfc100.dll
 0001:000222be       ?Detach@COleSafeArray@@QAE?AUtagVARIANT@@XZ 100232be f   mfc100:mfc100.dll
 0001:000222c4       ?UnaccessData@COleSafeArray@@QAEXXZ 100232c4 f   mfc100:mfc100.dll
 0001:000222ca       ?AccessData@COleSafeArray@@QAEXPAPAX@Z 100232ca f   mfc100:mfc100.dll
 0001:000222d0       ?Create@COleSafeArray@@QAEXGKPAK@Z 100232d0 f   mfc100:mfc100.dll
 0001:000222d6       ??1CByteArray@@UAE@XZ      100232d6 f   mfc100:mfc100.dll
 0001:000222dc       ?SetSize@CByteArray@@QAEXHH@Z 100232dc f   mfc100:mfc100.dll
 0001:000222e2       ??0CByteArray@@QAE@XZ      100232e2 f   mfc100:mfc100.dll
 0001:000222e8       ?AfxThrowInvalidArgException@@YGXXZ 100232e8 f   mfc100:mfc100.dll
 0001:000222ee       ?AfxThrowMemoryException@@YGXXZ 100232ee f   mfc100:mfc100.dll
 0001:000222f4       ?AfxThrowOleException@@YGXJ@Z 100232f4 f   mfc100:mfc100.dll
 0001:000222fa       ?GetThisMessageMap@CWinApp@@KGPBUAFX_MSGMAP@@XZ 100232fa f   mfc100:mfc100.dll
 0001:00022300       ??1CWinApp@@UAE@XZ         10023300 f   mfc100:mfc100.dll
 0001:00022306       ??0CWinApp@@QAE@PBD@Z      10023306 f   mfc100:mfc100.dll
 0001:0002230c       ?GetRuntimeClass@CWinApp@@UBEPAUCRuntimeClass@@XZ 1002330c f   mfc100:mfc100.dll
 0001:00022312       ?OnCmdMsg@CCmdTarget@@UAEHIHPAXPAUAFX_CMDHANDLERINFO@@@Z 10023312 f   mfc100:mfc100.dll
 0001:00022318       ?OnFinalRelease@CCmdTarget@@UAEXXZ 10023318 f   mfc100:mfc100.dll
 0001:0002231e       ?IsInvokeAllowed@CCmdTarget@@UAEHJ@Z 1002331e f   mfc100:mfc100.dll
 0001:00022324       ?GetDispatchIID@CCmdTarget@@UAEHPAU_GUID@@@Z 10023324 f   mfc100:mfc100.dll
 0001:0002232a       ?GetTypeInfoCount@CCmdTarget@@UAEIXZ 1002332a f   mfc100:mfc100.dll
 0001:00022330       ?GetTypeLibCache@CCmdTarget@@UAEPAVCTypeLibCache@@XZ 10023330 f   mfc100:mfc100.dll
 0001:00022336       ?GetTypeLib@CCmdTarget@@UAEJKPAPAUITypeLib@@@Z 10023336 f   mfc100:mfc100.dll
 0001:0002233c       ?GetCommandMap@CCmdTarget@@MBEPBUAFX_OLECMDMAP@@XZ 1002333c f   mfc100:mfc100.dll
 0001:00022342       ?GetDispatchMap@CCmdTarget@@MBEPBUAFX_DISPMAP@@XZ 10023342 f   mfc100:mfc100.dll
 0001:00022348       ?GetConnectionMap@CCmdTarget@@MBEPBUAFX_CONNECTIONMAP@@XZ 10023348 f   mfc100:mfc100.dll
 0001:0002234e       ?GetInterfaceMap@CCmdTarget@@MBEPBUAFX_INTERFACEMAP@@XZ 1002334e f   mfc100:mfc100.dll
 0001:00022354       ?GetEventSinkMap@CCmdTarget@@MBEPBUAFX_EVENTSINKMAP@@XZ 10023354 f   mfc100:mfc100.dll
 0001:0002235a       ?OnCreateAggregates@CCmdTarget@@UAEHXZ 1002335a f   mfc100:mfc100.dll
 0001:00022360       ?GetInterfaceHook@CCmdTarget@@UAEPAUIUnknown@@PBX@Z 10023360 f   mfc100:mfc100.dll
 0001:00022366       ?GetExtraConnectionPoints@CCmdTarget@@MAEHPAVCPtrArray@@@Z 10023366 f   mfc100:mfc100.dll
 0001:0002236c       ?GetConnectionHook@CCmdTarget@@MAEPAUIConnectionPoint@@ABU_GUID@@@Z 1002336c f   mfc100:mfc100.dll
 0001:00022372       ?Run@CWinApp@@UAEHXZ       10023372 f   mfc100:mfc100.dll
 0001:00022378       ?PreTranslateMessage@CWinThread@@UAEHPAUtagMSG@@@Z 10023378 f   mfc100:mfc100.dll
 0001:0002237e       ?PumpMessage@CWinThread@@UAEHXZ 1002337e f   mfc100:mfc100.dll
 0001:00022384       ?OnIdle@CWinApp@@UAEHJ@Z   10023384 f   mfc100:mfc100.dll
 0001:0002238a       ?IsIdleMessage@CWinThread@@UAEHPAUtagMSG@@@Z 1002338a f   mfc100:mfc100.dll
 0001:00022390       ?ProcessWndProcException@CWinApp@@UAEJPAVCException@@PBUtagMSG@@@Z 10023390 f   mfc100:mfc100.dll
 0001:00022396       ?ProcessMessageFilter@CWinThread@@UAEHHPAUtagMSG@@@Z 10023396 f   mfc100:mfc100.dll
 0001:0002239c       ?GetMainWnd@CWinThread@@UAEPAVCWnd@@XZ 1002339c f   mfc100:mfc100.dll
 0001:000223a2       ?Delete@CWinThread@@UAEXXZ 100233a2 f   mfc100:mfc100.dll
 0001:000223a8       ?GetProfileIntA@CWinApp@@UAEIPBD0H@Z 100233a8 f   mfc100:mfc100.dll
 0001:000223ae       ?WriteProfileInt@CWinApp@@UAEHPBD0H@Z 100233ae f   mfc100:mfc100.dll
 0001:000223b4       ?GetProfileStringA@CWinApp@@UAE?AV?$CStringT@DV?$StrTraitMFC_DLL@DV?$ChTraitsCRT@D@ATL@@@@@ATL@@PBD00@Z 100233b4 f   mfc100:mfc100.dll
 0001:000223ba       ?WriteProfileStringA@CWinApp@@UAEHPBD00@Z 100233ba f   mfc100:mfc100.dll
 0001:000223c0       ?GetProfileBinary@CWinApp@@UAEHPBD0PAPAEPAI@Z 100233c0 f   mfc100:mfc100.dll
 0001:000223c6       ?WriteProfileBinary@CWinApp@@UAEHPBD0PAEI@Z 100233c6 f   mfc100:mfc100.dll
 0001:000223cc       ?InitLibId@CWinApp@@UAEXXZ 100233cc f   mfc100:mfc100.dll
 0001:000223d2       ?Register@CWinApp@@UAEHXZ  100233d2 f   mfc100:mfc100.dll
 0001:000223d8       ?Unregister@CWinApp@@UAEHXZ 100233d8 f   mfc100:mfc100.dll
 0001:000223de       ?OpenDocumentFile@CWinApp@@UAEPAVCDocument@@PBDH@Z 100233de f   mfc100:mfc100.dll
 0001:000223e4       ?OpenDocumentFile@CWinApp@@UAEPAVCDocument@@PBD@Z 100233e4 f   mfc100:mfc100.dll
 0001:000223ea       ?AddToRecentFileList@CWinApp@@UAEXPBD@Z 100233ea f   mfc100:mfc100.dll
 0001:000223f0       ?InitApplication@CWinApp@@UAEHXZ 100233f0 f   mfc100:mfc100.dll
 0001:000223f6       ?SaveAllModified@CWinApp@@UAEHXZ 100233f6 f   mfc100:mfc100.dll
 0001:000223fc       ?DoMessageBox@CWinApp@@UAEHPBDII@Z 100233fc f   mfc100:mfc100.dll
 0001:00022402       ?DoWaitCursor@CWinApp@@UAEXH@Z 10023402 f   mfc100:mfc100.dll
 0001:00022408       ?OnDDECommand@CWinApp@@UAEHPAD@Z 10023408 f   mfc100:mfc100.dll
 0001:0002240e       ?WinHelpA@CWinApp@@UAEXKI@Z 1002340e f   mfc100:mfc100.dll
 0001:00022414       ?HtmlHelpA@CWinApp@@UAEXKI@Z 10023414 f   mfc100:mfc100.dll
 0001:0002241a       ?WinHelpInternal@CWinApp@@UAEXKI@Z 1002341a f   mfc100:mfc100.dll
 0001:00022420       ?RegisterWithRestartManager@CWinApp@@UAEJPB_WKP6GKPAX@Z1KK@Z 10023420 f   mfc100:mfc100.dll
 0001:00022426       ?RegisterWithRestartManager@CWinApp@@UAEJHABV?$CStringT@DV?$StrTraitMFC_DLL@DV?$ChTraitsCRT@D@ATL@@@@@ATL@@@Z 10023426 f   mfc100:mfc100.dll
 0001:0002242c       ?ApplicationRecoveryCallback@CWinApp@@UAEKPAX@Z 1002342c f   mfc100:mfc100.dll
 0001:00022432       ?GetDataRecoveryHandler@CWinApp@@UAEPAVCDataRecoveryHandler@@XZ 10023432 f   mfc100:mfc100.dll
 0001:00022438       ?IsTaskbarInteractionEnabled@CWinApp@@UAEHXZ 10023438 f   mfc100:mfc100.dll
 0001:0002243e       ?RestartInstance@CWinApp@@UAEHXZ 1002343e f   mfc100:mfc100.dll
 0001:00022444       ?LoadAppLangResourceDLL@CWinApp@@UAEPAUHINSTANCE__@@XZ 10023444 f   mfc100:mfc100.dll
 0001:0002244a       ?LoadSysPolicies@CWinApp@@UAEHXZ 1002344a f   mfc100:mfc100.dll
 0001:00022450       ?InitInstance@CWinApp@@UAEHXZ 10023450 f   mfc100:mfc100.dll
 0001:00022456       ?ExitInstance@CWinApp@@UAEHXZ 10023456 f   mfc100:mfc100.dll
 0001:0002245c       ??1AFX_MAINTAIN_STATE2@@QAE@XZ 1002345c f   mfc100:mfc100.dll
 0001:00022462       ?AfxDllCanUnloadNow@@YGJXZ 10023462 f   mfc100:mfc100.dll
 0001:00022468       ??0AFX_MAINTAIN_STATE2@@QAE@PAVAFX_MODULE_STATE@@@Z 10023468 f   mfc100:mfc100.dll
 0001:0002246e       ?Delete@CException@@QAEXXZ 1002346e f   mfc100:mfc100.dll
 0001:00022474       ??_U@YAPAXI@Z              10023474 f   mfc100:mfc100.dll
 0001:0002247a       ?FreeDataChain@CPlex@@QAEXXZ 1002347a f   mfc100:mfc100.dll
 0001:00022480       ?GetRuntimeClass@CObject@@UBEPAUCRuntimeClass@@XZ 10023480 f   mfc100:mfc100.dll
 0001:00022486       ?AfxThrowArchiveException@@YGXHPBD@Z 10023486 f   mfc100:mfc100.dll
 0001:0002248c       ?Read@CArchive@@QAEIPAXI@Z 1002348c f   mfc100:mfc100.dll
 0001:00022492       ?Create@CPlex@@SGPAU1@AAPAU1@II@Z 10023492 f   mfc100:mfc100.dll
 0001:00022498       ?Write@CArchive@@QAEXPBXI@Z 10023498 f   mfc100:mfc100.dll
 0001:0002249e       ?ReadCount@CArchive@@QAEKXZ 1002349e f   mfc100:mfc100.dll
 0001:000224a4       ?WriteCount@CArchive@@QAEXK@Z 100234a4 f   mfc100:mfc100.dll
 0001:000224aa       ??$SerializeElements@V?$CStringT@DV?$StrTraitMFC_DLL@DV?$ChTraitsCRT@D@ATL@@@@@ATL@@@@YGXAAVCArchive@@PAV?$CStringT@DV?$StrTraitMFC_DLL@DV?$ChTraitsCRT@D@ATL@@@@@ATL@@H@Z 100234aa f   mfc100:mfc100.dll
 0001:000224b0       ?AfxWndProcDllStatic@@YGJPAUHWND__@@IIJ@Z 100234b0 f   mfcs100:dllmodul.obj
 0001:000224fb       ?AfxGetStaticModuleState@@YGPAVAFX_MODULE_STATE@@XZ 100234fb f   mfcs100:dllmodul.obj
 0001:00022501       _InternalDllMain@12        10023501 f   mfcs100:dllmodul.obj
 0001:00022691       _RawDllMain@12             10023691 f   mfcs100:dllmodul.obj
 0001:000226ef       _DllMain@12                100236ef f   mfcs100:dllmodul.obj
 0001:0002272e       ??_E_AFX_DLL_MODULE_STATE@@UAEPAXI@Z 1002372e f i mfcs100:dllmodul.obj
 0001:0002272e       ??_G_AFX_DLL_MODULE_STATE@@UAEPAXI@Z 1002372e f i mfcs100:dllmodul.obj
 0001:0002274e       ??2CObject@@SGPAXI@Z       1002374e f i mfcs100:dllmodulx.obj
 0001:00022760       ?AfxGetApp@@YGPAVCWinApp@@XZ 10023760 f i mfcs100:dllmodulx.obj
 0001:0002276a       ___CxxFrameHandler3        1002376a f   msvcrt:MSVCR100.dll
 0001:00022770       ??_Etype_info@@UAEPAXI@Z   10023770 f i msvcrt:ti_inst.obj
 0001:000227bc       ?what@exception@std@@UBEPBDXZ 100237bc f   msvcrt:MSVCR100.dll
 0001:000227c2       __CxxThrowException@8      100237c2 f   msvcrt:MSVCR100.dll
 0001:000227c8       ??0exception@std@@QAE@ABV01@@Z 100237c8 f   msvcrt:MSVCR100.dll
 0001:000227d0       ?__ArrayUnwind@@YGXPAXIHP6EX0@Z@Z 100237d0 f   msvcrt:ehvecdtr.obj
 0001:0002282e       ??_M@YGXPAXIHP6EX0@Z@Z     1002382e f   msvcrt:ehvecdtr.obj
 0001:00022892       _memcpy                    10023892 f   msvcrt:MSVCR100.dll
 0001:000228a0       __ftol2_sse                100238a0 f   msvcrt:ftol2.obj
 0001:000228a9       __ftol2_pentium4           100238a9 f   msvcrt:ftol2.obj
 0001:000228bc       __ftol2_sse_excpt          100238bc f   msvcrt:ftol2.obj
 0001:000228d6       __ftol2                    100238d6 f   msvcrt:ftol2.obj
 0001:0002294c       _malloc                    1002394c f   msvcrt:MSVCR100.dll
 0001:00022952       _free                      10023952 f   msvcrt:MSVCR100.dll
 0001:00022958       __except_handler3          10023958 f   msvcrt:MSVCR100.dll
 0001:00022960       __alloca_probe_16          10023960 f   msvcrt:alloca16.obj
 0001:00022976       __alloca_probe_8           10023976     msvcrt:alloca16.obj
 0001:0002298c       ??_L@YGXPAXIHP6EX0@Z1@Z    1002398c f   msvcrt:ehvecctr.obj
 0001:000229f2       __purecall                 100239f2 f   msvcrt:MSVCR100.dll
 0001:000229f8       __onexit                   100239f8 f   msvcrt:atonexit.obj
 0001:00022a99       _atexit                    10023a99 f   msvcrt:atonexit.obj
 0001:00022ab0       __chkstk                   10023ab0 f   msvcrt:chkstk.obj
 0001:00022ab0       __alloca_probe             10023ab0     msvcrt:chkstk.obj
 0001:00022b29       __CRT_INIT@12              10023b29 f   msvcrt:crtdll.obj
 0001:00022e49       __DllMainCRTStartup@12     10023e49 f   msvcrt:crtdll.obj
 0001:00022e6c       @__security_check_cookie@4 10023e6c f   msvcrt:secchk.obj
 0001:00022e7b       __EH_prolog3               10023e7b f   msvcrt:ehprolg3.obj
 0001:00022eae       __EH_prolog3_catch         10023eae f   msvcrt:ehprolg3.obj
 0001:00022ee4       __EH_epilog3               10023ee4 f   msvcrt:ehprolg3.obj
 0001:00022ef8       ?terminate@@YAXXZ          10023ef8 f   msvcrt:MSVCR100.dll
 0001:00022f00       __SEH_prolog4              10023f00 f   msvcrt:sehprolg4.obj
 0001:00022f45       __SEH_epilog4              10023f45 f   msvcrt:sehprolg4.obj
 0001:00022f59       __except_handler4          10023f59 f   msvcrt:chandler4gs.obj
 0001:00022f7e       ___sse2_available_init     10023f7e f   msvcrt:cpu_disp.obj
 0001:00022f8e       __unlock                   10023f8e f   msvcrt:MSVCR100.dll
 0001:00022f94       ___dllonexit               10023f94 f   msvcrt:MSVCR100.dll
 0001:00022f9a       __lock                     10023f9a f   msvcrt:MSVCR100.dll
 0001:00022fa0       ___clean_type_info_names   10023fa0 f   msvcrt:tncleanup.obj
 0001:00022fac       __RTC_Initialize           10023fac f   msvcrt:_initsect_.obj
 0001:00022fd2       __RTC_Terminate            10023fd2 f   msvcrt:_initsect_.obj
 0001:00023000       __ValidateImageBase        10024000 f   msvcrt:pesect.obj
 0001:00023040       __FindPESection            10024040 f   msvcrt:pesect.obj
 0001:00023090       __IsNonwritableInCurrentImage 10024090 f   msvcrt:pesect.obj
 0001:0002314c       __initterm                 1002414c f   msvcrt:MSVCR100.dll
 0001:00023152       __initterm_e               10024152 f   msvcrt:MSVCR100.dll
 0001:00023158       __amsg_exit                10024158 f   msvcrt:MSVCR100.dll
 0001:0002315e       ___CppXcptFilter           1002415e f   msvcrt:MSVCR100.dll
 0001:00023164       ___security_init_cookie    10024164 f   msvcrt:gs_support.obj
 0001:000231ff       ___report_gsfailure        100241ff f   msvcrt:gs_report.obj
 0001:00023306       ?_type_info_dtor_internal_method@type_info@@QAEXXZ 10024306 f   msvcrt:MSVCR100.dll
 0001:00023306       ??1type_info@@UAE@XZ       10024306 f   msvcrt:MSVCR100.dll
 0001:0002330c       __except_handler4_common   1002430c f   msvcrt:MSVCR100.dll
 0001:00023312       ___clean_type_info_names_internal 10024312 f   msvcrt:MSVCR100.dll
 0001:00023318       __crt_debugger_hook        10024318 f   msvcrt:MSVCR100.dll
 0001:0002331e       ?Term@CAtlComModule@ATL@@QAEXXZ 1002431e f i atls:atlcommodule.obj
 0001:00023362       ??0_ATL_COM_MODULE70@ATL@@QAE@XZ 10024362 f i atls:atlcommodule.obj
 0001:0002337b       ??0CAtlComModule@ATL@@QAE@XZ 1002437b f i atls:atlcommodule.obj
 0001:000233bc       ?RemoveAll@?$CSimpleArray@PAUHINSTANCE__@@V?$CSimpleArrayEqualHelper@PAUHINSTANCE__@@@ATL@@@ATL@@QAEXXZ 100243bc f i atls:atlbase.obj
 0001:000233db       ??0_ATL_BASE_MODULE70@ATL@@QAE@XZ 100243db f i atls:atlbase.obj
 0001:00023400       ??1CAtlBaseModule@ATL@@QAE@XZ 10024400 f   atls:atlbase.obj
 0001:00023418       ??0CAtlBaseModule@ATL@@QAE@XZ 10024418 f   atls:atlbase.obj
 0001:00023460       ?_com_issue_error@@YGXJ@Z  10024460 f   comsuppw:comsupp.obj
 0001:00023480       ?_com_issue_errorex@@YGXJPAUIUnknown@@ABU_GUID@@@Z 10024480 f   comsuppw:comsupp.obj
 0001:00023500       ?ConvertStringToBSTR@_com_util@@YGPA_WPBD@Z 10024500 f   comsuppw:comutil.obj
 0001:00023680       ?ConvertBSTRToString@_com_util@@YGPADPA_W@Z 10024680 f   comsuppw:comutil.obj
 0001:000237a0       ?_com_raise_error@@YGXJPAUIErrorInfo@@@Z 100247a0 f   comsuppw:comraise.obj
 0001:000237d2       ??1AFX_MODULE_STATE@@UAE@XZ 100247d2 f   mfc100:mfc100.dll
 0001:000237d8       ?AfxWndProc@@YGJPAUHWND__@@IIJ@Z 100247d8 f   mfc100:mfc100.dll
 0001:000237de       ?AfxTermThread@@YGXPAUHINSTANCE__@@@Z 100247de f   mfc100:mfc100.dll
 0001:000237e4       ?AfxTermExtensionModule@@YGXAAUAFX_EXTENSION_MODULE@@H@Z 100247e4 f   mfc100:mfc100.dll
 0001:000237ea       ?AfxUnlockTempMaps@@YGHH@Z 100247ea f   mfc100:mfc100.dll
 0001:000237f0       ?AfxLockTempMaps@@YGXXZ    100247f0 f   mfc100:mfc100.dll
 0001:000237f6       ?AfxSetModuleState@@YGPAVAFX_MODULE_STATE@@PAV1@@Z 100247f6 f   mfc100:mfc100.dll
 0001:000237fc       ??0CDynLinkLibrary@@QAE@AAUAFX_EXTENSION_MODULE@@H@Z 100247fc f   mfc100:mfc100.dll
 0001:00023802       ?AfxInitExtensionModule@@YGHAAUAFX_EXTENSION_MODULE@@PAUHINSTANCE__@@@Z 10024802 f   mfc100:mfc100.dll
 0001:00023808       ?AfxWinTerm@@YGXXZ         10024808 f   mfc100:mfc100.dll
 0001:0002380e       ?AfxWinInit@@YGHPAUHINSTANCE__@@0PADH@Z 1002480e f   mfc100:mfc100.dll
 0001:00023814       ?AfxGetThreadState@@YGPAV_AFX_THREAD_STATE@@XZ 10024814 f   mfc100:mfc100.dll
 0001:0002381a       ?AfxCoreInitModule@@YGXXZ  1002481a f   mfc100:mfc100.dll
 0001:00023820       ?AfxGetModuleState@@YGPAVAFX_MODULE_STATE@@XZ 10024820 f   mfc100:mfc100.dll
 0001:00023826       ??0AFX_MODULE_STATE@@QAE@HP6GJPAUHWND__@@IIJ@ZKH@Z 10024826 f   mfc100:mfc100.dll
 0001:0002382c       ??3CNoTrackObject@@SGXPAX@Z 1002482c f   mfc100:mfc100.dll
 0001:000238f2       __RawDllMainProxy@12       100248f2 f   mfcs100:rawdllmainproxy.obj
 0001:0002391c       _memset                    1002491c f   msvcrt:MSVCR100.dll
 0002:00000000       __imp__AtlCallTermFunc@4   10029000     atl:ATL100.DLL
 0002:00000004       __imp__AtlLoadTypeLib@16   10029004     atl:ATL100.DLL
 0002:00000008       __imp__AtlRegisterClassCategoriesHelper@12 10029008     atl:ATL100.DLL
 0002:0000000c       __imp__AtlComModuleGetClassObject@16 1002900c     atl:ATL100.DLL
 0002:00000010       __imp__AtlComQIPtrAssign@12 10029010     atl:ATL100.DLL
 0002:00000014       __imp__AtlCreateRegistrar@4 10029014     atl:ATL100.DLL
 0002:00000018       __imp__AtlUpdateRegistryFromResourceD@20 10029018     atl:ATL100.DLL
 0002:0000001c       __imp__AtlInternalQueryInterface@16 1002901c     atl:ATL100.DLL
 0002:00000020       __imp__AtlModuleAddTermFunc@12 10029020     atl:ATL100.DLL
 0002:00000024       __imp__AtlGetPerUserRegistration@4 10029024     atl:ATL100.DLL
 0002:00000028       \177ATL100_NULL_THUNK_DATA 10029028     atl:ATL100.DLL
 0002:0000002c       __imp__lstrlenW@4          1002902c     kernel32:KERNEL32.dll
 0002:00000030       __imp__GetProcAddress@8    10029030     kernel32:KERNEL32.dll
 0002:00000034       __imp__GetModuleHandleW@4  10029034     kernel32:KERNEL32.dll
 0002:00000038       __imp__lstrlenA@4          10029038     kernel32:KERNEL32.dll
 0002:0000003c       __imp__GetModuleFileNameA@12 1002903c     kernel32:KERNEL32.dll
 0002:00000040       __imp__GetCurrentThreadId@0 10029040     kernel32:KERNEL32.dll
 0002:00000044       __imp__GetLocaleInfoA@16   10029044     kernel32:KERNEL32.dll
 0002:00000048       __imp__CloseHandle@4       10029048     kernel32:KERNEL32.dll
 0002:0000004c       __imp__ReleaseMutex@4      1002904c     kernel32:KERNEL32.dll
 0002:00000050       __imp__CreateMutexA@12     10029050     kernel32:KERNEL32.dll
 0002:00000054       __imp__GetCurrentProcessId@0 10029054     kernel32:KERNEL32.dll
 0002:00000058       __imp__InitializeCriticalSection@4 10029058     kernel32:KERNEL32.dll
 0002:0000005c       __imp__DeleteCriticalSection@4 1002905c     kernel32:KERNEL32.dll
 0002:00000060       __imp__WideCharToMultiByte@32 10029060     kernel32:KERNEL32.dll
 0002:00000064       __imp__IsDebuggerPresent@0 10029064     kernel32:KERNEL32.dll
 0002:00000068       __imp__SetUnhandledExceptionFilter@4 10029068     kernel32:KERNEL32.dll
 0002:0000006c       __imp__UnhandledExceptionFilter@4 1002906c     kernel32:KERNEL32.dll
 0002:00000070       __imp__GetCurrentProcess@0 10029070     kernel32:KERNEL32.dll
 0002:00000074       __imp__TerminateProcess@8  10029074     kernel32:KERNEL32.dll
 0002:00000078       __imp__GetSystemTimeAsFileTime@4 10029078     kernel32:KERNEL32.dll
 0002:0000007c       __imp__GetTickCount@0      1002907c     kernel32:KERNEL32.dll
 0002:00000080       __imp__QueryPerformanceCounter@4 10029080     kernel32:KERNEL32.dll
 0002:00000084       __imp__IsProcessorFeaturePresent@4 10029084     kernel32:KERNEL32.dll
 0002:00000088       __imp__InterlockedCompareExchange@12 10029088     kernel32:KERNEL32.dll
 0002:0000008c       __imp__Sleep@4             1002908c     kernel32:KERNEL32.dll
 0002:00000090       __imp__InterlockedExchange@8 10029090     kernel32:KERNEL32.dll
 0002:00000094       __imp__DecodePointer@4     10029094     kernel32:KERNEL32.dll
 0002:00000098       __imp__EncodePointer@4     10029098     kernel32:KERNEL32.dll
 0002:0000009c       __imp__LocalAlloc@8        1002909c     kernel32:KERNEL32.dll
 0002:000000a0       __imp__InitializeCriticalSectionAndSpinCount@8 100290a0     kernel32:KERNEL32.dll
 0002:000000a4       __imp__GetLastError@0      100290a4     kernel32:KERNEL32.dll
 0002:000000a8       __imp__LeaveCriticalSection@4 100290a8     kernel32:KERNEL32.dll
 0002:000000ac       __imp__EnterCriticalSection@4 100290ac     kernel32:KERNEL32.dll
 0002:000000b0       __imp__GetUserDefaultLCID@0 100290b0     kernel32:KERNEL32.dll
 0002:000000b4       __imp__InterlockedDecrement@4 100290b4     kernel32:KERNEL32.dll
 0002:000000b8       __imp__LocalFree@4         100290b8     kernel32:KERNEL32.dll
 0002:000000bc       __imp__MultiByteToWideChar@24 100290bc     kernel32:KERNEL32.dll
 0002:000000c0       __imp__InterlockedIncrement@4 100290c0     kernel32:KERNEL32.dll
 0002:000000c4       \177KERNEL32_NULL_THUNK_DATA 100290c4     kernel32:KERNEL32.dll
 0002:000000c8       __imp_?_Xlength_error@std@@YAXPBD@Z 100290c8     msvcprt:MSVCP100.dll
 0002:000000cc       \177MSVCP100_NULL_THUNK_DATA 100290cc     msvcprt:MSVCP100.dll
 0002:000000d0       __imp__memset              100290d0     msvcrt:MSVCR100.dll
 0002:000000d4       __imp___crt_debugger_hook  100290d4     msvcrt:MSVCR100.dll
 0002:000000d8       __imp____clean_type_info_names_internal 100290d8     msvcrt:MSVCR100.dll
 0002:000000dc       __imp___except_handler4_common 100290dc     msvcrt:MSVCR100.dll
 0002:000000e0       __imp_?_type_info_dtor_internal_method@type_info@@QAEXXZ 100290e0     msvcrt:MSVCR100.dll
 0002:000000e4       __imp____CppXcptFilter     100290e4     msvcrt:MSVCR100.dll
 0002:000000e8       __imp___amsg_exit          100290e8     msvcrt:MSVCR100.dll
 0002:000000ec       __imp___initterm_e         100290ec     msvcrt:MSVCR100.dll
 0002:000000f0       __imp___initterm           100290f0     msvcrt:MSVCR100.dll
 0002:000000f4       __imp___encoded_null       100290f4     msvcrt:MSVCR100.dll
 0002:000000f8       __imp___malloc_crt         100290f8     msvcrt:MSVCR100.dll
 0002:000000fc       __imp___mbscpy             100290fc     msvcrt:MSVCR100.dll
 0002:000000fc       __imp__strcpy              100290fc     msvcrt:MSVCR100.dll
 0002:00000100       __imp___onexit             10029100     msvcrt:MSVCR100.dll
 0002:00000104       __imp___lock               10029104     msvcrt:MSVCR100.dll
 0002:00000108       __imp____dllonexit         10029108     msvcrt:MSVCR100.dll
 0002:0000010c       __imp___unlock             1002910c     msvcrt:MSVCR100.dll
 0002:00000110       __imp_?terminate@@YAXXZ    10029110     msvcrt:MSVCR100.dll
 0002:00000114       __imp___ismbcalpha         10029114     msvcrt:MSVCR100.dll
 0002:00000118       __imp___ismbcalnum         10029118     msvcrt:MSVCR100.dll
 0002:0000011c       __imp__setlocale           1002911c     msvcrt:MSVCR100.dll
 0002:00000120       __imp__atof                10029120     msvcrt:MSVCR100.dll
 0002:00000124       __imp___strupr             10029124     msvcrt:MSVCR100.dll
 0002:00000128       __imp__strtok              10029128     msvcrt:MSVCR100.dll
 0002:0000012c       __imp___stricmp            1002912c     msvcrt:MSVCR100.dll
 0002:00000130       __imp__strstr              10029130     msvcrt:MSVCR100.dll
 0002:00000134       __imp___mbsstr             10029134     msvcrt:MSVCR100.dll
 0002:00000138       __imp__sscanf              10029138     msvcrt:MSVCR100.dll
 0002:0000013c       __imp__isalpha             1002913c     msvcrt:MSVCR100.dll
 0002:00000140       __imp__isdigit             10029140     msvcrt:MSVCR100.dll
 0002:00000144       __imp__toupper             10029144     msvcrt:MSVCR100.dll
 0002:00000148       __imp__tolower             10029148     msvcrt:MSVCR100.dll
 0002:0000014c       __imp___mbslen             1002914c     msvcrt:MSVCR100.dll
 0002:00000150       __imp___mbsicmp            10029150     msvcrt:MSVCR100.dll
 0002:00000154       __imp___purecall           10029154     msvcrt:MSVCR100.dll
 0002:00000158       __imp___except_handler3    10029158     msvcrt:MSVCR100.dll
 0002:0000015c       __imp___resetstkoflw       1002915c     msvcrt:MSVCR100.dll
 0002:00000160       __imp__free                10029160     msvcrt:MSVCR100.dll
 0002:00000164       __imp__malloc              10029164     msvcrt:MSVCR100.dll
 0002:00000168       __imp__wcsncpy_s           10029168     msvcrt:MSVCR100.dll
 0002:0000016c       __imp__sprintf             1002916c     msvcrt:MSVCR100.dll
 0002:00000170       __imp__swprintf_s          10029170     msvcrt:MSVCR100.dll
 0002:00000174       __imp___wcsicmp            10029174     msvcrt:MSVCR100.dll
 0002:00000178       __imp__memcpy              10029178     msvcrt:MSVCR100.dll
 0002:0000017c       __imp__wcsncpy             1002917c     msvcrt:MSVCR100.dll
 0002:00000180       __imp__memcpy_s            10029180     msvcrt:MSVCR100.dll
 0002:00000184       __imp_??0exception@std@@QAE@ABV01@@Z 10029184     msvcrt:MSVCR100.dll
 0002:00000188       __imp___CxxThrowException@8 10029188     msvcrt:MSVCR100.dll
 0002:0000018c       __imp_?what@exception@std@@UBEPBDXZ 1002918c     msvcrt:MSVCR100.dll
 0002:00000190       __imp____CxxFrameHandler3  10029190     msvcrt:MSVCR100.dll
 0002:00000194       __imp_??0exception@std@@QAE@ABQBD@Z 10029194     msvcrt:MSVCR100.dll
 0002:00000198       __imp_??1exception@std@@UAE@XZ 10029198     msvcrt:MSVCR100.dll
 0002:0000019c       \177MSVCR100_NULL_THUNK_DATA 1002919c     msvcrt:MSVCR100.dll
 0002:000001a0       __imp__GetErrorInfo@8      100291a0     oleaut32:OLEAUT32.dll
 0002:000001a4       __imp__CreateErrorInfo@4   100291a4     oleaut32:OLEAUT32.dll
 0002:000001a8       __imp__SetErrorInfo@8      100291a8     oleaut32:OLEAUT32.dll
 0002:000001ac       __imp__LoadTypeLib@8       100291ac     oleaut32:OLEAUT32.dll
 0002:000001b0       __imp__LoadRegTypeLib@20   100291b0     oleaut32:OLEAUT32.dll
 0002:000001b4       __imp__RegisterTypeLib@12  100291b4     oleaut32:OLEAUT32.dll
 0002:000001b8       __imp__UnRegisterTypeLib@20 100291b8     oleaut32:OLEAUT32.dll
 0002:000001bc       __imp__SafeArrayDestroy@4  100291bc     oleaut32:OLEAUT32.dll
 0002:000001c0       __imp__SysFreeString@4     100291c0     oleaut32:OLEAUT32.dll
 0002:000001c4       __imp__VariantClear@4      100291c4     oleaut32:OLEAUT32.dll
 0002:000001c8       __imp__SafeArrayGetDim@4   100291c8     oleaut32:OLEAUT32.dll
 0002:000001cc       __imp__SafeArrayGetElemsize@4 100291cc     oleaut32:OLEAUT32.dll
 0002:000001d0       __imp__SysAllocString@4    100291d0     oleaut32:OLEAUT32.dll
 0002:000001d4       __imp__SysAllocStringByteLen@8 100291d4     oleaut32:OLEAUT32.dll
 0002:000001d8       __imp__SysStringByteLen@4  100291d8     oleaut32:OLEAUT32.dll
 0002:000001dc       __imp__SysStringLen@4      100291dc     oleaut32:OLEAUT32.dll
 0002:000001e0       __imp__VariantInit@4       100291e0     oleaut32:OLEAUT32.dll
 0002:000001e4       __imp__VariantCopy@8       100291e4     oleaut32:OLEAUT32.dll
 0002:000001e8       __imp__VariantChangeType@16 100291e8     oleaut32:OLEAUT32.dll
 0002:000001ec       __imp__SysAllocStringLen@8 100291ec     oleaut32:OLEAUT32.dll
 0002:000001f0       __imp__SafeArrayUnaccessData@4 100291f0     oleaut32:OLEAUT32.dll
 0002:000001f4       __imp__SafeArrayAccessData@8 100291f4     oleaut32:OLEAUT32.dll
 0002:000001f8       __imp__SafeArrayGetUBound@12 100291f8     oleaut32:OLEAUT32.dll
 0002:000001fc       __imp__SafeArrayGetLBound@12 100291fc     oleaut32:OLEAUT32.dll
 0002:00000200       \177OLEAUT32_NULL_THUNK_DATA 10029200     oleaut32:OLEAUT32.dll
 0002:00000204       __imp__UuidToStringA@8     10029204     rpcrt4:RPCRT4.dll
 0002:00000208       __imp__RpcStringFreeA@4    10029208     rpcrt4:RPCRT4.dll
 0002:0000020c       __imp__UuidCreate@4        1002920c     rpcrt4:RPCRT4.dll
 0002:00000210       \177RPCRT4_NULL_THUNK_DATA 10029210     rpcrt4:RPCRT4.dll
 0002:00000214       __imp__GetMessageA@16      10029214     user32:USER32.dll
 0002:00000218       __imp__DispatchMessageA@4  10029218     user32:USER32.dll
 0002:0000021c       __imp__PeekMessageA@20     1002921c     user32:USER32.dll
 0002:00000220       __imp__MsgWaitForMultipleObjects@20 10029220     user32:USER32.dll
 0002:00000224       __imp__CharNextW@4         10029224     user32:USER32.dll
 0002:00000228       __imp__TranslateMessage@4  10029228     user32:USER32.dll
 0002:0000022c       \177USER32_NULL_THUNK_DATA 1002922c     user32:USER32.dll
 0002:00000230       __imp_?LoadSysPolicies@CWinApp@@UAEHXZ 10029230     mfc100:mfc100.dll
 0002:00000234       __imp_?InitInstance@CWinApp@@UAEHXZ 10029234     mfc100:mfc100.dll
 0002:00000238       __imp_?ExitInstance@CWinApp@@UAEHXZ 10029238     mfc100:mfc100.dll
 0002:0000023c       __imp_??1AFX_MAINTAIN_STATE2@@QAE@XZ 1002923c     mfc100:mfc100.dll
 0002:00000240       __imp_?AfxDllCanUnloadNow@@YGJXZ 10029240     mfc100:mfc100.dll
 0002:00000244       __imp_??0AFX_MAINTAIN_STATE2@@QAE@PAVAFX_MODULE_STATE@@@Z 10029244     mfc100:mfc100.dll
 0002:00000248       __imp_?Delete@CException@@QAEXXZ 10029248     mfc100:mfc100.dll
 0002:0000024c       __imp_??_U@YAPAXI@Z        1002924c     mfc100:mfc100.dll
 0002:00000250       __imp_?FreeDataChain@CPlex@@QAEXXZ 10029250     mfc100:mfc100.dll
 0002:00000254       __imp_??1?$CStringT@DV?$StrTraitMFC_DLL@DV?$ChTraitsCRT@D@ATL@@@@@ATL@@QAE@XZ 10029254     mfc100:mfc100.dll
 0002:00000258       __imp_?GetRuntimeClass@CObject@@UBEPAUCRuntimeClass@@XZ 10029258     mfc100:mfc100.dll
 0002:0000025c       __imp_?AfxThrowArchiveException@@YGXHPBD@Z 1002925c     mfc100:mfc100.dll
 0002:00000260       __imp_?Read@CArchive@@QAEIPAXI@Z 10029260     mfc100:mfc100.dll
 0002:00000264       __imp_?Create@CPlex@@SGPAU1@AAPAU1@II@Z 10029264     mfc100:mfc100.dll
 0002:00000268       __imp_?Write@CArchive@@QAEXPBXI@Z 10029268     mfc100:mfc100.dll
 0002:0000026c       __imp_??0?$CStringT@DV?$StrTraitMFC_DLL@DV?$ChTraitsCRT@D@ATL@@@@@ATL@@QAE@XZ 1002926c     mfc100:mfc100.dll
 0002:00000270       __imp_?ReadCount@CArchive@@QAEKXZ 10029270     mfc100:mfc100.dll
 0002:00000274       __imp_?WriteCount@CArchive@@QAEXK@Z 10029274     mfc100:mfc100.dll
 0002:00000278       __imp_??4?$CStringT@DV?$StrTraitMFC_DLL@DV?$ChTraitsCRT@D@ATL@@@@@ATL@@QAEAAV01@ABV01@@Z 10029278     mfc100:mfc100.dll
 0002:0000027c       __imp_??$SerializeElements@V?$CStringT@DV?$StrTraitMFC_DLL@DV?$ChTraitsCRT@D@ATL@@@@@ATL@@@@YGXAAVCArchive@@PAV?$CStringT@DV?$StrTraitMFC_DLL@DV?$ChTraitsCRT@D@ATL@@@@@ATL@@H@Z 1002927c     mfc100:mfc100.dll
 0002:00000280       __imp_??B?$CSimpleStringT@D$00@ATL@@QBEPBDXZ 10029280     mfc100:mfc100.dll
 0002:00000284       __imp_??0?$CStringT@DV?$StrTraitMFC_DLL@DV?$ChTraitsCRT@D@ATL@@@@@ATL@@QAE@PBD@Z 10029284     mfc100:mfc100.dll
 0002:00000288       __imp_?Find@?$CStringT@DV?$StrTraitMFC_DLL@DV?$ChTraitsCRT@D@ATL@@@@@ATL@@QBEHPBDH@Z 10029288     mfc100:mfc100.dll
 0002:0000028c       __imp_?Left@?$CStringT@DV?$StrTraitMFC_DLL@DV?$ChTraitsCRT@D@ATL@@@@@ATL@@QBE?AV12@H@Z 1002928c     mfc100:mfc100.dll
 0002:00000290       __imp_?SetAt@?$CSimpleStringT@D$00@ATL@@QAEXHD@Z 10029290     mfc100:mfc100.dll
 0002:00000294       __imp_?Mid@?$CStringT@DV?$StrTraitMFC_DLL@DV?$ChTraitsCRT@D@ATL@@@@@ATL@@QBE?AV12@H@Z 10029294     mfc100:mfc100.dll
 0002:00000298       __imp_?GetInterfaceHook@CCmdTarget@@UAEPAUIUnknown@@PBX@Z 10029298     mfc100:mfc100.dll
 0002:0000029c       __imp_?OnCreateAggregates@CCmdTarget@@UAEHXZ 1002929c     mfc100:mfc100.dll
 0002:000002a0       __imp_?GetEventSinkMap@CCmdTarget@@MBEPBUAFX_EVENTSINKMAP@@XZ 100292a0     mfc100:mfc100.dll
 0002:000002a4       __imp_?GetInterfaceMap@CCmdTarget@@MBEPBUAFX_INTERFACEMAP@@XZ 100292a4     mfc100:mfc100.dll
 0002:000002a8       __imp_?GetConnectionMap@CCmdTarget@@MBEPBUAFX_CONNECTIONMAP@@XZ 100292a8     mfc100:mfc100.dll
 0002:000002ac       __imp_?GetDispatchMap@CCmdTarget@@MBEPBUAFX_DISPMAP@@XZ 100292ac     mfc100:mfc100.dll
 0002:000002b0       __imp_?GetCommandMap@CCmdTarget@@MBEPBUAFX_OLECMDMAP@@XZ 100292b0     mfc100:mfc100.dll
 0002:000002b4       __imp_?GetTypeLib@CCmdTarget@@UAEJKPAPAUITypeLib@@@Z 100292b4     mfc100:mfc100.dll
 0002:000002b8       __imp_?LoadAppLangResourceDLL@CWinApp@@UAEPAUHINSTANCE__@@XZ 100292b8     mfc100:mfc100.dll
 0002:000002bc       __imp_?GetTypeInfoCount@CCmdTarget@@UAEIXZ 100292bc     mfc100:mfc100.dll
 0002:000002c0       __imp_?GetDispatchIID@CCmdTarget@@UAEHPAU_GUID@@@Z 100292c0     mfc100:mfc100.dll
 0002:000002c4       __imp_?IsInvokeAllowed@CCmdTarget@@UAEHJ@Z 100292c4     mfc100:mfc100.dll
 0002:000002c8       __imp_?OnFinalRelease@CCmdTarget@@UAEXXZ 100292c8     mfc100:mfc100.dll
 0002:000002cc       __imp_?OnCmdMsg@CCmdTarget@@UAEHIHPAXPAUAFX_CMDHANDLERINFO@@@Z 100292cc     mfc100:mfc100.dll
 0002:000002d0       __imp_?GetRuntimeClass@CWinApp@@UBEPAUCRuntimeClass@@XZ 100292d0     mfc100:mfc100.dll
 0002:000002d4       __imp_??0CWinApp@@QAE@PBD@Z 100292d4     mfc100:mfc100.dll
 0002:000002d8       __imp_??1CWinApp@@UAE@XZ   100292d8     mfc100:mfc100.dll
 0002:000002dc       __imp_?GetThisMessageMap@CWinApp@@KGPBUAFX_MSGMAP@@XZ 100292dc     mfc100:mfc100.dll
 0002:000002e0       __imp_?AfxThrowOleException@@YGXJ@Z 100292e0     mfc100:mfc100.dll
 0002:000002e4       __imp_?AfxThrowMemoryException@@YGXXZ 100292e4     mfc100:mfc100.dll
 0002:000002e8       __imp_?AfxThrowInvalidArgException@@YGXXZ 100292e8     mfc100:mfc100.dll
 0002:000002ec       __imp_?AppendFormat@?$CStringT@_WV?$StrTraitMFC_DLL@_WV?$ChTraitsCRT@_W@ATL@@@@@ATL@@QAAXPB_WZZ 100292ec     mfc100:mfc100.dll
 0002:000002f0       __imp_??0?$CStringT@_WV?$StrTraitMFC_DLL@_WV?$ChTraitsCRT@_W@ATL@@@@@ATL@@QAE@PB_W@Z 100292f0     mfc100:mfc100.dll
 0002:000002f4       __imp_?Append@?$CSimpleStringT@_W$00@ATL@@QAEXPB_W@Z 100292f4     mfc100:mfc100.dll
 0002:000002f8       __imp_??0?$CStringT@_WV?$StrTraitMFC_DLL@_WV?$ChTraitsCRT@_W@ATL@@@@@ATL@@QAE@XZ 100292f8     mfc100:mfc100.dll
 0002:000002fc       __imp_?Preallocate@?$CSimpleStringT@_W$00@ATL@@QAEXH@Z 100292fc     mfc100:mfc100.dll
 0002:00000300       __imp_?GetBuffer@?$CSimpleStringT@_W$00@ATL@@QAEPA_WXZ 10029300     mfc100:mfc100.dll
 0002:00000304       __imp_?ReleaseBuffer@?$CSimpleStringT@_W$00@ATL@@QAEXH@Z 10029304     mfc100:mfc100.dll
 0002:00000308       __imp_??1?$CStringT@_WV?$StrTraitMFC_DLL@_WV?$ChTraitsCRT@_W@ATL@@@@@ATL@@QAE@XZ 10029308     mfc100:mfc100.dll
 0002:0000030c       __imp_??0CByteArray@@QAE@XZ 1002930c     mfc100:mfc100.dll
 0002:00000310       __imp_?SetSize@CByteArray@@QAEXHH@Z 10029310     mfc100:mfc100.dll
 0002:00000314       __imp_??1CByteArray@@UAE@XZ 10029314     mfc100:mfc100.dll
 0002:00000318       __imp_?Create@COleSafeArray@@QAEXGKPAK@Z 10029318     mfc100:mfc100.dll
 0002:0000031c       __imp_?AccessData@COleSafeArray@@QAEXPAPAX@Z 1002931c     mfc100:mfc100.dll
 0002:00000320       __imp_?UnaccessData@COleSafeArray@@QAEXXZ 10029320     mfc100:mfc100.dll
 0002:00000324       __imp_?Detach@COleSafeArray@@QAE?AUtagVARIANT@@XZ 10029324     mfc100:mfc100.dll
 0002:00000328       __imp_??0COleSafeArray@@QAE@ABUtagVARIANT@@@Z 10029328     mfc100:mfc100.dll
 0002:0000032c       __imp_?GetOneDimSize@COleSafeArray@@QAEKXZ 1002932c     mfc100:mfc100.dll
 0002:00000330       __imp_?GetLBound@COleSafeArray@@QAEXKPAJ@Z 10029330     mfc100:mfc100.dll
 0002:00000334       __imp_?GetUBound@COleSafeArray@@QAEXKPAJ@Z 10029334     mfc100:mfc100.dll
 0002:00000338       __imp_??_V@YAXPAX@Z        10029338     mfc100:mfc100.dll
 0002:0000033c       __imp_?AfxSafeArrayInit@@YGXPAVCOleSafeArray@@@Z 1002933c     mfc100:mfc100.dll
 0002:00000340       __imp_??2@YAPAXI@Z         10029340     mfc100:mfc100.dll
 0002:00000344       __imp_??3@YAXPAX@Z         10029344     mfc100:mfc100.dll
 0002:00000348       __imp_?RestartInstance@CWinApp@@UAEHXZ 10029348     mfc100:mfc100.dll
 0002:0000034c       __imp_?IsTaskbarInteractionEnabled@CWinApp@@UAEHXZ 1002934c     mfc100:mfc100.dll
 0002:00000350       __imp_?GetDataRecoveryHandler@CWinApp@@UAEPAVCDataRecoveryHandler@@XZ 10029350     mfc100:mfc100.dll
 0002:00000354       __imp_?ApplicationRecoveryCallback@CWinApp@@UAEKPAX@Z 10029354     mfc100:mfc100.dll
 0002:00000358       __imp_?RegisterWithRestartManager@CWinApp@@UAEJHABV?$CStringT@DV?$StrTraitMFC_DLL@DV?$ChTraitsCRT@D@ATL@@@@@ATL@@@Z 10029358     mfc100:mfc100.dll
 0002:0000035c       __imp_?RegisterWithRestartManager@CWinApp@@UAEJPB_WKP6GKPAX@Z1KK@Z 1002935c     mfc100:mfc100.dll
 0002:00000360       __imp_?WinHelpInternal@CWinApp@@UAEXKI@Z 10029360     mfc100:mfc100.dll
 0002:00000364       __imp_?GetExtraConnectionPoints@CCmdTarget@@MAEHPAVCPtrArray@@@Z 10029364     mfc100:mfc100.dll
 0002:00000368       __imp_?WinHelpA@CWinApp@@UAEXKI@Z 10029368     mfc100:mfc100.dll
 0002:0000036c       __imp_?OnDDECommand@CWinApp@@UAEHPAD@Z 1002936c     mfc100:mfc100.dll
 0002:00000370       __imp_?DoWaitCursor@CWinApp@@UAEXH@Z 10029370     mfc100:mfc100.dll
 0002:00000374       __imp_?DoMessageBox@CWinApp@@UAEHPBDII@Z 10029374     mfc100:mfc100.dll
 0002:00000378       __imp_?SaveAllModified@CWinApp@@UAEHXZ 10029378     mfc100:mfc100.dll
 0002:0000037c       __imp_?InitApplication@CWinApp@@UAEHXZ 1002937c     mfc100:mfc100.dll
 0002:00000380       __imp_?AddToRecentFileList@CWinApp@@UAEXPBD@Z 10029380     mfc100:mfc100.dll
 0002:00000384       __imp_?OpenDocumentFile@CWinApp@@UAEPAVCDocument@@PBD@Z 10029384     mfc100:mfc100.dll
 0002:00000388       __imp_?OpenDocumentFile@CWinApp@@UAEPAVCDocument@@PBDH@Z 10029388     mfc100:mfc100.dll
 0002:0000038c       __imp_?Unregister@CWinApp@@UAEHXZ 1002938c     mfc100:mfc100.dll
 0002:00000390       __imp_?Register@CWinApp@@UAEHXZ 10029390     mfc100:mfc100.dll
 0002:00000394       __imp_?InitLibId@CWinApp@@UAEXXZ 10029394     mfc100:mfc100.dll
 0002:00000398       __imp_?WriteProfileBinary@CWinApp@@UAEHPBD0PAEI@Z 10029398     mfc100:mfc100.dll
 0002:0000039c       __imp_?GetProfileBinary@CWinApp@@UAEHPBD0PAPAEPAI@Z 1002939c     mfc100:mfc100.dll
 0002:000003a0       __imp_?WriteProfileStringA@CWinApp@@UAEHPBD00@Z 100293a0     mfc100:mfc100.dll
 0002:000003a4       __imp_?GetProfileStringA@CWinApp@@UAE?AV?$CStringT@DV?$StrTraitMFC_DLL@DV?$ChTraitsCRT@D@ATL@@@@@ATL@@PBD00@Z 100293a4     mfc100:mfc100.dll
 0002:000003a8       __imp_?WriteProfileInt@CWinApp@@UAEHPBD0H@Z 100293a8     mfc100:mfc100.dll
 0002:000003ac       __imp_?GetProfileIntA@CWinApp@@UAEIPBD0H@Z 100293ac     mfc100:mfc100.dll
 0002:000003b0       __imp_?Delete@CWinThread@@UAEXXZ 100293b0     mfc100:mfc100.dll
 0002:000003b4       __imp_?GetMainWnd@CWinThread@@UAEPAVCWnd@@XZ 100293b4     mfc100:mfc100.dll
 0002:000003b8       __imp_?ProcessMessageFilter@CWinThread@@UAEHHPAUtagMSG@@@Z 100293b8     mfc100:mfc100.dll
 0002:000003bc       __imp_?ProcessWndProcException@CWinApp@@UAEJPAVCException@@PBUtagMSG@@@Z 100293bc     mfc100:mfc100.dll
 0002:000003c0       __imp_?IsIdleMessage@CWinThread@@UAEHPAUtagMSG@@@Z 100293c0     mfc100:mfc100.dll
 0002:000003c4       __imp_?OnIdle@CWinApp@@UAEHJ@Z 100293c4     mfc100:mfc100.dll
 0002:000003c8       __imp_?PumpMessage@CWinThread@@UAEHXZ 100293c8     mfc100:mfc100.dll
 0002:000003cc       __imp_?PreTranslateMessage@CWinThread@@UAEHPAUtagMSG@@@Z 100293cc     mfc100:mfc100.dll
 0002:000003d0       __imp_?Run@CWinApp@@UAEHXZ 100293d0     mfc100:mfc100.dll
 0002:000003d4       __imp_?GetTypeLibCache@CCmdTarget@@UAEPAVCTypeLibCache@@XZ 100293d4     mfc100:mfc100.dll
 0002:000003d8       __imp_?GetConnectionHook@CCmdTarget@@MAEPAUIConnectionPoint@@ABU_GUID@@@Z 100293d8     mfc100:mfc100.dll
 0002:000003dc       __imp_??1AFX_MODULE_STATE@@UAE@XZ 100293dc     mfc100:mfc100.dll
 0002:000003e0       __imp_?AfxWndProc@@YGJPAUHWND__@@IIJ@Z 100293e0     mfc100:mfc100.dll
 0002:000003e4       __imp_?AfxTermThread@@YGXPAUHINSTANCE__@@@Z 100293e4     mfc100:mfc100.dll
 0002:000003e8       __imp_?AfxTermExtensionModule@@YGXAAUAFX_EXTENSION_MODULE@@H@Z 100293e8     mfc100:mfc100.dll
 0002:000003ec       __imp_?AfxUnlockTempMaps@@YGHH@Z 100293ec     mfc100:mfc100.dll
 0002:000003f0       __imp_?AfxLockTempMaps@@YGXXZ 100293f0     mfc100:mfc100.dll
 0002:000003f4       __imp_?AfxSetModuleState@@YGPAVAFX_MODULE_STATE@@PAV1@@Z 100293f4     mfc100:mfc100.dll
 0002:000003f8       __imp_??0CDynLinkLibrary@@QAE@AAUAFX_EXTENSION_MODULE@@H@Z 100293f8     mfc100:mfc100.dll
 0002:000003fc       __imp_?AfxInitExtensionModule@@YGHAAUAFX_EXTENSION_MODULE@@PAUHINSTANCE__@@@Z 100293fc     mfc100:mfc100.dll
 0002:00000400       __imp_?AfxWinTerm@@YGXXZ   10029400     mfc100:mfc100.dll
 0002:00000404       __imp_?AfxWinInit@@YGHPAUHINSTANCE__@@0PADH@Z 10029404     mfc100:mfc100.dll
 0002:00000408       __imp_?AfxGetThreadState@@YGPAV_AFX_THREAD_STATE@@XZ 10029408     mfc100:mfc100.dll
 0002:0000040c       __imp_?AfxCoreInitModule@@YGXXZ 1002940c     mfc100:mfc100.dll
 0002:00000410       __imp_?AfxGetModuleState@@YGPAVAFX_MODULE_STATE@@XZ 10029410     mfc100:mfc100.dll
 0002:00000414       __imp_??0AFX_MODULE_STATE@@QAE@HP6GJPAUHWND__@@IIJ@ZKH@Z 10029414     mfc100:mfc100.dll
 0002:00000418       __imp_??3CNoTrackObject@@SGXPAX@Z 10029418     mfc100:mfc100.dll
 0002:0000041c       __imp_?HtmlHelpA@CWinApp@@UAEXKI@Z 1002941c     mfc100:mfc100.dll
 0002:00000420       \177mfc100_NULL_THUNK_DATA 10029420     mfc100:mfc100.dll
 0002:00000424       __imp__CoCreateInstance@20 10029424     ole32:ole32.dll
 0002:00000428       __imp__OleRun@4            10029428     ole32:ole32.dll
 0002:0000042c       \177ole32_NULL_THUNK_DATA  1002942c     ole32:ole32.dll
 0002:00000430       ___xc_a                    10029430     msvcrt:cinitexe.obj
 0002:0000044c       ___xc_z                    1002944c     msvcrt:cinitexe.obj
 0002:00000450       ___xi_a                    10029450     msvcrt:cinitexe.obj
 0002:0000045c       ___xi_z                    1002945c     msvcrt:cinitexe.obj
 0002:00000480       ??_7bad_alloc@std@@6B@     10029480     Columns.obj
 0002:0000048c       ??_7_SafeArrayBase@TSUTIL@@6B@ 1002948c     Columns.obj
 0002:00000490       ??_C@_0BD@OLBABOEK@vector?$DMT?$DO?5too?5long?$AA@ 10029490     Columns.obj
 0002:000004a4       __GUID_0000154e_0000_0010_8000_00aa006d2ea4 100294a4     Columns.obj
 0002:000004b4       __GUID_00001556_0000_0010_8000_00aa006d2ea4 100294b4     Columns.obj
 0002:000004c8       ??_7_com_error@@6B@        100294c8     Columns.obj
 0002:000004d0       ??_7?$SafeArray@PA_W$07@TSUTIL@@6B@ 100294d0     Columns.obj
 0002:000004d4       __GUID_00000000_0000_0000_c000_000000000046 100294d4     Columns.obj
 0002:000004e4       ??_C@_00CNPNBAHC@?$AA@     100294e4     Columns.obj
 0002:000004e8       ??_C@_15JNBOKNOG@?$AA?$AN?$AA?6?$AA?$AA@ 100294e8     Columns.obj
 0002:000004f0       ??_C@_17OHNLBJFE@?$AAU?$AAI?$AA1?$AA?$AA@ 100294f0     Columns.obj
 0002:000004f8       ??_C@_17PFGOLGLK@?$AAU?$AAI?$AA2?$AA?$AA@ 100294f8     Columns.obj
 0002:00000500       ??_C@_17NAAFOJGG@?$AAU?$AAI?$AA4?$AA?$AA@ 10029500     Columns.obj
 0002:00000508       ??_C@_17JKNDFGNO@?$AAU?$AAI?$AA8?$AA?$AA@ 10029508     Columns.obj
 0002:00000510       ??_C@_15COPNJKDM@?$AAI?$AA1?$AA?$AA@ 10029510     Columns.obj
 0002:00000518       ??_C@_15DMEIDFNC@?$AAI?$AA2?$AA?$AA@ 10029518     Columns.obj
 0002:00000520       ??_C@_15BJCDGKAO@?$AAI?$AA4?$AA?$AA@ 10029520     Columns.obj
 0002:00000528       ??_C@_15FDPFNFLG@?$AAI?$AA8?$AA?$AA@ 10029528     Columns.obj
 0002:00000530       ??_C@_15HADCJIFG@?$AAR?$AA4?$AA?$AA@ 10029530     Columns.obj
 0002:00000538       ??_C@_15DKOECHOO@?$AAR?$AA8?$AA?$AA@ 10029538     Columns.obj
 0002:00000540       ??_C@_0OE@FFNKBJPL@adFieldPendingUnknownDelete?$CI0x10@ 10029540     Columns.obj
 0002:00000628       ??_C@_0HM@KLJAMGND@adFieldPendingUnknown?$CI0x80000?$CJ?5?9@ 10029628     Columns.obj
 0002:000006a8       ??_C@_0MH@BIMEOCAO@adFieldPendingDelete?$CI0x20000?$CJ?5?9?5@ 100296a8     Columns.obj
 0002:00000770       ??_C@_0BEA@CHLNBKOP@adFieldPendingChange?$CI0x40000?$CJ?5?9?5@ 10029770     Columns.obj
 0002:000008b0       ??_C@_0MD@PFFBABFL@adFieldPendingInsert?$CI0x10000?$CJ?5?9?5@ 100298b0     Columns.obj
 0002:00000978       ??_C@_0HF@ICHFLGOL@adFieldVolumeNotFound?$CI21?$CJ?5?9?5Indi@ 10029978     Columns.obj
 0002:000009f0       ??_C@_0PM@IAMFIGFD@adFieldUnavailable?$CI8?$CJ?5?9?5Indicate@ 100299f0     Columns.obj
 0002:00000af0       ??_C@_0GL@DFMCHKAB@adFieldTruncated?$CI4?$CJ?5?9?5Indicates?5@ 10029af0     Columns.obj
 0002:00000b60       ??_C@_0IO@ONDEHOLD@adFieldSignMismatch?$CI5?$CJ?5?9?5Indicat@ 10029b60     Columns.obj
 0002:00000bf0       ??_C@_0HA@GELENIEM@adFieldSchemaViolation?$CI11?$CJ?5?9?5Ind@ 10029bf0     Columns.obj
 0002:00000c60       ??_C@_0HH@DHFMDIPO@adFieldResourceOutOfScope?$CI25?$CJ?5?9?5@ 10029c60     Columns.obj
 0002:00000cd8       ??_C@_0KL@NMIEFBEN@adFieldResourceLocked?$CI18?$CJ?5?9?5Indi@ 10029cd8     Columns.obj
 0002:00000d88       ??_C@_0MA@LHIKHBEG@adFieldResourceExists?$CI19?$CJ?5?9?5Indi@ 10029d88     Columns.obj
 0002:00000e48       ??_C@_0FL@DFOAPDBL@adFieldReadOnly?$CI24?$CJ?5?9?5Indicates?5@ 10029e48     Columns.obj
 0002:00000ea8       ??_C@_0GN@KPGLDODK@adFieldPermissionDenied?$CI9?$CJ?5?9?5Ind@ 10029ea8     Columns.obj
 0002:00000f18       ??_C@_0ID@DHGCOCDH@adFieldOutOfSpace?$CI22?$CJ?5?9?5Indicate@ 10029f18     Columns.obj
 0002:00000fa0       ??_C@_0FE@LFIFM@adFieldOK?$CI0?$CJ?5?9?5Default?4?5Indicate@ 10029fa0     Columns.obj
 0002:00000ff8       ??_C@_0EG@LMMAOFLE@adFieldIsNull?$CI3?$CJ?5?9?5Indicates?5tha@ 10029ff8     Columns.obj
 0002:00001040       ??_C@_0FI@GKEJJICL@adFieldInvalidURL?$CI17?$CJ?5?9?5Indicate@ 1002a040     Columns.obj
 0002:00001098       ??_C@_0HK@LALOGKHP@adFieldIntegrityViolation?$CI10?$CJ?5?9?5@ 1002a098     Columns.obj
 0002:00001118       ??_C@_0IE@PNPKJDCB@adFieldIgnore?$CI15?$CJ?5?9?5Indicates?5th@ 1002a118     Columns.obj
 0002:000011a0       ??_C@_0EN@HKLMDGFI@adFieldDoesNotExist?$CI16?$CJ?5?9?5Indica@ 1002a1a0     Columns.obj
 0002:000011f0       ??_C@_0GA@JHBKNBPO@adFieldDefault?$CI13?$CJ?5?9?5Indicates?5t@ 1002a1f0     Columns.obj
 0002:00001250       ??_C@_0HD@BBJMEFKM@adFieldDataOverflow?$CI6?$CJ?5?9?5Indicat@ 1002a250     Columns.obj
 0002:000012c8       ??_C@_0JG@IJCMBDHA@adFieldCantCreate?$CI7?$CJ?5?9?5Indicates@ 1002a2c8     Columns.obj
 0002:00001360       ??_C@_0GK@LLIBJDDG@adFieldCantConvertValue?$CI2?$CJ?5?9?5Ind@ 1002a360     Columns.obj
 0002:000013d0       ??_C@_0JM@FGBCIEIP@adFieldCannotDeleteSource?$CI23?$CJ?5?9?5@ 1002a3d0     Columns.obj
 0002:00001470       ??_C@_0HH@MIIEHADM@adFieldCannotComplete?$CI20?$CJ?5?9?5Indi@ 1002a470     Columns.obj
 0002:000014e8       ??_C@_0MP@BFODMNCP@adFieldBadStatus?$CI12?$CJ?5?9?5Indicates@ 1002a4e8     Columns.obj
 0002:000015b8       ??_C@_0EO@GANGLIHB@adFieldAlreadyExists?$CI26?$CJ?5?9?5Indic@ 1002a5b8     Columns.obj
 0002:00001608       ??_C@_02MIICKFIN@?4?6?$AA@ 1002a608     Columns.obj
 0002:0000160c       ??_C@_09MCGHFJEP@Recordset?$AA@ 1002a60c     Columns.obj
 0002:00001618       ??_C@_0ED@BIGPDCHA@An?5error?5occured?5creating?5an?5ins@ 1002a618     Columns.obj
 0002:0000165c       __GUID_00000535_0000_0010_8000_00aa006d2ea4 1002a65c     Columns.obj
 0002:0000166c       ??_C@_06EAMHOIND@?$CF$?413f?$AA@ 1002a66c     Columns.obj
 0002:00001674       ??_C@_13COJANIEC@?$AA0?$AA?$AA@ 1002a674     Columns.obj
 0002:00001678       ??_C@_13JGCMLPCH@?$AA1?$AA?$AA@ 1002a678     Columns.obj
 0002:0000167c       ??_C@_15HBBGCAG@?$AA?$CF?$AAf?$AA?$AA@ 1002a67c     Columns.obj
 0002:00001684       ??_C@_17KELMBDLH@?$AA?$CF?$AAs?$AA?$DN?$AA?$AA@ 1002a684     Columns.obj
 0002:0000168c       ??_C@_1M@PADJKCCA@?$AA?$FL?$AA?$CF?$AAs?$AA?$FN?$AA?$DN?$AA?$AA@ 1002a68c     Columns.obj
 0002:00001698       ??_C@_0BB@MFLKNJIA@?6Column?5Status?3?5?$AA@ 1002a698     Columns.obj
 0002:000016ac       ??_C@_0BN@LMBNBIPI@Err_ErrorOccurredForProperty?$AA@ 1002a6ac     Columns.obj
 0002:000016cc       ??_C@_01EEMJAFIK@?6?$AA@   1002a6cc     Columns.obj
 0002:000016d0       ??_C@_0BL@MMFLLIH@Err_ErrorOccurredForColumn?$AA@ 1002a6d0     Columns.obj
 0002:000016ec       ??_C@_11LOCGONAA@?$AA?$AA@ 1002a6ec     Columns.obj
 0002:000016f0       ??_C@_04OMBFFHIC@?$HL?$CFs?$HN?$AA@ 1002a6f0     Columns.obj
 0002:000016f8       ??_C@_07FFLLKOAD@Command?$AA@ 1002a6f8     Columns.obj
 0002:00001700       __GUID_00000507_0000_0010_8000_00aa006d2ea4 1002a700     Columns.obj
 0002:00001710       ??_C@_0BI@OKLOIDMC@ForeignKeyStatementName?$AA@ 1002a710     Columns.obj
 0002:00001728       ??_C@_0BI@CAKKIEHE@PrimaryKeyStatementText?$AA@ 1002a728     Columns.obj
 0002:00001740       ??_C@_0P@LLECCLBO@PrimaryKeyType?$AA@ 1002a740     Columns.obj
 0002:00001750       ??_C@_0BD@NHGJLMO@ExpectedProperties?$AA@ 1002a750     Columns.obj
 0002:00001764       ??_C@_0N@MOBDOKEE@Precondition?$AA@ 1002a764     Columns.obj
 0002:00001774       ??_C@_06PEPCFMNJ@Format?$AA@ 1002a774     Columns.obj
 0002:0000177c       ??_C@_04EBKMHHBE@Size?$AA@ 1002a77c     Columns.obj
 0002:00001784       ??_C@_0L@NMLOJPGF@Expression?$AA@ 1002a784     Columns.obj
 0002:00001790       ??_C@_09DAPGLLEF@Direction?$AA@ 1002a790     Columns.obj
 0002:0000179c       ??_C@_04KOACHJEN@Type?$AA@ 1002a79c     Columns.obj
 0002:000017a4       ??_C@_04FABLJDN@Name?$AA@  1002a7a4     Columns.obj
 0002:000017ac       _LIBID_DBLOGLib            1002a7ac     DBLog.obj
 0002:000017bc       _IID_ITSDBLog              1002a7bc     DBLog.obj
 0002:000017cc       _IID_ITSDatalink           1002a7cc     DBLog.obj
 0002:000017dc       _CLSID_TSDBLog             1002a7dc     DBLog.obj
 0002:000017ec       _CLSID_TSDatalink          1002a7ec     DBLog.obj
 0002:000017fc       __GUID_65a60a52_3e57_4707_be4b_8d00bc08e32f 1002a7fc     DBLog.obj
 0002:0000180c       __GUID_606104e9_6ede_469c_a1fc_181acc1856bc 1002a80c     DBLog.obj
 0002:0000181c       __GUID_8d8769a0_09c0_11d1_93bd_0020af68e893 1002a81c     DBLog.obj
 0002:0000182c       __GUID_e7495e94_98e0_4d89_bfea_3f850f0a0399 1002a82c     DBLog.obj
 0002:0000183c       __GUID_b2794ef5_c0b6_11d0_939c_0020af68e893 1002a83c     DBLog.obj
 0002:0000184c       __GUID_7dc7e990_18dc_11d1_93be_0020af68e893 1002a84c     DBLog.obj
 0002:0000185c       __GUID_6ad5e6e0_5c69_11d1_93c6_0020af68e893 1002a85c     DBLog.obj
 0002:0000186c       __GUID_6427d0e0_e410_11d0_93b4_0020af68e893 1002a86c     DBLog.obj
 0002:0000187c       __GUID_8ab74eec_6c57_11d3_8de1_006097053485 1002a87c     DBLog.obj
 0002:0000188c       __GUID_3bba9220_6d15_11d3_8de1_006097053485 1002a88c     DBLog.obj
 0002:0000189c       __GUID_00000512_0000_0010_8000_00aa006d2ea4 1002a89c     DBLog.obj
 0002:000018ac       __GUID_00000513_0000_0010_8000_00aa006d2ea4 1002a8ac     DBLog.obj
 0002:000018bc       __GUID_00000500_0000_0010_8000_00aa006d2ea4 1002a8bc     DBLog.obj
 0002:000018cc       __GUID_00000501_0000_0010_8000_00aa006d2ea4 1002a8cc     DBLog.obj
 0002:000018dc       __GUID_0000154c_0000_0010_8000_00aa006d2ea4 1002a8dc     DBLog.obj
 0002:000018ec       __GUID_00001569_0000_0010_8000_00aa006d2ea4 1002a8ec     DBLog.obj
 0002:000018fc       __GUID_0000150c_0000_0010_8000_00aa006d2ea4 1002a8fc     DBLog.obj
 0002:0000190c       __GUID_00001508_0000_0010_8000_00aa006d2ea4 1002a90c     DBLog.obj
 0002:0000191c       __GUID_00001515_0000_0010_8000_00aa006d2ea4 1002a91c     DBLog.obj
 0002:0000192c       __GUID_00001550_0000_0010_8000_00aa006d2ea4 1002a92c     DBLog.obj
 0002:0000193c       __GUID_0000150e_0000_0010_8000_00aa006d2ea4 1002a93c     DBLog.obj
 0002:00001974       ??_7CDBLogApp@@6B@         1002a974     DBLog.obj
 0002:00001a90       ??_7?$CComObject@VCTSDatalink@@@ATL@@6B?$IDispatchImpl@UITSDatalink@@$1?IID_ITSDatalink@@3U_GUID@@B$1?LIBID_DBLOGLib@@3U3@B$00$0A@VCComTypeInfoHolder@ATL@@@1@@ 1002aa90     DBLog.obj
 0002:00001ac8       ??_7?$CComObject@VCTSDatalink@@@ATL@@6BISupportErrorInfo@@@ 1002aac8     DBLog.obj
 0002:00001adc       ?_entries@?1??_GetEntries@CTSDatalink@@SGPBU_ATL_INTMAP_ENTRY@ATL@@XZ@4QBU34@B 1002aadc     DBLog.obj
 0002:00001b0c       __GUID_9d6338d0_57fb_11d4_8105_0090276f59e1 1002ab0c     DBLog.obj
 0002:00001b1c       __GUID_00020400_0000_0000_c000_000000000046 1002ab1c     DBLog.obj
 0002:00001b2c       __GUID_df0b3d60_548f_101b_8e65_08002b2bd119 1002ab2c     DBLog.obj
 0002:00001b3c       __GUID_00020412_0000_0000_c000_000000000046 1002ab3c     DBLog.obj
 0002:00001b50       ??_7?$CComContainedObject@VCTSDatalink@@@ATL@@6B?$IDispatchImpl@UITSDatalink@@$1?IID_ITSDatalink@@3U_GUID@@B$1?LIBID_DBLOGLib@@3U3@B$00$0A@VCComTypeInfoHolder@ATL@@@1@@ 1002ab50     DBLog.obj
 0002:00001b88       ??_7?$CComContainedObject@VCTSDatalink@@@ATL@@6BISupportErrorInfo@@@ 1002ab88     DBLog.obj
 0002:00001b9c       ??_7CComClassFactory@ATL@@6B@ 1002ab9c     DBLog.obj
 0002:00001bb8       ??_7?$CComAggObject@VCTSDatalink@@@ATL@@6B@ 1002abb8     DBLog.obj
 0002:00001bcc       ??_7CComModule@ATL@@6B@    1002abcc     DBLog.obj
 0002:00001bf4       __GUID_00000146_0000_0000_c000_000000000046 1002abf4     DBLog.obj
 0002:00001c04       ??_C@_1M@PPPPCDEP@?$AAA?$AAP?$AAP?$AAI?$AAD?$AA?$AA@ 1002ac04     DBLog.obj
 0002:00001c10       ??_C@_0BJ@CNLFOMHB@UnRegisterTypeLibForUser?$AA@ 1002ac10     DBLog.obj
 0002:00001c2c       ??_C@_1BK@EDKOLFBJ@?$AAO?$AAL?$AAE?$AAA?$AAU?$AAT?$AA3?$AA2?$AA?4?$AAD?$AAL?$AAL?$AA?$AA@ 1002ac2c     DBLog.obj
 0002:00001c48       ??_C@_0BH@LBOMMKPJ@RegisterTypeLibForUser?$AA@ 1002ac48     DBLog.obj
 0002:00001c60       __GUID_00020401_0000_0000_c000_000000000046 1002ac60     DBLog.obj
 0002:00001c70       __GUID_00000504_0000_0010_8000_00aa006d2ea4 1002ac70     DBLog.obj
 0002:00001c80       __GUID_00000534_0000_0010_8000_00aa006d2ea4 1002ac80     DBLog.obj
 0002:00001c90       __GUID_00001506_0000_0010_8000_00aa006d2ea4 1002ac90     DBLog.obj
 0002:00001ca0       __GUID_0000150d_0000_0010_8000_00aa006d2ea4 1002aca0     DBLog.obj
 0002:00001cb4       ??_7?$CComObjectCached@VCComClassFactory@ATL@@@ATL@@6B@ 1002acb4     DBLog.obj
 0002:00001ccc       ?_entries@?1??_GetEntries@CComClassFactory@ATL@@SGPBU_ATL_INTMAP_ENTRY@3@XZ@4QBU43@B 1002accc     DBLog.obj
 0002:00001ce4       __GUID_00000001_0000_0000_c000_000000000046 1002ace4     DBLog.obj
 0002:00001cf8       ??_7?$CComObject@VCTSDBLog@@@ATL@@6B?$IDispatchImpl@UITSDBLog@@$1?IID_ITSDBLog@@3U_GUID@@B$1?LIBID_DBLOGLib@@3U3@B$00$0A@VCComTypeInfoHolder@ATL@@@1@@ 1002acf8     DBLog.obj
 0002:00001d28       ??_7?$CComObject@VCTSDBLog@@@ATL@@6BISupportErrorInfo@@@ 1002ad28     DBLog.obj
 0002:00001d3c       ?_entries@?1??_GetEntries@CTSDBLog@@SGPBU_ATL_INTMAP_ENTRY@ATL@@XZ@4QBU34@B 1002ad3c     DBLog.obj
 0002:00001d6c       __GUID_9d6338ce_57fb_11d4_8105_0090276f59e1 1002ad6c     DBLog.obj
 0002:00001d80       ??_7?$CComContainedObject@VCTSDBLog@@@ATL@@6B?$IDispatchImpl@UITSDBLog@@$1?IID_ITSDBLog@@3U_GUID@@B$1?LIBID_DBLOGLib@@3U3@B$00$0A@VCComTypeInfoHolder@ATL@@@1@@ 1002ad80     DBLog.obj
 0002:00001db0       ??_7?$CComContainedObject@VCTSDBLog@@@ATL@@6BISupportErrorInfo@@@ 1002adb0     DBLog.obj
 0002:00001dc4       ??_7?$CComAggObject@VCTSDBLog@@@ATL@@6B@ 1002adc4     DBLog.obj
 0002:00001dd4       ??_C@_1BA@HEALCKMJ@?$AAL?$AAo?$AAg?$AAg?$AAi?$AAn?$AAg?$AA?$AA@ 1002add4     DBLogUtil.obj
 0002:00001de4       ??_C@_1DG@DCNCBPP@?$AAL?$AAo?$AAc?$AAa?$AAl?$AAs?$AA?4?$AAT?$AAS?$AAD?$AAB?$AAL?$AAo?$AAg?$AAg?$AAi?$AAn?$AAg?$AAT?$AAe?$AAm?$AAp?$AAl?$AAa?$AAt?$AAe?$AA?$AA@ 1002ade4     DBLogUtil.obj
 0002:00001e1c       ??_C@_1CG@GGEIMLPP@?$AAL?$AAo?$AAc?$AAa?$AAl?$AAs?$AA?4?$AAT?$AAS?$AAD?$AAB?$AAL?$AAo?$AAg?$AAg?$AAi?$AAn?$AAg?$AA?$AA@ 1002ae1c     DBLogUtil.obj
 0002:00001e44       ??_C@_17JPDHNMIF@?$AAU?$AAU?$AAT?$AA?$AA@ 1002ae44     DBLogUtil.obj
 0002:00001e4c       ??_C@_1CA@PIFBBAGC@?$AAD?$AAa?$AAt?$AAa?$AAb?$AAa?$AAs?$AAe?$AAO?$AAp?$AAt?$AAi?$AAo?$AAn?$AAs?$AA?$AA@ 1002ae4c     DBLogUtil.obj
 0002:00001e70       ??_C@_1EO@IAILJOC@?$AAD?$AAa?$AAt?$AAa?$AAb?$AAa?$AAs?$AAe?$AAO?$AAp?$AAt?$AAi?$AAo?$AAn?$AAs?$AA?4?$AAR?$AAe?$AAs?$AAu?$AAl?$AAt?$AAF?$AAi?$AAl?$AAt?$AAe?$AAr?$AAE?$AAx?$AAp?$AAr@ 1002ae70     DBLogUtil.obj
 0002:00001ec0       ??_C@_1EE@JMKPOFII@?$AAD?$AAa?$AAt?$AAa?$AAb?$AAa?$AAs?$AAe?$AAO?$AAp?$AAt?$AAi?$AAo?$AAn?$AAs?$AA?4?$AAS?$AAh?$AAo?$AAw?$AAL?$AAo?$AAg?$AAg?$AAi?$AAn?$AAg?$AAS?$AAt?$AAa?$AAt?$AAu@ 1002aec0     DBLogUtil.obj
 0002:00001f08       ??_C@_1FC@LJCHPPKL@?$AAD?$AAa?$AAt?$AAa?$AAb?$AAa?$AAs?$AAe?$AAO?$AAp?$AAt?$AAi?$AAo?$AAn?$AAs?$AA?4?$AAI?$AAn?$AAc?$AAl?$AAu?$AAd?$AAe?$AAA?$AAd?$AAd?$AAi?$AAt?$AAi?$AAo?$AAn?$AAa@ 1002af08     DBLogUtil.obj
 0002:00001f60       ??_C@_1EI@GGGDDGDE@?$AAD?$AAa?$AAt?$AAa?$AAb?$AAa?$AAs?$AAe?$AAO?$AAp?$AAt?$AAi?$AAo?$AAn?$AAs?$AA?4?$AAI?$AAn?$AAc?$AAl?$AAu?$AAd?$AAe?$AAO?$AAu?$AAt?$AAp?$AAu?$AAt?$AAV?$AAa?$AAl@ 1002af60     DBLogUtil.obj
 0002:00001fa8       ??_C@_1DM@PNCJAPKA@?$AAD?$AAa?$AAt?$AAa?$AAb?$AAa?$AAs?$AAe?$AAO?$AAp?$AAt?$AAi?$AAo?$AAn?$AAs?$AA?4?$AAI?$AAn?$AAc?$AAl?$AAu?$AAd?$AAe?$AAL?$AAi?$AAm?$AAi?$AAt?$AAs?$AA?$AA@ 1002afa8     DBLogUtil.obj
 0002:00001fe4       ??_C@_1BE@DENADGKH@?$AAS?$AAt?$AAa?$AAr?$AAt?$AAT?$AAi?$AAm?$AAe?$AA?$AA@ 1002afe4     DBLogUtil.obj
 0002:00001ff8       ??_C@_1BE@OEECPPKJ@?$AAS?$AAt?$AAa?$AAr?$AAt?$AAD?$AAa?$AAt?$AAe?$AA?$AA@ 1002aff8     DBLogUtil.obj
 0002:0000200c       ??_C@_1BI@IHIFGLEO@?$AAS?$AAt?$AAa?$AAt?$AAi?$AAo?$AAn?$AAI?$AAn?$AAf?$AAo?$AA?$AA@ 1002b00c     DBLogUtil.obj
 0002:00002024       ??_C@_1BO@NCDLLGBJ@?$AAE?$AAx?$AAe?$AAc?$AAu?$AAt?$AAi?$AAo?$AAn?$AAO?$AAr?$AAd?$AAe?$AAr?$AA?$AA@ 1002b024     DBLogUtil.obj
 0002:00002048       ??_C@_1FE@LCAKMKID@?$AAL?$AAo?$AAc?$AAa?$AAl?$AAs?$AA?4?$AAT?$AAS?$AAD?$AAB?$AAL?$AAo?$AAg?$AAg?$AAi?$AAn?$AAg?$AAT?$AAe?$AAm?$AAp?$AAl?$AAa?$AAt?$AAe?$AA?4?$AAE?$AAx?$AAe?$AAc?$AAu@ 1002b048     DBLogUtil.obj
 0002:0000209c       ??_C@_1BE@HGBDDLIP@?$AAU?$AAU?$AAT?$AAR?$AAe?$AAs?$AAu?$AAl?$AAt?$AA?$AA@ 1002b09c     DBLogUtil.obj
 0002:000020b0       ??_C@_1BG@EEFOGNLL@?$AAS?$AAt?$AAe?$AAp?$AAR?$AAe?$AAs?$AAu?$AAl?$AAt?$AA?$AA@ 1002b0b0     DBLogUtil.obj
 0002:000020c8       ??_C@_1BO@GNBOOGKF@?$AAP?$AAr?$AAo?$AAp?$AAe?$AAr?$AAt?$AAy?$AAR?$AAe?$AAs?$AAu?$AAl?$AAt?$AA?$AA@ 1002b0c8     DBLogUtil.obj
 0002:000020e8       ??_C@_1DG@BNNCHOOJ@?$AAP?$AAr?$AAo?$AAp?$AAe?$AAr?$AAt?$AAy?$AAR?$AAe?$AAs?$AAu?$AAl?$AAt?$AAD?$AAe?$AAt?$AAa?$AAi?$AAl?$AAs?$AA?4?$AAP?$AAa?$AAt?$AAh?$AA?$AA@ 1002b0e8     DBLogUtil.obj
 0002:00002120       ??_C@_1DO@NHOJBFHN@?$AAP?$AAr?$AAo?$AAp?$AAe?$AAr?$AAt?$AAy?$AAR?$AAe?$AAs?$AAu?$AAl?$AAt?$AAD?$AAe?$AAt?$AAa?$AAi?$AAl?$AAs?$AA?4?$AAC?$AAa?$AAt?$AAe?$AAg?$AAo?$AAr?$AAy?$AA?$AA@ 1002b120     DBLogUtil.obj
 0002:00002160       ??_C@_1DI@ILAHALMI@?$AAP?$AAr?$AAo?$AAp?$AAe?$AAr?$AAt?$AAy?$AAR?$AAe?$AAs?$AAu?$AAl?$AAt?$AAD?$AAe?$AAt?$AAa?$AAi?$AAl?$AAs?$AA?4?$AAO?$AAr?$AAd?$AAe?$AAr?$AA?$AA@ 1002b160     DBLogUtil.obj
 0002:00002198       ??_C@_0M@CKOBGNJN@TSDBLOGGING?$AA@ 1002b198     DBLogUtil.obj
 0002:000021a4       ??_C@_0L@FEHFGGEO@ErrUnknown?$AA@ 1002b1a4     DBLogUtil.obj
 0002:000021b0       ??_C@_0BK@NIBHLAAM@Err_InvalidForeignKeyName?$AA@ 1002b1b0     DBLogUtil.obj
 0002:000021cc       ??_C@_0BG@HAFOEEAC@Err_InvalidResultType?$AA@ 1002b1cc     DBLogUtil.obj
 0002:000021e4       ??_C@_0BM@DOJJCDGM@Err_InvalidTraversingOption?$AA@ 1002b1e4     DBLogUtil.obj
 0002:00002200       ??_C@_0BI@HCGDNHDD@Err_FailedGetPrimaryKey?$AA@ 1002b200     DBLogUtil.obj
 0002:00002218       ??_C@_0BG@HPEHGICJ@Err_InvalidColumnType?$AA@ 1002b218     DBLogUtil.obj
 0002:00002230       ??_C@_0BH@GDCLIGBE@Err_InvalidFormatValue?$AA@ 1002b230     DBLogUtil.obj
 0002:00002248       ??_C@_0BO@DKFCGAKK@Err_ContainerTypeNotSupported?$AA@ 1002b248     DBLogUtil.obj
 0002:00002268       ??_C@_0BO@HGKJMPCK@Err_ReferenceTypeNotSupported?$AA@ 1002b268     DBLogUtil.obj
 0002:00002288       ??_C@_0BP@CIAPDKDI@Err_ContainerTypeHeterogeneous?$AA@ 1002b288     DBLogUtil.obj
 0002:000022a8       ??_C@_0BJ@KDIKPFDI@Err_LoggingSequenceError?$AA@ 1002b2a8     DBLogUtil.obj
 0002:000022c4       ??_C@_0BG@MMJOOHJG@Err_InvalidADOVersion?$AA@ 1002b2c4     DBLogUtil.obj
 0002:000022dc       ??_C@_0BI@CMOLJDLJ@Err_SessionManagerError?$AA@ 1002b2dc     DBLogUtil.obj
 0002:000022f4       ??_C@_0BO@NNAFGPCC@Err_FailedNoStatementsDefined?$AA@ 1002b2f4     DBLogUtil.obj
 0002:00002314       ??_C@_0BH@DNEJAHNG@Err_FailedPrecondition?$AA@ 1002b314     DBLogUtil.obj
 0002:0000232c       ??_C@_0BL@JNKIFEEK@Err_FailedFilterExpression?$AA@ 1002b32c     DBLogUtil.obj
 0002:00002348       ??_C@_0BG@MADJIABG@Err_FailedToSetColumn?$AA@ 1002b348     DBLogUtil.obj
 0002:00002360       ??_C@_0BK@KAOKMNNF@Err_FailedToInitStatement?$AA@ 1002b360     DBLogUtil.obj
 0002:0000237c       ??_C@_0BN@PCEGCGKA@Err_FailedToExecuteStatement?$AA@ 1002b37c     DBLogUtil.obj
 0002:0000239c       ??_C@_0BK@FPJKPNMH@Err_FailedToOpenStatement?$AA@ 1002b39c     DBLogUtil.obj
 0002:000023b8       ??_C@_0BJ@HLOEEHDB@Err_FailedInitConnection?$AA@ 1002b3b8     DBLogUtil.obj
 0002:000023d4       ??_C@_0BJ@LAJNMFBE@Err_FailureToGetDataLink?$AA@ 1002b3d4     DBLogUtil.obj
 0002:000023f0       ??_C@_0BK@KCMICKIP@Err_FailureLoggingResults?$AA@ 1002b3f0     DBLogUtil.obj
 0002:0000240c       ??_C@_0P@ILOMIPMF@?6Reported?5by?3?5?$AA@ 1002b40c     DBLogUtil.obj
 0002:0000241c       ??_C@_0M@FNMFKOIJ@?6SQLState?3?5?$AA@ 1002b41c     DBLogUtil.obj
 0002:00002428       ??_C@_0P@MNFOGOII@?6NativeError?3?5?$AA@ 1002b428     DBLogUtil.obj
 0002:00002438       ??_C@_02DPKJAMEF@?$CFd?$AA@ 1002b438     DBLogUtil.obj
 0002:0000243c       ??_C@_09HKHGBHJL@?6Number?3?5?$AA@ 1002b43c     DBLogUtil.obj
 0002:00002448       ??_C@_0O@BKHMEJIK@Description?3?5?$AA@ 1002b448     DBLogUtil.obj
 0002:00002458       ??_C@_1BI@CDEIBGF@?$AAE?$AAl?$AAe?$AAm?$AAe?$AAn?$AAt?$AAT?$AAy?$AAp?$AAe?$AA?$AA@ 1002b458     DBLogUtil.obj
 0002:00002470       ??_C@_1BI@FHEGKKNB@?$AAU?$AAp?$AAp?$AAe?$AAr?$AAB?$AAo?$AAu?$AAn?$AAd?$AAs?$AA?$AA@ 1002b470     DBLogUtil.obj
 0002:00002488       ??_C@_1BI@OPCMHIOH@?$AAL?$AAo?$AAw?$AAe?$AAr?$AAB?$AAo?$AAu?$AAn?$AAd?$AAs?$AA?$AA@ 1002b488     DBLogUtil.obj
 0002:000024a0       ??_C@_1BM@NKMCFLOM@?$AAD?$AAi?$AAs?$AAp?$AAl?$AAa?$AAy?$AAS?$AAt?$AAr?$AAi?$AAn?$AAg?$AA?$AA@ 1002b4a0     DBLogUtil.obj
 0002:000024bc       ??_C@_1BE@ONMKLCCD@?$AAV?$AAa?$AAl?$AAu?$AAe?$AAT?$AAy?$AAp?$AAe?$AA?$AA@ 1002b4bc     DBLogUtil.obj
 0002:000024d0       ??_C@_1BC@HLEBFCNF@?$AAT?$AAy?$AAp?$AAe?$AAN?$AAa?$AAm?$AAe?$AA?$AA@ 1002b4d0     DBLogUtil.obj
 0002:000024e4       ??_C@_19BIEPDBPA@?$AAT?$AAy?$AAp?$AAe?$AA?$AA@ 1002b4e4     DBLogUtil.obj
 0002:000024f0       ??_C@_1BM@KKBMJACH@?$AAN?$AAu?$AAm?$AAe?$AAr?$AAi?$AAc?$AAF?$AAo?$AAr?$AAm?$AAa?$AAt?$AA?$AA@ 1002b4f0     DBLogUtil.obj
 0002:0000250c       ??_C@_19DINFBLAK@?$AAN?$AAa?$AAm?$AAe?$AA?$AA@ 1002b50c     DBLogUtil.obj
 0002:00002518       ??_C@_1CM@JIOBMJCB@?$AAP?$AAr?$AAo?$AAp?$AAe?$AAr?$AAt?$AAy?$AAR?$AAe?$AAs?$AAu?$AAl?$AAt?$AAD?$AAe?$AAt?$AAa?$AAi?$AAl?$AAs?$AA?$AA@ 1002b518     DBLogUtil.obj
 0002:00002544       ??_C@_08EDHMEBNP@December?$AA@ 1002b544     format.obj
 0002:00002550       ??_C@_08HCHEGEOA@November?$AA@ 1002b550     format.obj
 0002:0000255c       ??_C@_07JJNFCEND@October?$AA@ 1002b55c     format.obj
 0002:00002564       ??_C@_09BHHEALKD@September?$AA@ 1002b564     format.obj
 0002:00002570       ??_C@_06LBBHFDDG@August?$AA@ 1002b570     format.obj
 0002:00002578       ??_C@_04MIEPOIFP@July?$AA@ 1002b578     format.obj
 0002:00002580       ??_C@_04CNLMGBGM@June?$AA@ 1002b580     format.obj
 0002:00002588       ??_C@_05DMJDNLEJ@April?$AA@ 1002b588     format.obj
 0002:00002590       ??_C@_05HPCKOFNC@March?$AA@ 1002b590     format.obj
 0002:00002598       ??_C@_08GNJGEPFN@February?$AA@ 1002b598     format.obj
 0002:000025a4       ??_C@_07CGJPFGJA@January?$AA@ 1002b5a4     format.obj
 0002:000025ac       ??_C@_03MKABNOCG@Dec?$AA@  1002b5ac     format.obj
 0002:000025b0       ??_C@_03JPJOFNIA@Nov?$AA@  1002b5b0     format.obj
 0002:000025b4       ??_C@_03BMAOKBAD@Oct?$AA@  1002b5b4     format.obj
 0002:000025b8       ??_C@_03GGCAPAJC@Sep?$AA@  1002b5b8     format.obj
 0002:000025bc       ??_C@_03IFJFEIGA@Aug?$AA@  1002b5bc     format.obj
 0002:000025c0       ??_C@_03LBGABGKK@Jul?$AA@  1002b5c0     format.obj
 0002:000025c4       ??_C@_03IDFGHECI@Jun?$AA@  1002b5c4     format.obj
 0002:000025c8       ??_C@_03CNMDKL@May?$AA@    1002b5c8     format.obj
 0002:000025cc       ??_C@_03LEOLGMJP@Apr?$AA@  1002b5cc     format.obj
 0002:000025d0       ??_C@_03ODNJBKGA@Mar?$AA@  1002b5d0     format.obj
 0002:000025d4       ??_C@_03HJBDCHOM@Feb?$AA@  1002b5d4     format.obj
 0002:000025d8       ??_C@_03JIHJHPIE@Jan?$AA@  1002b5d8     format.obj
 0002:000025dc       ??_C@_08INBOOONO@Saturday?$AA@ 1002b5dc     format.obj
 0002:000025e8       ??_C@_06JECMNKMI@Friday?$AA@ 1002b5e8     format.obj
 0002:000025f0       ??_C@_08HACCIKIA@Thursday?$AA@ 1002b5f0     format.obj
 0002:000025fc       ??_C@_09DLIGFAKA@Wednesday?$AA@ 1002b5fc     format.obj
 0002:00002608       ??_C@_07BAAGCFCM@Tuesday?$AA@ 1002b608     format.obj
 0002:00002610       ??_C@_06JLEDEDGH@Monday?$AA@ 1002b610     format.obj
 0002:00002618       ??_C@_06OOPIFAJ@Sunday?$AA@ 1002b618     format.obj
 0002:00002620       ??_C@_03FEFJNEK@Sat?$AA@   1002b620     format.obj
 0002:00002624       ??_C@_03IDIOELNC@Fri?$AA@  1002b624     format.obj
 0002:00002628       ??_C@_03IOFIKPDN@Thu?$AA@  1002b628     format.obj
 0002:0000262c       ??_C@_03MHOMLAJA@Wed?$AA@  1002b62c     format.obj
 0002:00002630       ??_C@_03NAGEINEP@Tue?$AA@  1002b630     format.obj
 0002:00002634       ??_C@_03PDAGKDH@Mon?$AA@   1002b634     format.obj
 0002:00002638       ??_C@_03KOEHGMDN@Sun?$AA@  1002b638     format.obj
 0002:0000263c       ??_C@_02CJNFDJBF@PM?$AA@   1002b63c     format.obj
 0002:00002640       ??_C@_02DEDBPAFC@AM?$AA@   1002b640     format.obj
 0002:00002678       __real@4024000000000000    1002b678     format.obj
 0002:00002680       ??_C@_05DJELGIKI@?5l?1l?5?$AA@ 1002b680     format.obj
 0002:00002688       ??_C@_02FCBLNKNB@ss?$AA@   1002b688     format.obj
 0002:0000268c       ??_C@_02PDIHAGKM@ii?$AA@   1002b68c     format.obj
 0002:00002690       ??_C@_01BDACAMKP@h?$AA@    1002b690     format.obj
 0002:00002694       ??_C@_02OLFOFNNK@hh?$AA@   1002b694     format.obj
 0002:00002698       ??_C@_04EJAHDLCA@l?1l?5?$AA@ 1002b698     format.obj
 0002:000026a0       ??_C@_0O@GPJLINFI@h?3mm?3ss?5AM?1PM?$AA@ 1002b6a0     format.obj
 0002:000026b0       ??_C@_02KEGNLNML@?0?5?$AA@ 1002b6b0     format.obj
 0002:000026b4       ??_C@_01LPLHEDKD@d?$AA@    1002b6b4     format.obj
 0002:000026b8       ??_C@_04MAKOPGFN@Mmmm?$AA@ 1002b6b8     format.obj
 0002:000026c0       ??_C@_01CLKCMJKC@?5?$AA@   1002b6c0     format.obj
 0002:000026c4       ??_C@_04HOPFPECK@yyyy?$AA@ 1002b6c4     format.obj
 0002:000026cc       ??_C@_06DNJHBGFI@Dddd?0?5?$AA@ 1002b6cc     format.obj
 0002:000026d4       ??_C@_0BD@ONPBNIFH@Dddd?0?5Mmmm?5d?0?5yyyy?$AA@ 1002b6d4     format.obj
 0002:000026e8       ??_C@_02EOPBOLLC@dd?$AA@   1002b6e8     format.obj
 0002:000026ec       ??_C@_01GOHFPIOK@m?$AA@    1002b6ec     format.obj
 0002:000026f0       ??_C@_02JAOCGLHE@mm?$AA@   1002b6f0     format.obj
 0002:000026f4       ??_C@_03CHJJONJK@Mmm?$AA@  1002b6f4     format.obj
 0002:000026f8       ??_C@_02KFGDLHIN@yy?$AA@   1002b6f8     format.obj
 0002:000026fc       ??_C@_03IKFAIPNI@MMM?$AA@  1002b6fc     format.obj
 0002:00002700       ??_C@_06EPDGEFMC@m?1d?1yy?$AA@ 1002b700     format.obj
 0002:00002708       __real@4038000000000000    1002b708     format.obj
 0002:00002710       __real@404e000000000000    1002b710     format.obj
 0002:00002718       __real@3f847ae147ae147b    1002b718     format.obj
 0002:00002720       ??_C@_03BABANCEJ@?$CFle?$AA@ 1002b720     format.obj
 0002:00002724       ??_C@_03EBAPMIKO@a?1p?$AA@ 1002b724     format.obj
 0002:00002728       ??_C@_03HELJEDDC@A?1P?$AA@ 1002b728     format.obj
 0002:0000272c       ??_C@_05JAMEPDIN@am?1pm?$AA@ 1002b72c     format.obj
 0002:00002734       ??_C@_05PLGALLPN@AM?1PM?$AA@ 1002b734     format.obj
 0002:0000273c       ??_C@_04OLCCLKFI@?$FLUS?$FN?$AA@ 1002b73c     format.obj
 0002:00002744       ??_C@_0CA@OBLCICEK@Failed?5to?5acquire?5mutex?5object?4?$AA@ 1002b744     Mutex.obj
 0002:00002764       ??_C@_0CG@JDJOGFLA@Execution?5is?5terminating?5or?5abor@ 1002b764     Mutex.obj
 0002:0000278c       ??_C@_0BP@ENLKPNJL@Failed?5to?5create?5mutex?5object?4?$AA@ 1002b78c     Mutex.obj
 0002:000027ac       ??_C@_02NJNOFBBI@?$CFx?$AA@ 1002b7ac     Mutex.obj
 0002:000027b4       ??_7?$CList@PAVCKeyItem@@PAV1@@@6B@ 1002b7b4     Statement.obj
 0002:000027cc       ??_7?$CList@PAVCLastKeyList@@PAV1@@@6B@ 1002b7cc     Statement.obj
 0002:000027e4       ??_7?$CList@PAVCDbColumn@@PAV1@@@6B@ 1002b7e4     Statement.obj
 0002:000027fc       ??_7?$CList@V?$CStringT@DV?$StrTraitMFC_DLL@DV?$ChTraitsCRT@D@ATL@@@@@ATL@@AAV12@@@6B@ 1002b7fc     Statement.obj
 0002:00002814       ??_7ADOLoggingObject_Command@@6B@ 1002b814     Statement.obj
 0002:00002834       ??_7ADOLoggingObject_Recordset@@6B@ 1002b834     Statement.obj
 0002:00002850       ??_C@_0CB@PCHMCEFK@Err_ErrorOccurredForRefStatement@ 1002b850     Statement.obj
 0002:00002874       ??_C@_0BO@JCBNKKDA@Err_ErrorOccurredForStatement?$AA@ 1002b874     Statement.obj
 0002:00002894       ??_C@_04DNBLPLBL@?$CFs?$DN?$DP?$AA@ 1002b894     Statement.obj
 0002:0000289c       ??_C@_07HEBAGGGB@?5WHERE?5?$AA@ 1002b89c     Statement.obj
 0002:000028a4       ??_C@_05LDGJLJLJ@?$CFs?$DN?$DP?0?$AA@ 1002b8a4     Statement.obj
 0002:000028ac       ??_C@_05GENJOELA@?5SET?5?$AA@ 1002b8ac     Statement.obj
 0002:000028b4       ??_C@_04LKBMIHC@INTO?$AA@  1002b8b4     Statement.obj
 0002:000028bc       ??_C@_07PCCOPOHM@UPDATE?5?$AA@ 1002b8bc     Statement.obj
 0002:000028c4       ??_C@_02BGLIOPOO@?$DP?0?$AA@ 1002b8c4     Statement.obj
 0002:000028c8       ??_C@_0L@DBNIBPGI@?$CJ?5VALUES?5?$CI?$AA@ 1002b8c8     Statement.obj
 0002:000028d4       ??_C@_02GFKOMOKH@?5?$CI?$AA@ 1002b8d4     Statement.obj
 0002:000028d8       ??_C@_01IHBHIGKO@?0?$AA@   1002b8d8     Statement.obj
 0002:000028dc       ??_C@_01OGPIMHDM@?$DP?$AA@ 1002b8dc     Statement.obj
 0002:000028e0       ??_C@_06GAIFCOKB@VALUES?$AA@ 1002b8e0     Statement.obj
 0002:000028e8       ??_C@_01PKGAHCOL@?$CJ?$AA@ 1002b8e8     Statement.obj
 0002:000028ec       ??_C@_01ODHLEDKK@?$CI?$AA@ 1002b8ec     Statement.obj
 0002:000028f0       ??_C@_06OEMEAEKN@INSERT?$AA@ 1002b8f0     Statement.obj
 0002:000028f8       ??_C@_1BE@FDKEOJEO@?$AAC?$AAo?$AAn?$AAt?$AAa?$AAi?$AAn?$AAe?$AAr?$AA?$AA@ 1002b8f8     Statement.obj
 0002:0000290c       ??_C@_1BE@DGADKNEO@?$AAR?$AAe?$AAf?$AAe?$AAr?$AAe?$AAn?$AAc?$AAe?$AA?$AA@ 1002b90c     Statement.obj
 0002:00002920       ??_C@_1O@DHFHAMFF@?$AAN?$AAu?$AAm?$AAb?$AAe?$AAr?$AA?$AA@ 1002b920     Statement.obj
 0002:00002930       ??_C@_1O@PLHFJNFA@?$AAS?$AAt?$AAr?$AAi?$AAn?$AAg?$AA?$AA@ 1002b930     Statement.obj
 0002:00002940       ??_C@_1BA@HBJELJHL@?$AAB?$AAo?$AAo?$AAl?$AAe?$AAa?$AAn?$AA?$AA@ 1002b940     Statement.obj
 0002:00002950       ??_C@_1BI@GILLDJOP@?$AAT?$AAS?$AA?4?$AAS?$AAt?$AAe?$AAp?$AAT?$AAy?$AAp?$AAe?$AA?$AA@ 1002b950     Statement.obj
 0002:00002968       ??_C@_08KAIHKEOI@ArrayOf?$CI?$AA@ 1002b968     Statement.obj
 0002:00002974       ??_C@_01GEODFPGF@?8?$AA@   1002b974     Statement.obj
 0002:00002978       ??_C@_01NEMOKFLO@?$DN?$AA@ 1002b978     Statement.obj
 0002:0000297c       ??_C@_1CO@HIBCGGKI@?$AAT?$AAS?$AA?4?$AAS?$AAe?$AAq?$AAu?$AAe?$AAn?$AAc?$AAe?$AAC?$AAa?$AAl?$AAl?$AA?4?$AAS?$AAt?$AAa?$AAt?$AAu?$AAs?$AA?$AA@ 1002b97c     Statement.obj
 0002:000029ac       ??_C@_1BA@LBOGFGFB@?$AAA?$AAs?$AAy?$AAn?$AAc?$AAI?$AAd?$AA?$AA@ 1002b9ac     Statement.obj
 0002:000029bc       ??_C@_07IBCCJKML@Columns?$AA@ 1002b9bc     Statement.obj
 0002:000029c4       ??_C@_0BA@IKFKONOD@TraverseOptions?$AA@ 1002b9c4     Statement.obj
 0002:000029d4       ??_C@_08GHCJHBBL@LockType?$AA@ 1002b9d4     Statement.obj
 0002:000029e0       ??_C@_0L@JLPDODGI@CursorType?$AA@ 1002b9e0     Statement.obj
 0002:000029ec       ??_C@_0P@JPJIGBJF@CursorLocation?$AA@ 1002b9ec     Statement.obj
 0002:000029fc       ??_C@_0L@NHODNFNO@TypesToLog?$AA@ 1002b9fc     Statement.obj
 0002:00002a08       ??_C@_0L@OFIAJNMP@ResultType?$AA@ 1002ba08     Statement.obj
 0002:00002a14       ??_C@_0O@GLGGOLCN@StatementText?$AA@ 1002ba14     Statement.obj
 0002:00002a24       ??_C@_0O@CMGDHBKC@StatementType?$AA@ 1002ba24     Statement.obj
 0002:00002a38       ??_7?$CList@PAVStatement@@PAV1@@@6B@ 1002ba38     TSDatalink.obj
 0002:00002a4c       ??_C@_01LFCBOECM@?4?$AA@   1002ba4c     TSDatalink.obj
 0002:00002a50       ??_C@_1BK@OKGNNLED@?$AA?$FL?$AAP?$AAa?$AAr?$AAa?$AAm?$AAe?$AAt?$AAe?$AAr?$AAs?$AA?$FN?$AA?$AA@ 1002ba50     TSDatalink.obj
 0002:00002a6c       ??_C@_1CE@GJCBMDPD@?$AAA?$AAd?$AAd?$AAi?$AAt?$AAi?$AAo?$AAn?$AAa?$AAl?$AAR?$AAe?$AAs?$AAu?$AAl?$AAt?$AAs?$AA?$AA@ 1002ba6c     TSDatalink.obj
 0002:00002a90       ??_C@_15JKLEPB@?$AAT?$AAS?$AA?$AA@ 1002ba90     TSDatalink.obj
 0002:00002a98       ??_C@_1O@EPGKAHO@?$AAC?$AAo?$AAm?$AAm?$AAo?$AAn?$AA?$AA@ 1002ba98     TSDatalink.obj
 0002:00002aa8       ??_C@_1BG@GHOHENAH@?$AAR?$AAe?$AAp?$AAo?$AAr?$AAt?$AAT?$AAe?$AAx?$AAt?$AA?$AA@ 1002baa8     TSDatalink.obj
 0002:00002ac0       ??_C@_1O@GGDILBNB@?$AAS?$AAt?$AAa?$AAt?$AAu?$AAs?$AA?$AA@ 1002bac0     TSDatalink.obj
 0002:00002ad0       ??_C@_1M@ILHOPKA@?$AAE?$AAr?$AAr?$AAo?$AAr?$AA?$AA@ 1002bad0     TSDatalink.obj
 0002:00002adc       ??_C@_0BA@GPGMPIFO@Transaction?5DDL?$AA@ 1002badc     TSDatalink.obj
 0002:00002aec       ??_C@_0BD@IODPJKFF@UseOnTheFlyLogging?$AA@ 1002baec     TSDatalink.obj
 0002:00002b00       ??_C@_0N@KNIMGKGJ@ShareHandles?$AA@ 1002bb00     TSDatalink.obj
 0002:00002b10       ??_C@_0BJ@JMICAKHM@UseTransactionProcessing?$AA@ 1002bb10     TSDatalink.obj
 0002:00002b2c       ??_C@_0BJ@GCKGLKI@DatabaseManagementSystem?$AA@ 1002bb2c     TSDatalink.obj
 0002:00002b48       ??_C@_0N@LOHJJBIL@IncludeTimes?$AA@ 1002bb48     TSDatalink.obj
 0002:00002b58       ??_C@_0BE@IJCEMGJB@IncludeOutputValues?$AA@ 1002bb58     TSDatalink.obj
 0002:00002b6c       ??_C@_0O@GFGOHCJI@IncludeLimits?$AA@ 1002bb6c     TSDatalink.obj
 0002:00002b7c       ??_C@_0BD@NDFAECGG@IncludeStepResults?$AA@ 1002bb7c     TSDatalink.obj
 0002:00002b90       ??_C@_0BN@HHIDFAFG@Provider?$DNMicrosoft?4Jet?4OLEDB?$AA@ 1002bb90     TSDatalink.obj
 0002:00002bb0       ??_C@_0BN@DANKOPNJ@Err_ErrorOccurredForDataLink?$AA@ 1002bbb0     TSDatalink.obj
 0002:00002bd0       ??_C@_0BK@FGFGOEMK@DatabaseSchema?4Statements?$AA@ 1002bbd0     TSDatalink.obj
 0002:00002bec       ??_C@_0BE@PAGGPMGO@DatabaseSchema?4Name?$AA@ 1002bbec     TSDatalink.obj
 0002:00002c00       ??_C@_01ICJEACDI@?$DL?$AA@ 1002bc00     TSDatalink.obj
 0002:00002c04       ??_C@_0L@HLEKCJED@FILE?5NAME?$DN?$AA@ 1002bc04     TSDatalink.obj
 0002:00002c10       ??_C@_0BB@CBIJNEKD@ConnectionString?$AA@ 1002bc10     TSDatalink.obj
 0002:00002c28       __real@4004000000000000    1002bc28     TSDatalink.obj
 0002:00002c30       ??_C@_01GFHCPBMG@C?$AA@    1002bc30     TSDatalink.obj
 0002:00002c34       ??_C@_01LBDDMOBJ@?$FN?$AA@ 1002bc34     TSDatalink.obj
 0002:00002c38       ??_C@_01OHGJGJJP@?$FL?$AA@ 1002bc38     TSDatalink.obj
 0002:00002c3c       ??_C@_0L@PJJKMLL@Connection?$AA@ 1002bc3c     TSDatalink.obj
 0002:00002c48       __GUID_00000514_0000_0010_8000_00aa006d2ea4 1002bc48     TSDatalink.obj
 0002:00002c58       ??_C@_1DC@PGHEJIBH@?$AAT?$AAS?$AA?4?$AAP?$AAo?$AAs?$AAt?$AAA?$AAc?$AAt?$AAi?$AAo?$AAn?$AA?4?$AAR?$AAe?$AAs?$AAu?$AAl?$AAt?$AAL?$AAi?$AAs?$AAt?$AA?$AA@ 1002bc58     TSDatalink.obj
 0002:00002c8c       ??_C@_1DG@JPFBOBGI@?$AAT?$AAS?$AA?4?$AAS?$AAe?$AAq?$AAu?$AAe?$AAn?$AAc?$AAe?$AAC?$AAa?$AAl?$AAl?$AA?4?$AAR?$AAe?$AAs?$AAu?$AAl?$AAt?$AAL?$AAi?$AAs?$AAt?$AA?$AA@ 1002bc8c     TSDatalink.obj
 0002:00002cc8       __real@4008000000000000    1002bcc8     TSDatalink.obj
 0002:00002cd0       ??_C@_0BL@DONIAKKC@Err_ErrorOccurredForSchema?$AA@ 1002bcd0     TSDatalink.obj
 0002:00002cf0       __real@4059000000000000    1002bcf0     TSDatalink.obj
 0002:00002cf8       __real@4000000000000000    1002bcf8     TSDatalink.obj
 0002:00002d00       ??_C@_0BK@IEOKDGHA@TSDBLog_Transaction_Mutex?$AA@ 1002bd00     TSDatalink.obj
 0002:00002d1c       ??_C@_08IDOKEHDL@Datalink?$AA@ 1002bd1c     TSDBLog.obj
 0002:00002d28       __GUID_3bba9221_6d15_11d3_8de1_006097053485 1002bd28     TSDBLog.obj
 0002:00002d38       ??_C@_08NJIFGBLN@CUSTOM?3?3?$AA@ 1002bd38     TSDBLog.obj
 0002:00002d44       ??_C@_0BA@EOAFPANC@LastChangeCount?$AA@ 1002bd44     TSDBLog.obj
 0002:00002d54       ??_C@_0M@EHLBEGFN@ChangeCount?$AA@ 1002bd54     TSDBLog.obj
 0002:00002d60       ??_C@_07FHIDPLCL@TSDBLog?$AA@ 1002bd60     TSDBLog.obj
 0002:00002d68       ??_C@_0BK@LMCPJFNC@TSDatabaseLoggingDatalink?$AA@ 1002bd68     TSDBLog.obj
 0002:00002d88       ??_C@_0GI@JIPOECDB@FindAndReplace?$CIParameters?4Databa@ 1002bd88     TSDBLog.obj
 0002:00002df0       _CLSID_StdGlobalInterfaceTable 1002bdf0     uuid:cguid_i.obj
 0002:00002e00       _IID_IErrorInfo            1002be00     uuid:oaidl_i.obj
 0002:00002e10       ??_C@_06JBKGCNBB@Delete?$AA@ 1002be10     mfcs100:nolib.obj
 0002:00002e18       ??_C@_08KAAPDIAN@NoRemove?$AA@ 1002be18     mfcs100:nolib.obj
 0002:00002e24       ??_C@_0M@DBGDLGLL@ForceRemove?$AA@ 1002be24     mfcs100:nolib.obj
 0002:00002e30       ??_C@_03LAIAPFCB@Val?$AA@  1002be30     mfcs100:nolib.obj
 0002:00002e34       ??_C@_01HMGJMAIH@B?$AA@    1002be34     mfcs100:nolib.obj
 0002:00002e38       ??_C@_01CKDDGHAB@D?$AA@    1002be38     mfcs100:nolib.obj
 0002:00002e3c       ??_C@_01PLPBNMEI@M?$AA@    1002be3c     mfcs100:nolib.obj
 0002:00002e40       ??_C@_01CPLAODJH@S?$AA@    1002be40     mfcs100:nolib.obj
 0002:00002e84       __pActualRawDllMain        1002be84     mfcs100:dllmodul.obj
 0002:00002e8c       ??_7_AFX_DLL_MODULE_STATE@@6B@ 1002be8c     mfcs100:dllmodul.obj
 0002:00002ed4       ??_7type_info@@6B@         1002bed4     msvcrt:ti_inst.obj
 0002:00002ed8       __pDefaultRawDllMain       1002bed8     msvcrt:crtdll.obj
 0002:00002ee4       _GUID_ATLVer30             1002bee4     atls:atlbase.obj
 0002:00002ef4       _GUID_ATLVer70             1002bef4     atls:atlbase.obj
 0002:00002f04       _GUID_ATLVer100            1002bf04     atls:atlbase.obj
 0002:00002f14       __pRawDllMain              1002bf14     mfcs100:rawdllmainproxy.obj
 0002:00002f18       __load_config_used         1002bf18     msvcrt:loadcfg.obj
 0002:00002ff8       ??_R4bad_alloc@std@@6B@    1002bff8     Columns.obj
 0002:0000300c       ??_R3bad_alloc@std@@8      1002c00c     Columns.obj
 0002:0000301c       ??_R2bad_alloc@std@@8      1002c01c     Columns.obj
 0002:00003028       ??_R1A@?0A@EA@bad_alloc@std@@8 1002c028     Columns.obj
 0002:00003044       ??_R1A@?0A@EA@exception@std@@8 1002c044     Columns.obj
 0002:00003060       ??_R3exception@std@@8      1002c060     Columns.obj
 0002:00003070       ??_R2exception@std@@8      1002c070     Columns.obj
 0002:00003078       ??_R4_SafeArrayBase@TSUTIL@@6B@ 1002c078     Columns.obj
 0002:0000308c       ??_R3_SafeArrayBase@TSUTIL@@8 1002c08c     Columns.obj
 0002:0000309c       ??_R2_SafeArrayBase@TSUTIL@@8 1002c09c     Columns.obj
 0002:000030a4       ??_R1A@?0A@EA@_SafeArrayBase@TSUTIL@@8 1002c0a4     Columns.obj
 0002:000030c0       ??_R4_com_error@@6B@       1002c0c0     Columns.obj
 0002:000030d4       ??_R3_com_error@@8         1002c0d4     Columns.obj
 0002:000030e4       ??_R2_com_error@@8         1002c0e4     Columns.obj
 0002:000030ec       ??_R1A@?0A@EA@_com_error@@8 1002c0ec     Columns.obj
 0002:00003108       ??_R4?$SafeArray@PA_W$07@TSUTIL@@6B@ 1002c108     Columns.obj
 0002:0000311c       ??_R3?$SafeArray@PA_W$07@TSUTIL@@8 1002c11c     Columns.obj
 0002:0000312c       ??_R2?$SafeArray@PA_W$07@TSUTIL@@8 1002c12c     Columns.obj
 0002:00003138       ??_R1A@?0A@EA@?$SafeArray@PA_W$07@TSUTIL@@8 1002c138     Columns.obj
 0002:00003154       ??_R4CDBLogApp@@6B@        1002c154     DBLog.obj
 0002:00003168       ??_R3CDBLogApp@@8          1002c168     DBLog.obj
 0002:00003178       ??_R2CDBLogApp@@8          1002c178     DBLog.obj
 0002:00003190       ??_R1A@?0A@EA@CDBLogApp@@8 1002c190     DBLog.obj
 0002:000031ac       ??_R1A@?0A@EA@CWinApp@@8   1002c1ac     DBLog.obj
 0002:000031c8       ??_R3CWinApp@@8            1002c1c8     DBLog.obj
 0002:000031d8       ??_R2CWinApp@@8            1002c1d8     DBLog.obj
 0002:000031ec       ??_R1A@?0A@EA@CWinThread@@8 1002c1ec     DBLog.obj
 0002:00003208       ??_R3CWinThread@@8         1002c208     DBLog.obj
 0002:00003218       ??_R2CWinThread@@8         1002c218     DBLog.obj
 0002:00003228       ??_R1A@?0A@EA@CCmdTarget@@8 1002c228     DBLog.obj
 0002:00003244       ??_R3CCmdTarget@@8         1002c244     DBLog.obj
 0002:00003254       ??_R2CCmdTarget@@8         1002c254     DBLog.obj
 0002:00003260       ??_R1A@?0A@EA@CObject@@8   1002c260     DBLog.obj
 0002:0000327c       ??_R3CObject@@8            1002c27c     DBLog.obj
 0002:0000328c       ??_R2CObject@@8            1002c28c     DBLog.obj
 0002:00003294       ??_R4?$CComObject@VCTSDatalink@@@ATL@@6BISupportErrorInfo@@@ 1002c294     DBLog.obj
 0002:000032a8       ??_R3?$CComObject@VCTSDatalink@@@ATL@@8 1002c2a8     DBLog.obj
 0002:000032b8       ??_R2?$CComObject@VCTSDatalink@@@ATL@@8 1002c2b8     DBLog.obj
 0002:000032e8       ??_R1A@?0A@EA@?$CComObject@VCTSDatalink@@@ATL@@8 1002c2e8     DBLog.obj
 0002:00003304       ??_R1A@?0A@EA@CTSDatalink@@8 1002c304     DBLog.obj
 0002:00003320       ??_R3CTSDatalink@@8        1002c320     DBLog.obj
 0002:00003330       ??_R2CTSDatalink@@8        1002c330     DBLog.obj
 0002:0000335c       ??_R17?0A@EA@?$CComObjectRootEx@VCComMultiThreadModel@ATL@@@ATL@@8 1002c35c     DBLog.obj
 0002:00003378       ??_R3?$CComObjectRootEx@VCComMultiThreadModel@ATL@@@ATL@@8 1002c378     DBLog.obj
 0002:00003388       ??_R2?$CComObjectRootEx@VCComMultiThreadModel@ATL@@@ATL@@8 1002c388     DBLog.obj
 0002:00003394       ??_R1A@?0A@EA@?$CComObjectRootEx@VCComMultiThreadModel@ATL@@@ATL@@8 1002c394     DBLog.obj
 0002:000033b0       ??_R1A@?0A@EA@CComObjectRootBase@ATL@@8 1002c3b0     DBLog.obj
 0002:000033cc       ??_R3CComObjectRootBase@ATL@@8 1002c3cc     DBLog.obj
 0002:000033dc       ??_R2CComObjectRootBase@ATL@@8 1002c3dc     DBLog.obj
 0002:000033e4       ??_R17?0A@EA@CComObjectRootBase@ATL@@8 1002c3e4     DBLog.obj
 0002:00003400       ??_R1CI@?0A@EA@?$CComCoClass@VCTSDatalink@@$1?CLSID_TSDatalink@@3U_GUID@@B@ATL@@8 1002c400     DBLog.obj
 0002:0000341c       ??_R3?$CComCoClass@VCTSDatalink@@$1?CLSID_TSDatalink@@3U_GUID@@B@ATL@@8 1002c41c     DBLog.obj
 0002:0000342c       ??_R2?$CComCoClass@VCTSDatalink@@$1?CLSID_TSDatalink@@3U_GUID@@B@ATL@@8 1002c42c     DBLog.obj
 0002:00003434       ??_R1A@?0A@EA@?$CComCoClass@VCTSDatalink@@$1?CLSID_TSDatalink@@3U_GUID@@B@ATL@@8 1002c434     DBLog.obj
 0002:00003450       ??_R1A@?0A@EA@ISupportErrorInfo@@8 1002c450     DBLog.obj
 0002:0000346c       ??_R3ISupportErrorInfo@@8  1002c46c     DBLog.obj
 0002:0000347c       ??_R2ISupportErrorInfo@@8  1002c47c     DBLog.obj
 0002:00003488       ??_R1A@?0A@EA@IUnknown@@8  1002c488     DBLog.obj
 0002:000034a4       ??_R3IUnknown@@8           1002c4a4     DBLog.obj
 0002:000034b4       ??_R2IUnknown@@8           1002c4b4     DBLog.obj
 0002:000034bc       ??_R1A@?0A@EC@IUnknown@@8  1002c4bc     DBLog.obj
 0002:000034d8       ??_R13?0A@EA@?$IDispatchImpl@UITSDatalink@@$1?IID_ITSDatalink@@3U_GUID@@B$1?LIBID_DBLOGLib@@3U3@B$00$0A@VCComTypeInfoHolder@ATL@@@ATL@@8 1002c4d8     DBLog.obj
 0002:000034f4       ??_R3?$IDispatchImpl@UITSDatalink@@$1?IID_ITSDatalink@@3U_GUID@@B$1?LIBID_DBLOGLib@@3U3@B$00$0A@VCComTypeInfoHolder@ATL@@@ATL@@8 1002c4f4     DBLog.obj
 0002:00003504       ??_R2?$IDispatchImpl@UITSDatalink@@$1?IID_ITSDatalink@@3U_GUID@@B$1?LIBID_DBLOGLib@@3U3@B$00$0A@VCComTypeInfoHolder@ATL@@@ATL@@8 1002c504     DBLog.obj
 0002:00003518       ??_R1A@?0A@EA@?$IDispatchImpl@UITSDatalink@@$1?IID_ITSDatalink@@3U_GUID@@B$1?LIBID_DBLOGLib@@3U3@B$00$0A@VCComTypeInfoHolder@ATL@@@ATL@@8 1002c518     DBLog.obj
 0002:00003534       ??_R1A@?0A@EA@ITSDatalink@@8 1002c534     DBLog.obj
 0002:00003550       ??_R3ITSDatalink@@8        1002c550     DBLog.obj
 0002:00003560       ??_R2ITSDatalink@@8        1002c560     DBLog.obj
 0002:00003570       ??_R1A@?0A@EA@IDispatch@@8 1002c570     DBLog.obj
 0002:0000358c       ??_R3IDispatch@@8          1002c58c     DBLog.obj
 0002:0000359c       ??_R2IDispatch@@8          1002c59c     DBLog.obj
 0002:000035a8       ??_R13?0A@EA@ITSDatalink@@8 1002c5a8     DBLog.obj
 0002:000035c4       ??_R13?0A@EA@IDispatch@@8  1002c5c4     DBLog.obj
 0002:000035e0       ??_R13?0A@EC@IUnknown@@8   1002c5e0     DBLog.obj
 0002:000035fc       ??_R4?$CComObject@VCTSDatalink@@@ATL@@6B?$IDispatchImpl@UITSDatalink@@$1?IID_ITSDatalink@@3U_GUID@@B$1?LIBID_DBLOGLib@@3U3@B$00$0A@VCComTypeInfoHolder@ATL@@@1@@ 1002c5fc     DBLog.obj
 0002:00003610       ??_R4?$CComContainedObject@VCTSDatalink@@@ATL@@6BISupportErrorInfo@@@ 1002c610     DBLog.obj
 0002:00003624       ??_R3?$CComContainedObject@VCTSDatalink@@@ATL@@8 1002c624     DBLog.obj
 0002:00003634       ??_R2?$CComContainedObject@VCTSDatalink@@@ATL@@8 1002c634     DBLog.obj
 0002:00003664       ??_R1A@?0A@EA@?$CComContainedObject@VCTSDatalink@@@ATL@@8 1002c664     DBLog.obj
 0002:00003680       ??_R4?$CComContainedObject@VCTSDatalink@@@ATL@@6B?$IDispatchImpl@UITSDatalink@@$1?IID_ITSDatalink@@3U_GUID@@B$1?LIBID_DBLOGLib@@3U3@B$00$0A@VCComTypeInfoHolder@ATL@@@1@@ 1002c680     DBLog.obj
 0002:00003694       ??_R4CComClassFactory@ATL@@6B@ 1002c694     DBLog.obj
 0002:000036a8       ??_R3CComClassFactory@ATL@@8 1002c6a8     DBLog.obj
 0002:000036b8       ??_R2CComClassFactory@ATL@@8 1002c6b8     DBLog.obj
 0002:000036d0       ??_R1A@?0A@EA@CComClassFactory@ATL@@8 1002c6d0     DBLog.obj
 0002:000036ec       ??_R1A@?0A@EA@IClassFactory@@8 1002c6ec     DBLog.obj
 0002:00003708       ??_R3IClassFactory@@8      1002c708     DBLog.obj
 0002:00003718       ??_R2IClassFactory@@8      1002c718     DBLog.obj
 0002:00003724       ??_R13?0A@EA@?$CComObjectRootEx@VCComMultiThreadModel@ATL@@@ATL@@8 1002c724     DBLog.obj
 0002:00003740       ??_R13?0A@EA@CComObjectRootBase@ATL@@8 1002c740     DBLog.obj
 0002:0000375c       ??_R4?$CComAggObject@VCTSDatalink@@@ATL@@6B@ 1002c75c     DBLog.obj
 0002:00003770       ??_R3?$CComAggObject@VCTSDatalink@@@ATL@@8 1002c770     DBLog.obj
 0002:00003780       ??_R2?$CComAggObject@VCTSDatalink@@@ATL@@8 1002c780     DBLog.obj
 0002:00003794       ??_R1A@?0A@EA@?$CComAggObject@VCTSDatalink@@@ATL@@8 1002c794     DBLog.obj
 0002:000037b0       ??_R13?0A@EA@?$CComObjectRootEx@VCComMultiThreadModelNoCS@ATL@@@ATL@@8 1002c7b0     DBLog.obj
 0002:000037cc       ??_R3?$CComObjectRootEx@VCComMultiThreadModelNoCS@ATL@@@ATL@@8 1002c7cc     DBLog.obj
 0002:000037dc       ??_R2?$CComObjectRootEx@VCComMultiThreadModelNoCS@ATL@@@ATL@@8 1002c7dc     DBLog.obj
 0002:000037e8       ??_R1A@?0A@EA@?$CComObjectRootEx@VCComMultiThreadModelNoCS@ATL@@@ATL@@8 1002c7e8     DBLog.obj
 0002:00003804       ??_R4CComModule@ATL@@6B@   1002c804     DBLog.obj
 0002:00003818       ??_R3CComModule@ATL@@8     1002c818     DBLog.obj
 0002:00003828       ??_R2CComModule@ATL@@8     1002c828     DBLog.obj
 0002:0000383c       ??_R1A@?0A@EA@CComModule@ATL@@8 1002c83c     DBLog.obj
 0002:00003858       ??_R1A@?0A@EA@?$CAtlModuleT@VCComModule@ATL@@@ATL@@8 1002c858     DBLog.obj
 0002:00003874       ??_R3?$CAtlModuleT@VCComModule@ATL@@@ATL@@8 1002c874     DBLog.obj
 0002:00003884       ??_R2?$CAtlModuleT@VCComModule@ATL@@@ATL@@8 1002c884     DBLog.obj
 0002:00003894       ??_R1A@?0A@EA@CAtlModule@ATL@@8 1002c894     DBLog.obj
 0002:000038b0       ??_R3CAtlModule@ATL@@8     1002c8b0     DBLog.obj
 0002:000038c0       ??_R2CAtlModule@ATL@@8     1002c8c0     DBLog.obj
 0002:000038cc       ??_R13?0A@EA@_ATL_MODULE70@ATL@@8 1002c8cc     DBLog.obj
 0002:000038e8       ??_R3_ATL_MODULE70@ATL@@8  1002c8e8     DBLog.obj
 0002:000038f8       ??_R2_ATL_MODULE70@ATL@@8  1002c8f8     DBLog.obj
 0002:00003900       ??_R1A@?0A@EA@_ATL_MODULE70@ATL@@8 1002c900     DBLog.obj
 0002:0000391c       ??_R4?$CComObjectCached@VCComClassFactory@ATL@@@ATL@@6B@ 1002c91c     DBLog.obj
 0002:00003930       ??_R3?$CComObjectCached@VCComClassFactory@ATL@@@ATL@@8 1002c930     DBLog.obj
 0002:00003940       ??_R2?$CComObjectCached@VCComClassFactory@ATL@@@ATL@@8 1002c940     DBLog.obj
 0002:0000395c       ??_R1A@?0A@EA@?$CComObjectCached@VCComClassFactory@ATL@@@ATL@@8 1002c95c     DBLog.obj
 0002:00003978       ??_R4?$CComObject@VCTSDBLog@@@ATL@@6BISupportErrorInfo@@@ 1002c978     DBLog.obj
 0002:0000398c       ??_R3?$CComObject@VCTSDBLog@@@ATL@@8 1002c98c     DBLog.obj
 0002:0000399c       ??_R2?$CComObject@VCTSDBLog@@@ATL@@8 1002c99c     DBLog.obj
 0002:000039cc       ??_R1A@?0A@EA@?$CComObject@VCTSDBLog@@@ATL@@8 1002c9cc     DBLog.obj
 0002:000039e8       ??_R1A@?0A@EA@CTSDBLog@@8  1002c9e8     DBLog.obj
 0002:00003a04       ??_R3CTSDBLog@@8           1002ca04     DBLog.obj
 0002:00003a14       ??_R2CTSDBLog@@8           1002ca14     DBLog.obj
 0002:00003a40       ??_R1CI@?0A@EA@?$CComCoClass@VCTSDBLog@@$1?CLSID_TSDBLog@@3U_GUID@@B@ATL@@8 1002ca40     DBLog.obj
 0002:00003a5c       ??_R3?$CComCoClass@VCTSDBLog@@$1?CLSID_TSDBLog@@3U_GUID@@B@ATL@@8 1002ca5c     DBLog.obj
 0002:00003a6c       ??_R2?$CComCoClass@VCTSDBLog@@$1?CLSID_TSDBLog@@3U_GUID@@B@ATL@@8 1002ca6c     DBLog.obj
 0002:00003a74       ??_R1A@?0A@EA@?$CComCoClass@VCTSDBLog@@$1?CLSID_TSDBLog@@3U_GUID@@B@ATL@@8 1002ca74     DBLog.obj
 0002:00003a90       ??_R13?0A@EA@?$IDispatchImpl@UITSDBLog@@$1?IID_ITSDBLog@@3U_GUID@@B$1?LIBID_DBLOGLib@@3U3@B$00$0A@VCComTypeInfoHolder@ATL@@@ATL@@8 1002ca90     DBLog.obj
 0002:00003aac       ??_R3?$IDispatchImpl@UITSDBLog@@$1?IID_ITSDBLog@@3U_GUID@@B$1?LIBID_DBLOGLib@@3U3@B$00$0A@VCComTypeInfoHolder@ATL@@@ATL@@8 1002caac     DBLog.obj
 0002:00003abc       ??_R2?$IDispatchImpl@UITSDBLog@@$1?IID_ITSDBLog@@3U_GUID@@B$1?LIBID_DBLOGLib@@3U3@B$00$0A@VCComTypeInfoHolder@ATL@@@ATL@@8 1002cabc     DBLog.obj
 0002:00003ad0       ??_R1A@?0A@EA@?$IDispatchImpl@UITSDBLog@@$1?IID_ITSDBLog@@3U_GUID@@B$1?LIBID_DBLOGLib@@3U3@B$00$0A@VCComTypeInfoHolder@ATL@@@ATL@@8 1002cad0     DBLog.obj
 0002:00003aec       ??_R1A@?0A@EA@ITSDBLog@@8  1002caec     DBLog.obj
 0002:00003b08       ??_R3ITSDBLog@@8           1002cb08     DBLog.obj
 0002:00003b18       ??_R2ITSDBLog@@8           1002cb18     DBLog.obj
 0002:00003b28       ??_R13?0A@EA@ITSDBLog@@8   1002cb28     DBLog.obj
 0002:00003b44       ??_R4?$CComObject@VCTSDBLog@@@ATL@@6B?$IDispatchImpl@UITSDBLog@@$1?IID_ITSDBLog@@3U_GUID@@B$1?LIBID_DBLOGLib@@3U3@B$00$0A@VCComTypeInfoHolder@ATL@@@1@@ 1002cb44     DBLog.obj
 0002:00003b58       ??_R4?$CComContainedObject@VCTSDBLog@@@ATL@@6BISupportErrorInfo@@@ 1002cb58     DBLog.obj
 0002:00003b6c       ??_R3?$CComContainedObject@VCTSDBLog@@@ATL@@8 1002cb6c     DBLog.obj
 0002:00003b7c       ??_R2?$CComContainedObject@VCTSDBLog@@@ATL@@8 1002cb7c     DBLog.obj
 0002:00003bac       ??_R1A@?0A@EA@?$CComContainedObject@VCTSDBLog@@@ATL@@8 1002cbac     DBLog.obj
 0002:00003bc8       ??_R4?$CComContainedObject@VCTSDBLog@@@ATL@@6B?$IDispatchImpl@UITSDBLog@@$1?IID_ITSDBLog@@3U_GUID@@B$1?LIBID_DBLOGLib@@3U3@B$00$0A@VCComTypeInfoHolder@ATL@@@1@@ 1002cbc8     DBLog.obj
 0002:00003bdc       ??_R4?$CComAggObject@VCTSDBLog@@@ATL@@6B@ 1002cbdc     DBLog.obj
 0002:00003bf0       ??_R3?$CComAggObject@VCTSDBLog@@@ATL@@8 1002cbf0     DBLog.obj
 0002:00003c00       ??_R2?$CComAggObject@VCTSDBLog@@@ATL@@8 1002cc00     DBLog.obj
 0002:00003c14       ??_R1A@?0A@EA@?$CComAggObject@VCTSDBLog@@@ATL@@8 1002cc14     DBLog.obj
 0002:00003c30       ??_R3ADOLoggingObject@@8   1002cc30     Statement.obj
 0002:00003c40       ??_R2ADOLoggingObject@@8   1002cc40     Statement.obj
 0002:00003c48       ??_R1A@?0A@EA@ADOLoggingObject@@8 1002cc48     Statement.obj
 0002:00003c64       ??_R4?$CList@PAVCKeyItem@@PAV1@@@6B@ 1002cc64     Statement.obj
 0002:00003c78       ??_R3?$CList@PAVCKeyItem@@PAV1@@@8 1002cc78     Statement.obj
 0002:00003c88       ??_R2?$CList@PAVCKeyItem@@PAV1@@@8 1002cc88     Statement.obj
 0002:00003c94       ??_R1A@?0A@EA@?$CList@PAVCKeyItem@@PAV1@@@8 1002cc94     Statement.obj
 0002:00003cb0       ??_R4?$CList@PAVCLastKeyList@@PAV1@@@6B@ 1002ccb0     Statement.obj
 0002:00003cc4       ??_R3?$CList@PAVCLastKeyList@@PAV1@@@8 1002ccc4     Statement.obj
 0002:00003cd4       ??_R2?$CList@PAVCLastKeyList@@PAV1@@@8 1002ccd4     Statement.obj
 0002:00003ce0       ??_R1A@?0A@EA@?$CList@PAVCLastKeyList@@PAV1@@@8 1002cce0     Statement.obj
 0002:00003cfc       ??_R4?$CList@PAVCDbColumn@@PAV1@@@6B@ 1002ccfc     Statement.obj
 0002:00003d10       ??_R3?$CList@PAVCDbColumn@@PAV1@@@8 1002cd10     Statement.obj
 0002:00003d20       ??_R2?$CList@PAVCDbColumn@@PAV1@@@8 1002cd20     Statement.obj
 0002:00003d2c       ??_R1A@?0A@EA@?$CList@PAVCDbColumn@@PAV1@@@8 1002cd2c     Statement.obj
 0002:00003d48       ??_R4?$CList@V?$CStringT@DV?$StrTraitMFC_DLL@DV?$ChTraitsCRT@D@ATL@@@@@ATL@@AAV12@@@6B@ 1002cd48     Statement.obj
 0002:00003d5c       ??_R3?$CList@V?$CStringT@DV?$StrTraitMFC_DLL@DV?$ChTraitsCRT@D@ATL@@@@@ATL@@AAV12@@@8 1002cd5c     Statement.obj
 0002:00003d6c       ??_R2?$CList@V?$CStringT@DV?$StrTraitMFC_DLL@DV?$ChTraitsCRT@D@ATL@@@@@ATL@@AAV12@@@8 1002cd6c     Statement.obj
 0002:00003d78       ??_R1A@?0A@EA@?$CList@V?$CStringT@DV?$StrTraitMFC_DLL@DV?$ChTraitsCRT@D@ATL@@@@@ATL@@AAV12@@@8 1002cd78     Statement.obj
 0002:00003d94       ??_R4ADOLoggingObject_Command@@6B@ 1002cd94     Statement.obj
 0002:00003da8       ??_R3ADOLoggingObject_Command@@8 1002cda8     Statement.obj
 0002:00003db8       ??_R2ADOLoggingObject_Command@@8 1002cdb8     Statement.obj
 0002:00003dc4       ??_R1A@?0A@EA@ADOLoggingObject_Command@@8 1002cdc4     Statement.obj
 0002:00003de0       ??_R4ADOLoggingObject_Recordset@@6B@ 1002cde0     Statement.obj
 0002:00003df4       ??_R3ADOLoggingObject_Recordset@@8 1002cdf4     Statement.obj
 0002:00003e04       ??_R2ADOLoggingObject_Recordset@@8 1002ce04     Statement.obj
 0002:00003e10       ??_R1A@?0A@EA@ADOLoggingObject_Recordset@@8 1002ce10     Statement.obj
 0002:00003e2c       ??_R4?$CList@PAVStatement@@PAV1@@@6B@ 1002ce2c     TSDatalink.obj
 0002:00003e40       ??_R3?$CList@PAVStatement@@PAV1@@@8 1002ce40     TSDatalink.obj
 0002:00003e50       ??_R2?$CList@PAVStatement@@PAV1@@@8 1002ce50     TSDatalink.obj
 0002:00003e5c       ??_R1A@?0A@EA@?$CList@PAVStatement@@PAV1@@@8 1002ce5c     TSDatalink.obj
 0002:00003e78       ??_R4_AFX_DLL_MODULE_STATE@@6B@ 1002ce78     mfcs100:dllmodul.obj
 0002:00003e8c       ??_R3_AFX_DLL_MODULE_STATE@@8 1002ce8c     mfcs100:dllmodul.obj
 0002:00003e9c       ??_R2_AFX_DLL_MODULE_STATE@@8 1002ce9c     mfcs100:dllmodul.obj
 0002:00003eac       ??_R1A@?0A@EA@_AFX_DLL_MODULE_STATE@@8 1002ceac     mfcs100:dllmodul.obj
 0002:00003ec8       ??_R1A@?0A@EA@AFX_MODULE_STATE@@8 1002cec8     mfcs100:dllmodul.obj
 0002:00003ee4       ??_R3AFX_MODULE_STATE@@8   1002cee4     mfcs100:dllmodul.obj
 0002:00003ef4       ??_R2AFX_MODULE_STATE@@8   1002cef4     mfcs100:dllmodul.obj
 0002:00003f00       ??_R1A@?0A@EA@CNoTrackObject@@8 1002cf00     mfcs100:dllmodul.obj
 0002:00003f1c       ??_R3CNoTrackObject@@8     1002cf1c     mfcs100:dllmodul.obj
 0002:00003f2c       ??_R2CNoTrackObject@@8     1002cf2c     mfcs100:dllmodul.obj
 0002:00003f34       ??_R4type_info@@6B@        1002cf34     msvcrt:ti_inst.obj
 0002:00003f48       ??_R3type_info@@8          1002cf48     msvcrt:ti_inst.obj
 0002:00003f58       ??_R2type_info@@8          1002cf58     msvcrt:ti_inst.obj
 0002:00003f60       ??_R1A@?0A@EA@type_info@@8 1002cf60     msvcrt:ti_inst.obj
 0002:00003f80       ___safe_se_handler_table   1002cf80     <linker-defined>
 0002:00004200       ___rtc_iaa                 1002d200     msvcrt:_initsect_.obj
 0002:00004204       ___rtc_izz                 1002d204     msvcrt:_initsect_.obj
 0002:00004208       ___rtc_taa                 1002d208     msvcrt:_initsect_.obj
 0002:0000420c       ___rtc_tzz                 1002d20c     msvcrt:_initsect_.obj
 0002:00004210       __TI2?AVbad_alloc@std@@    1002d210     Columns.obj
 0002:0000424c       __CTA2?AVbad_alloc@std@@   1002d24c     Columns.obj
 0002:00004258       __CT??_R0?AVbad_alloc@std@@@8??0bad_alloc@std@@QAE@ABV01@@Z12 1002d258     Columns.obj
 0002:00004274       __CT??_R0?AVexception@std@@@8??0exception@std@@QAE@ABV01@@Z12 1002d274     Columns.obj
 0002:0000448c       __TI1?AVTSDBLogException@@ 1002d48c     Columns.obj
 0002:00004500       __CTA1?AVTSDBLogException@@ 1002d500     Columns.obj
 0002:00004508       __CT??_R0?AVTSDBLogException@@@8??0TSDBLogException@@QAE@ABV0@@Z16 1002d508     Columns.obj
 0002:00004ccc       __TI1?AV_com_error@@       1002dccc     Columns.obj
 0002:00004f74       __CTA1?AV_com_error@@      1002df74     Columns.obj
 0002:00004f7c       __CT??_R0?AV_com_error@@@8??0_com_error@@QAE@ABV0@@Z16 1002df7c     Columns.obj
 0002:00008e9c       ___pobjMapEntryFirst       10031e9c     StdAfx.obj
 0002:00008ea0       ___pobjMapEntryLast        10031ea0     StdAfx.obj
 0002:00008ea4       __IMPORT_DESCRIPTOR_KERNEL32 10031ea4     kernel32:KERNEL32.dll
 0002:00008eb8       __IMPORT_DESCRIPTOR_USER32 10031eb8     user32:USER32.dll
 0002:00008ecc       __IMPORT_DESCRIPTOR_ole32  10031ecc     ole32:ole32.dll
 0002:00008ee0       __IMPORT_DESCRIPTOR_OLEAUT32 10031ee0     oleaut32:OLEAUT32.dll
 0002:00008ef4       __IMPORT_DESCRIPTOR_RPCRT4 10031ef4     rpcrt4:RPCRT4.dll
 0002:00008f08       __IMPORT_DESCRIPTOR_mfc100 10031f08     mfc100:mfc100.dll
 0002:00008f1c       __IMPORT_DESCRIPTOR_MSVCR100 10031f1c     msvcrt:MSVCR100.dll
 0002:00008f30       __IMPORT_DESCRIPTOR_ATL100 10031f30     atl:ATL100.DLL
 0002:00008f44       __IMPORT_DESCRIPTOR_MSVCP100 10031f44     msvcprt:MSVCP100.dll
 0002:00008f58       __NULL_IMPORT_DESCRIPTOR   10031f58     kernel32:KERNEL32.dll
 0003:00000000       ??_R0?AVbad_alloc@std@@@8  10033000     Columns.obj
 0003:0000001c       ??_R0?AVexception@std@@@8  1003301c     Columns.obj
 0003:00000038       ??_R0?AV_SafeArrayBase@TSUTIL@@@8 10033038     Columns.obj
 0003:0000005c       ??_R0?AV_com_error@@@8     1003305c     Columns.obj
 0003:00000078       ??_R0?AV?$SafeArray@PA_W$07@TSUTIL@@@8 10033078     Columns.obj
 0003:000000a4       ??_R0?AVTSDBLogException@@@8 100330a4     Columns.obj
 0003:00000134       ??_R0?AVCDBLogApp@@@8      10033134     DBLog.obj
 0003:0000014c       ??_R0?AVCWinApp@@@8        1003314c     DBLog.obj
 0003:00000164       ??_R0?AVCWinThread@@@8     10033164     DBLog.obj
 0003:00000180       ??_R0?AVCCmdTarget@@@8     10033180     DBLog.obj
 0003:0000019c       ??_R0?AVCObject@@@8        1003319c     DBLog.obj
 0003:000001b4       ??_R0?AV?$CComObject@VCTSDatalink@@@ATL@@@8 100331b4     DBLog.obj
 0003:000001e4       ??_R0?AVCTSDatalink@@@8    100331e4     DBLog.obj
 0003:00000200       ??_R0?AV?$CComObjectRootEx@VCComMultiThreadModel@ATL@@@ATL@@@8 10033200     DBLog.obj
 0003:00000244       ??_R0?AVCComObjectRootBase@ATL@@@8 10033244     DBLog.obj
 0003:00000270       ??_R0?AV?$CComCoClass@VCTSDatalink@@$1?CLSID_TSDatalink@@3U_GUID@@B@ATL@@@8 10033270     DBLog.obj
 0003:000002c0       ??_R0?AUISupportErrorInfo@@@8 100332c0     DBLog.obj
 0003:000002e0       ??_R0?AUIUnknown@@@8       100332e0     DBLog.obj
 0003:000002f8       ??_R0?AV?$IDispatchImpl@UITSDatalink@@$1?IID_ITSDatalink@@3U_GUID@@B$1?LIBID_DBLOGLib@@3U3@B$00$0A@VCComTypeInfoHolder@ATL@@@ATL@@@8 100332f8     DBLog.obj
 0003:00000380       ??_R0?AUITSDatalink@@@8    10033380     DBLog.obj
 0003:0000039c       ??_R0?AUIDispatch@@@8      1003339c     DBLog.obj
 0003:000003b4       ??_R0?AV?$CComContainedObject@VCTSDatalink@@@ATL@@@8 100333b4     DBLog.obj
 0003:000003ec       ??_R0PAVCException@@@8     100333ec     DBLog.obj
 0003:00000408       ??_R0?AVCComClassFactory@ATL@@@8 10033408     DBLog.obj
 0003:0000042c       ??_R0?AUIClassFactory@@@8  1003342c     DBLog.obj
 0003:00000448       ??_R0?AV?$CComAggObject@VCTSDatalink@@@ATL@@@8 10033448     DBLog.obj
 0003:00000480       ??_R0?AV?$CComObjectRootEx@VCComMultiThreadModelNoCS@ATL@@@ATL@@@8 10033480     DBLog.obj
 0003:000004c8       ??_R0?AVCComModule@ATL@@@8 100334c8     DBLog.obj
 0003:000004e8       ??_R0?AV?$CAtlModuleT@VCComModule@ATL@@@ATL@@@8 100334e8     DBLog.obj
 0003:0000051c       ??_R0?AVCAtlModule@ATL@@@8 1003351c     DBLog.obj
 0003:0000053c       ??_R0?AU_ATL_MODULE70@ATL@@@8 1003353c     DBLog.obj
 0003:0000055c       ??_R0?AV?$CComObjectCached@VCComClassFactory@ATL@@@ATL@@@8 1003355c     DBLog.obj
 0003:0000059c       ?_tih@?$IDispatchImpl@UITSDatalink@@$1?IID_ITSDatalink@@3U_GUID@@B$1?LIBID_DBLOGLib@@3U3@B$00$0A@VCComTypeInfoHolder@ATL@@@ATL@@1VCComTypeInfoHolder@2@A 1003359c     DBLog.obj
 0003:000005b8       ??_R0?AV?$CComObject@VCTSDBLog@@@ATL@@@8 100335b8     DBLog.obj
 0003:000005e4       ??_R0?AVCTSDBLog@@@8       100335e4     DBLog.obj
 0003:00000600       ??_R0?AV?$CComCoClass@VCTSDBLog@@$1?CLSID_TSDBLog@@3U_GUID@@B@ATL@@@8 10033600     DBLog.obj
 0003:00000648       ??_R0?AV?$IDispatchImpl@UITSDBLog@@$1?IID_ITSDBLog@@3U_GUID@@B$1?LIBID_DBLOGLib@@3U3@B$00$0A@VCComTypeInfoHolder@ATL@@@ATL@@@8 10033648     DBLog.obj
 0003:000006cc       ??_R0?AUITSDBLog@@@8       100336cc     DBLog.obj
 0003:000006e4       ?_tih@?$IDispatchImpl@UITSDBLog@@$1?IID_ITSDBLog@@3U_GUID@@B$1?LIBID_DBLOGLib@@3U3@B$00$0A@VCComTypeInfoHolder@ATL@@@ATL@@1VCComTypeInfoHolder@2@A 100336e4     DBLog.obj
 0003:00000700       ??_R0?AV?$CComContainedObject@VCTSDBLog@@@ATL@@@8 10033700     DBLog.obj
 0003:00000734       ??_R0?AV?$CComAggObject@VCTSDBLog@@@ATL@@@8 10033734     DBLog.obj
 0003:00000808       ??_R0?AVADOLoggingObject@@@8 10033808     Statement.obj
 0003:00000828       ??_R0?AV?$CList@PAVCKeyItem@@PAV1@@@@8 10033828     Statement.obj
 0003:00000854       ??_R0?AV?$CList@PAVCLastKeyList@@PAV1@@@@8 10033854     Statement.obj
 0003:00000884       ??_R0?AV?$CList@PAVCDbColumn@@PAV1@@@@8 10033884     Statement.obj
 0003:000008b0       ??_R0?AV?$CList@V?$CStringT@DV?$StrTraitMFC_DLL@DV?$ChTraitsCRT@D@ATL@@@@@ATL@@AAV12@@@@8 100338b0     Statement.obj
 0003:0000090c       ??_R0?AVADOLoggingObject_Command@@@8 1003390c     Statement.obj
 0003:00000934       ??_R0?AVADOLoggingObject_Recordset@@@8 10033934     Statement.obj
 0003:00000964       ??_R0?AV?$CList@PAVStatement@@PAV1@@@@8 10033964     TSDatalink.obj
 0003:00000994       ??_R0J@8                   10033994     TSDBLog.obj
 0003:000009a0       ??_R0H@8                   100339a0     TSDBLog.obj
 0003:000009ac       ??_R0PAVCMemoryException@@@8 100339ac     mfcs100:dllmodul.obj
 0003:000009cc       ??_R0?AV_AFX_DLL_MODULE_STATE@@@8 100339cc     mfcs100:dllmodul.obj
 0003:000009f0       ??_R0?AVAFX_MODULE_STATE@@@8 100339f0     mfcs100:dllmodul.obj
 0003:00000a10       ??_R0?AVCNoTrackObject@@@8 10033a10     mfcs100:dllmodul.obj
 0003:00000a30       ??_R0?AVtype_info@@@8      10033a30     msvcrt:ti_inst.obj
 0003:00000a50       ___native_dllmain_reason   10033a50     msvcrt:natstart.obj
 0003:00000a54       ___native_vcclrit_reason   10033a54     msvcrt:natstart.obj
 0003:00000a58       ___security_cookie         10033a58     msvcrt:gs_cookie.obj
 0003:00000a5c       ___security_cookie_complement 10033a5c     msvcrt:gs_cookie.obj
 0003:00000a60       ?__errorPfn@@3P6GXJPAUIErrorInfo@@@ZA 10033a60     comsuppw:comsupp.obj
 0003:00000a68       ?vtMissing@@3V_variant_t@@A 10033a68     comsuppw:comutil.obj
 0003:00000a78       ?_pAtlModule@ATL@@3PAVCAtlModule@1@A 10033a78     Columns.obj
 0003:00000a7c       ?m_libid@CAtlModule@ATL@@2U_GUID@@A 10033a7c     Columns.obj
 0003:00000a90       ?sLoggingOrderCritSect@@3U_RTL_CRITICAL_SECTION@@A 10033a90     DBLog.obj
 0003:00000aa8       ?_Module@@3VCComModule@ATL@@A 10033aa8     DBLog.obj
 0003:00000ad8       ?theApp@@3VCDBLogApp@@A    10033ad8     DBLog.obj
 0003:00000b90       ?m_bInitFailed@CAtlBaseModule@ATL@@2_NA 10033b90     DBLog.obj
 0003:00000b94       ?_pPerfRegFunc@ATL@@3P6AJPAUHINSTANCE__@@@ZA 10033b94     DBLog.obj
 0003:00000b98       ?_pPerfUnRegFunc@ATL@@3P6AJXZA 10033b98     DBLog.obj
 0003:00000b9c       ?_pModule@ATL@@3PAVCComModule@1@A 10033b9c     DBLog.obj
 0003:00000ba0       __afxForceEXCLUDE          10033ba0     mfcs100:nolib.obj
 0003:00000ba4       ?__mixedModuleStartup@@3HA 10033ba4     mfcs100:dllmodul.obj
 0003:00000ba8       __afxForceUSRDLL           10033ba8     mfcs100:dllmodul.obj
 0003:00000c68       __afxForceSTDAFX           10033c68     mfcs100:stdafx.obj
 0003:00000c70       ?__type_info_root_node@@3U__type_info_node@@A 10033c70     msvcrt:tncleanup.obj
 0003:00000f9c       ?_AtlComModule@ATL@@3VCAtlComModule@1@A 10033f9c     atls:atlcommodule.obj
 0003:00000fc4       ?_AtlBaseModule@ATL@@3VCAtlBaseModule@1@A 10033fc4     atls:atlbase.obj
 0003:00000ffc       ___native_startup_state    10033ffc     <common>
 0003:00001000       ___native_startup_lock     10034000     <common>
 0003:00001004       ___sse2_available          10034004     <common>
 0003:00001008       ___dyn_tls_init_callback   10034008     <common>
 0003:0000100c       ___onexitend               1003400c     <common>
 0003:00001010       ___onexitbegin             10034010     <common>

 entry point at        0001:00022e49

 Static symbols

 0001:0000272a       __catch$?ValidatePreConditions@CDbColumn@@AAE_NAAVLoggingInfo@@@Z$2 1000372a f   Columns.obj
 0001:00002760       __catch$?ValidatePreConditions@CDbColumn@@AAE_NAAVLoggingInfo@@@Z$0 10003760 f   Columns.obj
 0001:000031dc       __catch$??$_Uninit_move@PAV_variant_t@@PAV1@V?$allocator@V_variant_t@@@std@@V1@@std@@YAPAV_variant_t@@PAV1@00AAV?$allocator@V_variant_t@@@0@0U_Nonscalar_ptr_iterator_tag@0@@Z$0 100041dc f i Columns.obj
 0001:0000431b       __catch$?reserve@?$vector@V_variant_t@@V?$allocator@V_variant_t@@@std@@@std@@QAEXI@Z$0 1000531b f i Columns.obj
 0001:0000445c       __catch$??$_Uninit_move@PAV_bstr_t@@PAV1@V?$allocator@V_bstr_t@@@std@@V1@@std@@YAPAV_bstr_t@@PAV1@00AAV?$allocator@V_bstr_t@@@0@0U_Nonscalar_ptr_iterator_tag@0@@Z$0 1000545c f i Columns.obj
 0001:000048ef       __catch$?reserve@?$vector@V_bstr_t@@V?$allocator@V_bstr_t@@@std@@@std@@QAEXI@Z$0 100058ef f i Columns.obj
 0001:00005e43       __catch$?SetColumn@CDbColumn@@QAEXAAVLoggingInfo@@AAVADOLoggingObject@@H@Z$0 10006e43 f   Columns.obj
 0001:00006338       __catch$?SetColumn@CDbColumn@@QAEXAAVLoggingInfo@@AAVADOLoggingObject@@H@Z$2 10007338 f   Columns.obj
 0001:00006496       __catch$?SetColumn@CDbColumn@@QAEXAAVLoggingInfo@@AAVADOLoggingObject@@H@Z$3 10007496 f   Columns.obj
 0001:00006640       __catch$?SetColumn@CDbColumn@@QAEXAAVLoggingInfo@@AAVADOLoggingObject@@H@Z$4 10007640 f   Columns.obj
 0001:000066da       __catch$?SetColumn@CDbColumn@@QAEXAAVLoggingInfo@@AAVADOLoggingObject@@H@Z$6 100076da f   Columns.obj
 0001:00007324       __catch$??0CDbColumn@@QAE@AAV?$_com_ptr_t@V?$_com_IIID@UIEngine@TS@@$1?_GUID_b2794ef5_c0b6_11d0_939c_0020af68e893@@3U__s_GUID@@B@@@@AAV?$_com_ptr_t@V?$_com_IIID@UPropertyObject@TS@@$1?_GUID_8d8769a0_09c0_11d1_93bd_0020af68e893@@3U__s_GUID@@B@@@@PAVStatement@@@Z$0 10008324 f   Columns.obj
 0001:000073c0       __catch$??0CDbColumn@@QAE@AAV?$_com_ptr_t@V?$_com_IIID@UIEngine@TS@@$1?_GUID_b2794ef5_c0b6_11d0_939c_0020af68e893@@3U__s_GUID@@B@@@@AAV?$_com_ptr_t@V?$_com_IIID@UPropertyObject@TS@@$1?_GUID_8d8769a0_09c0_11d1_93bd_0020af68e893@@3U__s_GUID@@B@@@@PAVStatement@@@Z$1 100083c0 f   Columns.obj
 0001:00007476       __catch$??0CDbColumn@@QAE@AAV?$_com_ptr_t@V?$_com_IIID@UIEngine@TS@@$1?_GUID_b2794ef5_c0b6_11d0_939c_0020af68e893@@3U__s_GUID@@B@@@@AAV?$_com_ptr_t@V?$_com_IIID@UPropertyObject@TS@@$1?_GUID_8d8769a0_09c0_11d1_93bd_0020af68e893@@3U__s_GUID@@B@@@@PAVStatement@@@Z$2 10008476 f   Columns.obj
 0001:00007740       ?AtlGetDirLen@ATL@@YGIPB_W@Z 10008740 f   DBLog.obj
 0001:000089a7       __catch$?LoadNameCache@CComTypeInfoHolder@ATL@@QAEJPAUITypeInfo@@@Z$0 100099a7 f i DBLog.obj
 0001:00008d5c       __catch$?CreateInstance@?$CComCreator@V?$CComObject@VCTSDatalink@@@ATL@@@ATL@@SGJPAXABU_GUID@@PAPAX@Z$0 10009d5c f i DBLog.obj
 0001:0000a979       __catch$?CreateInstance@?$CComCreator@V?$CComAggObject@VCTSDatalink@@@ATL@@@ATL@@SGJPAXABU_GUID@@PAPAX@Z$0 1000b979 f i DBLog.obj
 0001:0000aed8       __catch$?CreateInstance@?$CComCreator@V?$CComObjectCached@VCComClassFactory@ATL@@@ATL@@@ATL@@SGJPAXABU_GUID@@PAPAX@Z$0 1000bed8 f i DBLog.obj
 0001:0000e039       __catch$?CreateInstance@?$CComCreator@V?$CComObject@VCTSDBLog@@@ATL@@@ATL@@SGJPAXABU_GUID@@PAPAX@Z$0 1000f039 f i DBLog.obj
 0001:0000e376       __catch$?CreateInstance@?$CComCreator@V?$CComAggObject@VCTSDBLog@@@ATL@@@ATL@@SGJPAXABU_GUID@@PAPAX@Z$0 1000f376 f i DBLog.obj
 0001:0000f9db       __catch$?GetDBOptionResultFilter@LoggingInfo@@QAE_NXZ$0 100109db f   DBLogUtil.obj
 0001:000132c0       ?GetMonthNumFromAbbrevName@@YAHKHPAD@Z 100142c0 f   format.obj
 0001:000134e0       ?GetMonthNumFromFullName@@YAHKHPAD@Z 100144e0 f   format.obj
 0001:00013700       ?ExtractAMPMFromFluff@@YAHKHPADIPAI0I1@Z 10014700 f   format.obj
 0001:000139a0       ?ExtractNumberFromFluff@@YAHPADIPAI@Z 100149a0 f   format.obj
 0001:00013a00       ?ExtractMonthFromFluff@@YAHKHPADIPAI0I1@Z 10014a00 f   format.obj
 0001:00013b40       ?ExtractDayFromFluff@@YAHPADIPAI0I1@Z 10014b40 f   format.obj
 0001:00013be0       ?ExtractFractionFromFluff@@YANPADIPAI@Z 10014be0 f   format.obj
 0001:00013cc0       ?AppendToFormat@@YAHPADPAI0@Z 10014cc0 f   format.obj
 0001:00013d00       ?GenerateGFFormat@@YAHKPADPAI@Z 10014d00 f   format.obj
 0001:00013e10       ?GenerateGCFormat@@YAHKPAD0PAI@Z 10014e10 f   format.obj
 0001:000141c0       ?GenerateGTFormat@@YAHKHPADPAI@Z 100151c0 f   format.obj
 0001:000144a0       ?GenerateGLFormat@@YAHKHPADPAI@Z 100154a0 f   format.obj
 0001:00014730       ?GenerateGDFormat@@YAHKHPADPAI@Z 10015730 f   format.obj
 0001:00014ad0       ?LeapDaysFrom1900@@YAJJ@Z  10015ad0 f   format.obj
 0001:00014b80       ?TimeStructToDate@@YAHPAUtm@@PANN@Z 10015b80 f   format.obj
 0001:00014ca0       ?PreScanFormat@@YAHKHPADPAHPAN@Z 10015ca0 f   format.obj
 0001:00015a10       ?WaitInMessageLoop@@YAKPAXPAUIDispatch@@KPAH@Z 10016a10 f   Mutex.obj
 0001:000160c4       __catch$?Close@Statement@@QAEXXZ$0 100170c4 f   Statement.obj
 0001:00019007       __catch$?CreateOnTheFlyCommands@Statement@@QAEXXZ$8 1001a007 f   Statement.obj
 0001:000198a2       __catch$?Open@Statement@@QAEXAAV?$_com_ptr_t@V?$_com_IIID@USequenceContext@TS@@$1?_GUID_6427d0e0_e410_11d0_93b4_0020af68e893@@3U__s_GUID@@B@@@@V?$_com_ptr_t@V?$_com_IIID@U_Connection@@$1?_GUID_00001550_0000_0010_8000_00aa006d2ea4@@3U__s_GUID@@B@@@@@Z$0 1001a8a2 f   Statement.obj
 0001:0001a043       __catch$?WillLog@Statement@@QAE_NAAVLoggingInfo@@@Z$3 1001b043 f   Statement.obj
 0001:0001a079       __catch$?WillLog@Statement@@QAE_NAAVLoggingInfo@@@Z$5 1001b079 f   Statement.obj
 0001:0001a3ae       __catch$?Execute@Statement@@QAEXAAVLoggingInfo@@AAJW4eProcessType@1@@Z$1 1001b3ae f   Statement.obj
 0001:0001a572       __catch$?Execute@Statement@@QAEXAAVLoggingInfo@@AAJW4eProcessType@1@@Z$3 1001b572 f   Statement.obj
 0001:0001ae19       __catch$?Execute@Statement@@QAEXAAVLoggingInfo@@AAJW4eProcessType@1@@Z$5 1001be19 f   Statement.obj
 0001:0001b1d2       __catch$?Execute@Statement@@QAEXAAVLoggingInfo@@AAJW4eProcessType@1@@Z$7 1001c1d2 f   Statement.obj
 0001:0001b2bf       __catch$?Execute@Statement@@QAEXAAVLoggingInfo@@AAJW4eProcessType@1@@Z$9 1001c2bf f   Statement.obj
 0001:0001b361       __catch$?Execute@Statement@@QAEXAAVLoggingInfo@@AAJW4eProcessType@1@@Z$10 1001c361 f   Statement.obj
 0001:0001b45a       __catch$?Execute@Statement@@QAEXAAVLoggingInfo@@AAJW4eProcessType@1@@Z$11 1001c45a f   Statement.obj
 0001:0001b91c       __catch$??1Statement@@QAE@XZ$0 1001c91c f   Statement.obj
 0001:0001c6f6       __catch$??0Statement@@QAE@AAV?$_com_ptr_t@V?$_com_IIID@USequenceContext@TS@@$1?_GUID_6427d0e0_e410_11d0_93b4_0020af68e893@@3U__s_GUID@@B@@@@AAV?$_com_ptr_t@V?$_com_IIID@UPropertyObject@TS@@$1?_GUID_8d8769a0_09c0_11d1_93bd_0020af68e893@@3U__s_GUID@@B@@@@PAVCTSDatalink@@@Z$0 1001d6f6 f   Statement.obj
 0001:0001c798       __catch$??0Statement@@QAE@AAV?$_com_ptr_t@V?$_com_IIID@USequenceContext@TS@@$1?_GUID_6427d0e0_e410_11d0_93b4_0020af68e893@@3U__s_GUID@@B@@@@AAV?$_com_ptr_t@V?$_com_IIID@UPropertyObject@TS@@$1?_GUID_8d8769a0_09c0_11d1_93bd_0020af68e893@@3U__s_GUID@@B@@@@PAVCTSDatalink@@@Z$1 1001d798 f   Statement.obj
 0001:0001c854       __catch$??0Statement@@QAE@AAV?$_com_ptr_t@V?$_com_IIID@USequenceContext@TS@@$1?_GUID_6427d0e0_e410_11d0_93b4_0020af68e893@@3U__s_GUID@@B@@@@AAV?$_com_ptr_t@V?$_com_IIID@UPropertyObject@TS@@$1?_GUID_8d8769a0_09c0_11d1_93bd_0020af68e893@@3U__s_GUID@@B@@@@PAVCTSDatalink@@@Z$2 1001d854 f   Statement.obj
 0001:0001d97b       __catch$??1CTSDatalink@@QAE@XZ$0 1001e97b f   TSDatalink.obj
 0001:0001e3bd       __catch$?LogUUTResult@CTSDatalink@@UAGJPAUIDispatch@@0@Z$0 1001f3bd f   TSDatalink.obj
 0001:0001e3f3       __catch$?LogUUTResult@CTSDatalink@@UAGJPAUIDispatch@@0@Z$1 1001f3f3 f   TSDatalink.obj
 0001:0001ecb5       __catch$?Initialize@CTSDatalink@@UAGJPAUIDispatch@@0@Z$4 1001fcb5 f   TSDatalink.obj
 0001:0001eceb       __catch$?Initialize@CTSDatalink@@UAGJPAUIDispatch@@0@Z$0 1001fceb f   TSDatalink.obj
 0001:0001ed05       __catch$?Initialize@CTSDatalink@@UAGJPAUIDispatch@@0@Z$1 1001fd05 f   TSDatalink.obj
 0001:0001edf3       __catch$?Initialize@CTSDatalink@@UAGJPAUIDispatch@@0@Z$2 1001fdf3 f   TSDatalink.obj
 0001:0001f794       __catch$?LogOneResult@CTSDatalink@@UAGJPAUIDispatch@@0@Z$0 10020794 f   TSDatalink.obj
 0001:0001f7ca       __catch$?LogOneResult@CTSDatalink@@UAGJPAUIDispatch@@0@Z$1 100207ca f   TSDatalink.obj
 0001:0001f990       __catch$??0CTSDatalink@@QAE@XZ$0 10020990 f   TSDatalink.obj
 0001:0001fef1       __catch$?RecurseResultsTree@CTSDatalink@@AAEXAAVLoggingInfo@@H@Z$2 10020ef1 f   TSDatalink.obj
 0001:0002038c       __catch$?LogResults@CTSDatalink@@UAGJPAUIDispatch@@0@Z$0 1002138c f   TSDatalink.obj
 0001:000203b0       __catch$?LogResults@CTSDatalink@@UAGJPAUIDispatch@@0@Z$1 100213b0 f   TSDatalink.obj
 0001:000203bd       __catch$?LogResults@CTSDatalink@@UAGJPAUIDispatch@@0@Z$4 100213bd f   TSDatalink.obj
 0001:000204dc       __catch$?LogResults@CTSDatalink@@UAGJPAUIDispatch@@0@Z$5 100214dc f   TSDatalink.obj
 0001:000204e9       __catch$?LogResults@CTSDatalink@@UAGJPAUIDispatch@@0@Z$7 100214e9 f   TSDatalink.obj
 0001:0002061f       __catch$?LogResults@CTSDatalink@@UAGJPAUIDispatch@@0@Z$8 1002161f f   TSDatalink.obj
 0001:0002062c       __catch$?LogResults@CTSDatalink@@UAGJPAUIDispatch@@0@Z$10 1002162c f   TSDatalink.obj
 0001:000206c4       __catch$?LogResults@CTSDatalink@@UAGJPAUIDispatch@@0@Z$11 100216c4 f   TSDatalink.obj
 0001:00020730       ?MakeValidName@@YAXPA_W@Z  10021730 f   TSDBLog.obj
 0001:00021069       __catch$?GetDatalink@CTSDBLog@@IAEJV?$_com_ptr_t@V?$_com_IIID@USequenceContext@TS@@$1?_GUID_6427d0e0_e410_11d0_93b4_0020af68e893@@3U__s_GUID@@B@@@@AAV?$_com_ptr_t@V?$_com_IIID@UPropertyObject@TS@@$1?_GUID_8d8769a0_09c0_11d1_93bd_0020af68e893@@3U__s_GUID@@B@@@@AAV_bstr_t@@@Z$0 10022069 f   TSDBLog.obj
 0001:000210d5       __catch$?GetDatalink@CTSDBLog@@IAEJV?$_com_ptr_t@V?$_com_IIID@USequenceContext@TS@@$1?_GUID_6427d0e0_e410_11d0_93b4_0020af68e893@@3U__s_GUID@@B@@@@AAV?$_com_ptr_t@V?$_com_IIID@UPropertyObject@TS@@$1?_GUID_8d8769a0_09c0_11d1_93bd_0020af68e893@@3U__s_GUID@@B@@@@AAV_bstr_t@@@Z$2 100220d5 f   TSDBLog.obj
 0001:000211aa       __catch$?GetDatalink@CTSDBLog@@IAEJV?$_com_ptr_t@V?$_com_IIID@USequenceContext@TS@@$1?_GUID_6427d0e0_e410_11d0_93b4_0020af68e893@@3U__s_GUID@@B@@@@AAV?$_com_ptr_t@V?$_com_IIID@UPropertyObject@TS@@$1?_GUID_8d8769a0_09c0_11d1_93bd_0020af68e893@@3U__s_GUID@@B@@@@AAV_bstr_t@@@Z$4 100221aa f   TSDBLog.obj
 0001:00021279       __catch$?GetDatalink@CTSDBLog@@IAEJV?$_com_ptr_t@V?$_com_IIID@USequenceContext@TS@@$1?_GUID_6427d0e0_e410_11d0_93b4_0020af68e893@@3U__s_GUID@@B@@@@AAV?$_com_ptr_t@V?$_com_IIID@UPropertyObject@TS@@$1?_GUID_8d8769a0_09c0_11d1_93bd_0020af68e893@@3U__s_GUID@@B@@@@AAV_bstr_t@@@Z$6 10022279 f   TSDBLog.obj
 0001:000212db       __catch$?GetDatalink@CTSDBLog@@IAEJV?$_com_ptr_t@V?$_com_IIID@USequenceContext@TS@@$1?_GUID_6427d0e0_e410_11d0_93b4_0020af68e893@@3U__s_GUID@@B@@@@AAV?$_com_ptr_t@V?$_com_IIID@UPropertyObject@TS@@$1?_GUID_8d8769a0_09c0_11d1_93bd_0020af68e893@@3U__s_GUID@@B@@@@AAV_bstr_t@@@Z$8 100222db f   TSDBLog.obj
 0001:0002130c       __catch$?GetDatalink@CTSDBLog@@IAEJV?$_com_ptr_t@V?$_com_IIID@USequenceContext@TS@@$1?_GUID_6427d0e0_e410_11d0_93b4_0020af68e893@@3U__s_GUID@@B@@@@AAV?$_com_ptr_t@V?$_com_IIID@UPropertyObject@TS@@$1?_GUID_8d8769a0_09c0_11d1_93bd_0020af68e893@@3U__s_GUID@@B@@@@AAV_bstr_t@@@Z$9 1002230c f   TSDBLog.obj
 0001:00021430       __catch$?GetDatalink@CTSDBLog@@IAEJV?$_com_ptr_t@V?$_com_IIID@USequenceContext@TS@@$1?_GUID_6427d0e0_e410_11d0_93b4_0020af68e893@@3U__s_GUID@@B@@@@AAV?$_com_ptr_t@V?$_com_IIID@UPropertyObject@TS@@$1?_GUID_8d8769a0_09c0_11d1_93bd_0020af68e893@@3U__s_GUID@@B@@@@AAV_bstr_t@@@Z$12 10022430 f   TSDBLog.obj
 0001:00021818       __catch$?NewUUT@CTSDBLog@@UAGJPAUIDispatch@@00000@Z$0 10022818 f   TSDBLog.obj
 0001:000218b0       __catch$?NewUUT@CTSDBLog@@UAGJPAUIDispatch@@00000@Z$1 100228b0 f   TSDBLog.obj
 0001:00021901       __catch$?NewUUT@CTSDBLog@@UAGJPAUIDispatch@@00000@Z$2 10022901 f   TSDBLog.obj
 0001:00021931       __catch$?NewUUT@CTSDBLog@@UAGJPAUIDispatch@@00000@Z$3 10022931 f   TSDBLog.obj
 0001:00021961       __catch$?NewUUT@CTSDBLog@@UAGJPAUIDispatch@@00000@Z$4 10022961 f   TSDBLog.obj
 0001:00021a72       __catch$?LogUUTResult@CTSDBLog@@UAGJPAUIDispatch@@0@Z$0 10022a72 f   TSDBLog.obj
 0001:00021b0a       __catch$?LogUUTResult@CTSDBLog@@UAGJPAUIDispatch@@0@Z$1 10022b0a f   TSDBLog.obj
 0001:00021b5b       __catch$?LogUUTResult@CTSDBLog@@UAGJPAUIDispatch@@0@Z$2 10022b5b f   TSDBLog.obj
 0001:00021b8b       __catch$?LogUUTResult@CTSDBLog@@UAGJPAUIDispatch@@0@Z$3 10022b8b f   TSDBLog.obj
 0001:00021bbb       __catch$?LogUUTResult@CTSDBLog@@UAGJPAUIDispatch@@0@Z$4 10022bbb f   TSDBLog.obj
 0001:00021cc2       __catch$?LogOneResult@CTSDBLog@@UAGJPAUIDispatch@@0@Z$0 10022cc2 f   TSDBLog.obj
 0001:00021d5a       __catch$?LogOneResult@CTSDBLog@@UAGJPAUIDispatch@@0@Z$1 10022d5a f   TSDBLog.obj
 0001:00021dab       __catch$?LogOneResult@CTSDBLog@@UAGJPAUIDispatch@@0@Z$2 10022dab f   TSDBLog.obj
 0001:00021ddb       __catch$?LogOneResult@CTSDBLog@@UAGJPAUIDispatch@@0@Z$3 10022ddb f   TSDBLog.obj
 0001:00021e0b       __catch$?LogOneResult@CTSDBLog@@UAGJPAUIDispatch@@0@Z$4 10022e0b f   TSDBLog.obj
 0001:0002205b       __catch$?LogResults@CTSDBLog@@UAGJPAUIDispatch@@00@Z$0 1002305b f   TSDBLog.obj
 0001:000220ff       __catch$?LogResults@CTSDBLog@@UAGJPAUIDispatch@@00@Z$1 100230ff f   TSDBLog.obj
 0001:0002210c       __catch$?LogResults@CTSDBLog@@UAGJPAUIDispatch@@00@Z$4 1002310c f   TSDBLog.obj
 0001:000221cb       __catch$?LogResults@CTSDBLog@@UAGJPAUIDispatch@@00@Z$5 100231cb f   TSDBLog.obj
 0001:00022219       __catch$?LogResults@CTSDBLog@@UAGJPAUIDispatch@@00@Z$6 10023219 f   TSDBLog.obj
 0001:00022249       __catch$?LogResults@CTSDBLog@@UAGJPAUIDispatch@@00@Z$7 10023249 f   TSDBLog.obj
 0001:00022279       __catch$?LogResults@CTSDBLog@@UAGJPAUIDispatch@@00@Z$8 10023279 f   TSDBLog.obj
 0001:000225ae       __catch$_InternalDllMain@12$2 100235ae f   mfcs100:dllmodul.obj
 0001:00022adb       _pre_c_init                10023adb f   msvcrt:crtdll.obj
 0001:00022d33       ___DllMainCRTStartup       10023d33 f   msvcrt:crtdll.obj
 0001:0002373d       __catch$?ConvertBSTRToString@_com_util@@YGPADPA_W@Z$0 1002473d f   comsuppw:comutil.obj
 0001:00023832       __IsNonwritableInCurrentImage 10024832 f   mfcs100:rawdllmainproxy.obj
 0001:00023930       __unwindfunclet$??$_Allocate@V_bstr_t@@@std@@YAPAV_bstr_t@@IPAV1@@Z$0 10024930 f   Columns.obj
 0001:00023930       __unwindfunclet$??$_Allocate@V_variant_t@@@std@@YAPAV_variant_t@@IPAV1@@Z$0 10024930 f   Columns.obj
 0001:00023939       __ehhandler$??$_Allocate@V_variant_t@@@std@@YAPAV_variant_t@@IPAV1@@Z 10024939 f   Columns.obj
 0001:00023939       __ehhandler$??$_Allocate@V_bstr_t@@@std@@YAPAV_bstr_t@@IPAV1@@Z 10024939 f   Columns.obj
 0001:00023950       __unwindfunclet$??0bad_alloc@std@@QAE@ABV01@@Z$0 10024950 f   Columns.obj
 0001:00023950       __unwindfunclet$??1bad_alloc@std@@UAE@XZ$0 10024950 f   Columns.obj
 0001:00023950       __unwindfunclet$??_Gbad_alloc@std@@UAEPAXI@Z$0 10024950 f   Columns.obj
 0001:00023959       __ehhandler$??_Gbad_alloc@std@@UAEPAXI@Z 10024959 f   Columns.obj
 0001:00023959       __ehhandler$??0bad_alloc@std@@QAE@ABV01@@Z 10024959 f   Columns.obj
 0001:00023959       __ehhandler$??1bad_alloc@std@@UAE@XZ 10024959 f   Columns.obj
 0001:00023970       __unwindfunclet$??0stringdispid@CComTypeInfoHolder@ATL@@QAE@XZ$0 10024970 f   Columns.obj
 0001:00023970       __unwindfunclet$??1stringdispid@CComTypeInfoHolder@ATL@@QAE@XZ$0 10024970 f   Columns.obj
 0001:00023978       __ehhandler$??0stringdispid@CComTypeInfoHolder@ATL@@QAE@XZ 10024978 f   Columns.obj
 0001:00023978       __ehhandler$??1stringdispid@CComTypeInfoHolder@ATL@@QAE@XZ 10024978 f   Columns.obj
 0001:00023990       __unwindfunclet$??_G?$SafeArray@PA_W$07@TSUTIL@@UAEPAXI@Z$0 10024990 f   Columns.obj
 0001:00023990       __unwindfunclet$??1?$SafeArray@PA_W$07@TSUTIL@@UAE@XZ$0 10024990 f   Columns.obj
 0001:00023998       __ehhandler$??_G?$SafeArray@PA_W$07@TSUTIL@@UAEPAXI@Z 10024998 f   Columns.obj
 0001:00023998       __ehhandler$??1?$SafeArray@PA_W$07@TSUTIL@@UAE@XZ 10024998 f   Columns.obj
 0001:000239b0       __unwindfunclet$?GetForeignKeyValue@CDbColumn@@AAEXAAVLoggingInfo@@AAV_variant_t@@H@Z$0 100249b0 f   Columns.obj
 0001:000239b8       __unwindfunclet$?GetForeignKeyValue@CDbColumn@@AAEXAAVLoggingInfo@@AAV_variant_t@@H@Z$1 100249b8 f   Columns.obj
 0001:000239c0       __ehhandler$?GetForeignKeyValue@CDbColumn@@AAEXAAVLoggingInfo@@AAV_variant_t@@H@Z 100249c0 f   Columns.obj
 0001:000239d0       __unwindfunclet$?Attach@_bstr_t@@QAEXPA_W@Z$0 100249d0 f   Columns.obj
 0001:000239d0       __unwindfunclet$??Y_bstr_t@@QAEAAV0@ABV0@@Z$0 100249d0 f   Columns.obj
 0001:000239d0       __unwindfunclet$??0_bstr_t@@QAE@PB_W@Z$0 100249d0 f   Columns.obj
 0001:000239d0       __unwindfunclet$??0_bstr_t@@QAE@PBD@Z$0 100249d0 f   Columns.obj
 0001:000239db       __ehhandler$??0_bstr_t@@QAE@PBD@Z 100249db f   Columns.obj
 0001:000239db       __ehhandler$?Attach@_bstr_t@@QAEXPA_W@Z 100249db f   Columns.obj
 0001:000239db       __ehhandler$??0_bstr_t@@QAE@PB_W@Z 100249db f   Columns.obj
 0001:000239db       __ehhandler$??Y_bstr_t@@QAEAAV0@ABV0@@Z 100249db f   Columns.obj
 0001:000239f0       __unwindfunclet$?GetNumArrayElements@DBMemoryBuilder@@AAEIV_variant_t@@PAI@Z$0 100249f0 f   Columns.obj
 0001:000239f8       __unwindfunclet$?GetNumArrayElements@DBMemoryBuilder@@AAEIV_variant_t@@PAI@Z$1 100249f8 f   Columns.obj
 0001:00023a00       __ehhandler$?GetNumArrayElements@DBMemoryBuilder@@AAEIV_variant_t@@PAI@Z 10024a00 f   Columns.obj
 0001:00023a10       __unwindfunclet$?WriteBinaryZeros@DBMemoryBuilder@@AAEXAAVADOLoggingObject@@AAV_bstr_t@@I@Z$0 10024a10 f   Columns.obj
 0001:00023a10       __unwindfunclet$?WriteBinaryValue@DBMemoryBuilder@@AAEXAAVADOLoggingObject@@AAV_bstr_t@@AAV_variant_t@@IAAIAA_N@Z$0 10024a10 f   Columns.obj
 0001:00023a18       __unwindfunclet$?WriteBinaryZeros@DBMemoryBuilder@@AAEXAAVADOLoggingObject@@AAV_bstr_t@@I@Z$1 10024a18 f   Columns.obj
 0001:00023a18       __unwindfunclet$?WriteBinaryValue@DBMemoryBuilder@@AAEXAAVADOLoggingObject@@AAV_bstr_t@@AAV_variant_t@@IAAIAA_N@Z$1 10024a18 f   Columns.obj
 0001:00023a20       __ehhandler$?WriteBinaryZeros@DBMemoryBuilder@@AAEXAAVADOLoggingObject@@AAV_bstr_t@@I@Z 10024a20 f   Columns.obj
 0001:00023a20       __ehhandler$?WriteBinaryValue@DBMemoryBuilder@@AAEXAAVADOLoggingObject@@AAV_bstr_t@@AAV_variant_t@@IAAIAA_N@Z 10024a20 f   Columns.obj
 0001:00023a30       __unwindfunclet$?SetPrimaryKey@CDbColumn@@AAEXAAVLoggingInfo@@AAVADOLoggingObject@@@Z$0 10024a30 f   Columns.obj
 0001:00023a30       __unwindfunclet$??$_Rotate@PAV_variant_t@@HV1@@std@@YAXPAV_variant_t@@00PAH0@Z$0 10024a30 f   Columns.obj
 0001:00023a30       __unwindfunclet$?Write@DBMemoryBuilder@@QAEXAAVADOLoggingObject@@AAV_bstr_t@@I@Z$0 10024a30 f   Columns.obj
 0001:00023a30       __unwindfunclet$?SetForeignKey@CDbColumn@@AAEXAAVLoggingInfo@@AAVADOLoggingObject@@H@Z$0 10024a30 f   Columns.obj
 0001:00023a30       __unwindfunclet$??0_bstr_t@@QAE@ABV_variant_t@@@Z$0 10024a30 f   Columns.obj
 0001:00023a38       __ehhandler$?SetForeignKey@CDbColumn@@AAEXAAVLoggingInfo@@AAVADOLoggingObject@@H@Z 10024a38 f   Columns.obj
 0001:00023a38       __ehhandler$??0_bstr_t@@QAE@ABV_variant_t@@@Z 10024a38 f   Columns.obj
 0001:00023a38       __ehhandler$??$_Rotate@PAV_variant_t@@HV1@@std@@YAXPAV_variant_t@@00PAH0@Z 10024a38 f   Columns.obj
 0001:00023a38       __ehhandler$?SetPrimaryKey@CDbColumn@@AAEXAAVLoggingInfo@@AAVADOLoggingObject@@@Z 10024a38 f   Columns.obj
 0001:00023a38       __ehhandler$?Write@DBMemoryBuilder@@QAEXAAVADOLoggingObject@@AAV_bstr_t@@I@Z 10024a38 f   Columns.obj
 0001:00023a50       __unwindfunclet$??$_Cons_val@V?$allocator@V_bstr_t@@@std@@V_bstr_t@@V3@@std@@YAXAAV?$allocator@V_bstr_t@@@0@PAV_bstr_t@@$$QAV2@@Z$0 10024a50 f   Columns.obj
 0001:00023a50       __unwindfunclet$??$_Cons_val@V?$allocator@V_variant_t@@@std@@V_variant_t@@V3@@std@@YAXAAV?$allocator@V_variant_t@@@0@PAV_variant_t@@$$QAV2@@Z$0 10024a50 f   Columns.obj
 0001:00023a61       __ehhandler$??$_Cons_val@V?$allocator@V_bstr_t@@@std@@V_bstr_t@@V3@@std@@YAXAAV?$allocator@V_bstr_t@@@0@PAV_bstr_t@@$$QAV2@@Z 10024a61 f   Columns.obj
 0001:00023a61       __ehhandler$??$_Cons_val@V?$allocator@V_variant_t@@@std@@V_variant_t@@V3@@std@@YAXAAV?$allocator@V_variant_t@@@0@PAV_variant_t@@$$QAV2@@Z 10024a61 f   Columns.obj
 0001:00023a70       __unwindfunclet$??4_bstr_t@@QAEAAV0@PB_W@Z$0 10024a70 f   Columns.obj
 0001:00023a70       __unwindfunclet$??4_bstr_t@@QAEAAV0@PBD@Z$0 10024a70 f   Columns.obj
 0001:00023a7b       __ehhandler$??4_bstr_t@@QAEAAV0@PBD@Z 10024a7b f   Columns.obj
 0001:00023a7b       __ehhandler$??4_bstr_t@@QAEAAV0@PB_W@Z 10024a7b f   Columns.obj
 0001:00023a90       __unwindfunclet$??0TSDBLogException@@QAE@HJPBD@Z$0 10024a90 f   Columns.obj
 0001:00023a90       __unwindfunclet$??0TSDBLogException@@QAE@ABV0@@Z$0 10024a90 f   Columns.obj
 0001:00023a90       __unwindfunclet$??1TSDBLogException@@QAE@XZ$0 10024a90 f   Columns.obj
 0001:00023a9b       __ehhandler$??1TSDBLogException@@QAE@XZ 10024a9b f   Columns.obj
 0001:00023a9b       __ehhandler$??0TSDBLogException@@QAE@ABV0@@Z 10024a9b f   Columns.obj
 0001:00023a9b       __ehhandler$??0TSDBLogException@@QAE@HJPBD@Z 10024a9b f   Columns.obj
 0001:00023ab0       __unwindfunclet$?WriteStringValues@DBMemoryBuilder@@AAEXAAVADOLoggingObject@@AAV_bstr_t@@I@Z$0 10024ab0 f   Columns.obj
 0001:00023ab8       __unwindfunclet$?WriteStringValues@DBMemoryBuilder@@AAEXAAVADOLoggingObject@@AAV_bstr_t@@I@Z$1 10024ab8 f   Columns.obj
 0001:00023ac0       __unwindfunclet$?WriteStringValues@DBMemoryBuilder@@AAEXAAVADOLoggingObject@@AAV_bstr_t@@I@Z$7 10024ac0 f   Columns.obj
 0001:00023acb       __unwindfunclet$?WriteStringValues@DBMemoryBuilder@@AAEXAAVADOLoggingObject@@AAV_bstr_t@@I@Z$5 10024acb f   Columns.obj
 0001:00023ad3       __unwindfunclet$?WriteStringValues@DBMemoryBuilder@@AAEXAAVADOLoggingObject@@AAV_bstr_t@@I@Z$3 10024ad3 f   Columns.obj
 0001:00023adb       __unwindfunclet$?WriteStringValues@DBMemoryBuilder@@AAEXAAVADOLoggingObject@@AAV_bstr_t@@I@Z$4 10024adb f   Columns.obj
 0001:00023ae3       __unwindfunclet$?WriteStringValues@DBMemoryBuilder@@AAEXAAVADOLoggingObject@@AAV_bstr_t@@I@Z$6 10024ae3 f   Columns.obj
 0001:00023aee       __unwindfunclet$?WriteStringValues@DBMemoryBuilder@@AAEXAAVADOLoggingObject@@AAV_bstr_t@@I@Z$2 10024aee f   Columns.obj
 0001:00023af6       __ehhandler$?WriteStringValues@DBMemoryBuilder@@AAEXAAVADOLoggingObject@@AAV_bstr_t@@I@Z 10024af6 f   Columns.obj
 0001:00023b00       __unwindfunclet$?WriteBinaryArray@DBMemoryBuilder@@AAEXAAVADOLoggingObject@@AAV_bstr_t@@AAV_variant_t@@IAAIAA_N@Z$0 10024b00 f   Columns.obj
 0001:00023b08       __unwindfunclet$?WriteBinaryArray@DBMemoryBuilder@@AAEXAAVADOLoggingObject@@AAV_bstr_t@@AAV_variant_t@@IAAIAA_N@Z$1 10024b08 f   Columns.obj
 0001:00023b10       __unwindfunclet$?WriteBinaryArray@DBMemoryBuilder@@AAEXAAVADOLoggingObject@@AAV_bstr_t@@AAV_variant_t@@IAAIAA_N@Z$2 10024b10 f   Columns.obj
 0001:00023b18       __unwindfunclet$?WriteBinaryArray@DBMemoryBuilder@@AAEXAAVADOLoggingObject@@AAV_bstr_t@@AAV_variant_t@@IAAIAA_N@Z$3 10024b18 f   Columns.obj
 0001:00023b20       __unwindfunclet$?WriteBinaryArray@DBMemoryBuilder@@AAEXAAVADOLoggingObject@@AAV_bstr_t@@AAV_variant_t@@IAAIAA_N@Z$4 10024b20 f   Columns.obj
 0001:00023b28       __ehhandler$?WriteBinaryArray@DBMemoryBuilder@@AAEXAAVADOLoggingObject@@AAV_bstr_t@@AAV_variant_t@@IAAIAA_N@Z 10024b28 f   Columns.obj
 0001:00023b40       __unwindfunclet$?EscapeCRLF@DBMemoryBuilder@@AAEXAAV_bstr_t@@@Z$1 10024b40 f   Columns.obj
 0001:00023b4b       __unwindfunclet$?EscapeCRLF@DBMemoryBuilder@@AAEXAAV_bstr_t@@@Z$0 10024b4b f   Columns.obj
 0001:00023b54       __unwindfunclet$?EscapeCRLF@DBMemoryBuilder@@AAEXAAV_bstr_t@@@Z$2 10024b54 f   Columns.obj
 0001:00023b5f       __ehhandler$?EscapeCRLF@DBMemoryBuilder@@AAEXAAV_bstr_t@@@Z 10024b5f f   Columns.obj
 0001:00023b70       __unwindfunclet$?InitForeignKeyInformation@CDbColumn@@QAEXXZ$6 10024b70 f   Columns.obj
 0001:00023b78       __unwindfunclet$?InitForeignKeyInformation@CDbColumn@@QAEXXZ$7 10024b78 f   Columns.obj
 0001:00023b80       __unwindfunclet$?InitForeignKeyInformation@CDbColumn@@QAEXXZ$8 10024b80 f   Columns.obj
 0001:00023b88       __ehhandler$?InitForeignKeyInformation@CDbColumn@@QAEXXZ 10024b88 f   Columns.obj
 0001:00023ba0       __unwindfunclet$?ValidatePreConditions@CDbColumn@@AAE_NAAVLoggingInfo@@@Z$4 10024ba0 f   Columns.obj
 0001:00023ba8       __unwindfunclet$?ValidatePreConditions@CDbColumn@@AAE_NAAVLoggingInfo@@@Z$5 10024ba8 f   Columns.obj
 0001:00023bb0       __unwindfunclet$?ValidatePreConditions@CDbColumn@@AAE_NAAVLoggingInfo@@@Z$8 10024bb0 f   Columns.obj
 0001:00023bb8       __unwindfunclet$?ValidatePreConditions@CDbColumn@@AAE_NAAVLoggingInfo@@@Z$9 10024bb8 f   Columns.obj
 0001:00023bc0       __unwindfunclet$?ValidatePreConditions@CDbColumn@@AAE_NAAVLoggingInfo@@@Z$13 10024bc0 f   Columns.obj
 0001:00023bcb       __unwindfunclet$?ValidatePreConditions@CDbColumn@@AAE_NAAVLoggingInfo@@@Z$12 10024bcb f   Columns.obj
 0001:00023bd3       __unwindfunclet$?ValidatePreConditions@CDbColumn@@AAE_NAAVLoggingInfo@@@Z$11 10024bd3 f   Columns.obj
 0001:00023bdb       __unwindfunclet$?ValidatePreConditions@CDbColumn@@AAE_NAAVLoggingInfo@@@Z$7 10024bdb f   Columns.obj
 0001:00023be3       __ehhandler$?ValidatePreConditions@CDbColumn@@AAE_NAAVLoggingInfo@@@Z 10024be3 f   Columns.obj
 0001:00023bf0       __unwindfunclet$?UpdateOutputValue@CDbColumn@@QAEXAAVLoggingInfo@@V_variant_t@@@Z$0 10024bf0 f   Columns.obj
 0001:00023bf8       __unwindfunclet$?UpdateOutputValue@CDbColumn@@QAEXAAVLoggingInfo@@V_variant_t@@@Z$1 10024bf8 f   Columns.obj
 0001:00023c00       __unwindfunclet$?UpdateOutputValue@CDbColumn@@QAEXAAVLoggingInfo@@V_variant_t@@@Z$2 10024c00 f   Columns.obj
 0001:00023c08       __unwindfunclet$?UpdateOutputValue@CDbColumn@@QAEXAAVLoggingInfo@@V_variant_t@@@Z$3 10024c08 f   Columns.obj
 0001:00023c10       __ehhandler$?UpdateOutputValue@CDbColumn@@QAEXAAVLoggingInfo@@V_variant_t@@@Z 10024c10 f   Columns.obj
 0001:00023c20       __unwindfunclet$?GetName@CDbColumn@@QAE?AV_bstr_t@@XZ$0 10024c20 f   Columns.obj
 0001:00023c20       __unwindfunclet$?GetColumnStatus@CDbColumn@@CA?AV_bstr_t@@J@Z$0 10024c20 f   Columns.obj
 0001:00023c20       __unwindfunclet$?GetIntrinsicTypeName@Statement@@QAE?AV_bstr_t@@W4PropertyValueTypes@TS@@@Z$0 10024c20 f   Columns.obj
 0001:00023c20       __unwindfunclet$?GetForeignKeyName@CDbColumn@@QAE?AV_bstr_t@@XZ$0 10024c20 f   Columns.obj
 0001:00023c20       __unwindfunclet$??H_bstr_t@@QBE?AV0@ABV0@@Z$0 10024c20 f   Columns.obj
 0001:00023c39       __ehhandler$?GetName@CDbColumn@@QAE?AV_bstr_t@@XZ 10024c39 f   Columns.obj
 0001:00023c39       __ehhandler$??H_bstr_t@@QBE?AV0@ABV0@@Z 10024c39 f   Columns.obj
 0001:00023c39       __ehhandler$?GetForeignKeyName@CDbColumn@@QAE?AV_bstr_t@@XZ 10024c39 f   Columns.obj
 0001:00023c39       __ehhandler$?GetColumnStatus@CDbColumn@@CA?AV_bstr_t@@J@Z 10024c39 f   Columns.obj
 0001:00023c39       __ehhandler$?GetIntrinsicTypeName@Statement@@QAE?AV_bstr_t@@W4PropertyValueTypes@TS@@@Z 10024c39 f   Columns.obj
 0001:00023c50       __unwindfunclet$?GetPrimaryKeyValue@CDbColumn@@AAEXAAVLoggingInfo@@AAV_variant_t@@@Z$0 10024c50 f   Columns.obj
 0001:00023c58       __unwindfunclet$?GetPrimaryKeyValue@CDbColumn@@AAEXAAVLoggingInfo@@AAV_variant_t@@@Z$1 10024c58 f   Columns.obj
 0001:00023c60       __unwindfunclet$?GetPrimaryKeyValue@CDbColumn@@AAEXAAVLoggingInfo@@AAV_variant_t@@@Z$2 10024c60 f   Columns.obj
 0001:00023c68       __unwindfunclet$?GetPrimaryKeyValue@CDbColumn@@AAEXAAVLoggingInfo@@AAV_variant_t@@@Z$3 10024c68 f   Columns.obj
 0001:00023c70       __unwindfunclet$?GetPrimaryKeyValue@CDbColumn@@AAEXAAVLoggingInfo@@AAV_variant_t@@@Z$15 10024c70 f   Columns.obj
 0001:00023c78       __unwindfunclet$?GetPrimaryKeyValue@CDbColumn@@AAEXAAVLoggingInfo@@AAV_variant_t@@@Z$16 10024c78 f   Columns.obj
 0001:00023c80       __unwindfunclet$?GetPrimaryKeyValue@CDbColumn@@AAEXAAVLoggingInfo@@AAV_variant_t@@@Z$4 10024c80 f   Columns.obj
 0001:00023c88       __unwindfunclet$?GetPrimaryKeyValue@CDbColumn@@AAEXAAVLoggingInfo@@AAV_variant_t@@@Z$5 10024c88 f   Columns.obj
 0001:00023c90       __unwindfunclet$?GetPrimaryKeyValue@CDbColumn@@AAEXAAVLoggingInfo@@AAV_variant_t@@@Z$6 10024c90 f   Columns.obj
 0001:00023c98       __unwindfunclet$?GetPrimaryKeyValue@CDbColumn@@AAEXAAVLoggingInfo@@AAV_variant_t@@@Z$7 10024c98 f   Columns.obj
 0001:00023ca0       __unwindfunclet$?GetPrimaryKeyValue@CDbColumn@@AAEXAAVLoggingInfo@@AAV_variant_t@@@Z$8 10024ca0 f   Columns.obj
 0001:00023ca8       __unwindfunclet$?GetPrimaryKeyValue@CDbColumn@@AAEXAAVLoggingInfo@@AAV_variant_t@@@Z$10 10024ca8 f   Columns.obj
 0001:00023cb0       __unwindfunclet$?GetPrimaryKeyValue@CDbColumn@@AAEXAAVLoggingInfo@@AAV_variant_t@@@Z$11 10024cb0 f   Columns.obj
 0001:00023cb8       __unwindfunclet$?GetPrimaryKeyValue@CDbColumn@@AAEXAAVLoggingInfo@@AAV_variant_t@@@Z$12 10024cb8 f   Columns.obj
 0001:00023cc0       __unwindfunclet$?GetPrimaryKeyValue@CDbColumn@@AAEXAAVLoggingInfo@@AAV_variant_t@@@Z$13 10024cc0 f   Columns.obj
 0001:00023cc8       __unwindfunclet$?GetPrimaryKeyValue@CDbColumn@@AAEXAAVLoggingInfo@@AAV_variant_t@@@Z$14 10024cc8 f   Columns.obj
 0001:00023cd0       __ehhandler$?GetPrimaryKeyValue@CDbColumn@@AAEXAAVLoggingInfo@@AAV_variant_t@@@Z 10024cd0 f   Columns.obj
 0001:00023ce0       __ehhandler$??$_Uninit_move@PAV_variant_t@@PAV1@V?$allocator@V_variant_t@@@std@@V1@@std@@YAPAV_variant_t@@PAV1@00AAV?$allocator@V_variant_t@@@0@0U_Nonscalar_ptr_iterator_tag@0@@Z 10024ce0 f   Columns.obj
 0001:00023cf0       __unwindfunclet$?ChangeArrayType@DBMemoryBuilder@@AAEXAAV_variant_t@@G@Z$0 10024cf0 f   Columns.obj
 0001:00023cf8       __unwindfunclet$?ChangeArrayType@DBMemoryBuilder@@AAEXAAV_variant_t@@G@Z$1 10024cf8 f   Columns.obj
 0001:00023d00       __unwindfunclet$?ChangeArrayType@DBMemoryBuilder@@AAEXAAV_variant_t@@G@Z$2 10024d00 f   Columns.obj
 0001:00023d08       __ehhandler$?ChangeArrayType@DBMemoryBuilder@@AAEXAAV_variant_t@@G@Z 10024d08 f   Columns.obj
 0001:00023d20       __unwindfunclet$?WriteBinaryValues@DBMemoryBuilder@@AAEXAAVADOLoggingObject@@AAV_bstr_t@@I@Z$1 10024d20 f   Columns.obj
 0001:00023d28       __unwindfunclet$?WriteBinaryValues@DBMemoryBuilder@@AAEXAAVADOLoggingObject@@AAV_bstr_t@@I@Z$0 10024d28 f   Columns.obj
 0001:00023d30       __ehhandler$?WriteBinaryValues@DBMemoryBuilder@@AAEXAAVADOLoggingObject@@AAV_bstr_t@@I@Z 10024d30 f   Columns.obj
 0001:00023d40       __unwindfunclet$??$_Rotate@PAV_bstr_t@@HV1@@std@@YAXPAV_bstr_t@@00PAH0@Z$0 10024d40 f   Columns.obj
 0001:00023d48       __ehhandler$??$_Rotate@PAV_bstr_t@@HV1@@std@@YAXPAV_bstr_t@@00PAH0@Z 10024d48 f   Columns.obj
 0001:00023d60       __ehhandler$?reserve@?$vector@V_variant_t@@V?$allocator@V_variant_t@@@std@@@std@@QAEXI@Z 10024d60 f   Columns.obj
 0001:00023d70       __ehhandler$??$_Uninit_move@PAV_bstr_t@@PAV1@V?$allocator@V_bstr_t@@@std@@V1@@std@@YAPAV_bstr_t@@PAV1@00AAV?$allocator@V_bstr_t@@@0@0U_Nonscalar_ptr_iterator_tag@0@@Z 10024d70 f   Columns.obj
 0001:00023d80       __unwindfunclet$??1DBMemoryBuilder@@QAE@XZ$0 10024d80 f   Columns.obj
 0001:00023d80       __unwindfunclet$??0DBMemoryBuilder@@QAE@W4ColDataType@@@Z$0 10024d80 f   Columns.obj
 0001:00023d8b       __ehhandler$??0DBMemoryBuilder@@QAE@W4ColDataType@@@Z 10024d8b f   Columns.obj
 0001:00023d8b       __ehhandler$??1DBMemoryBuilder@@QAE@XZ 10024d8b f   Columns.obj
 0001:00023da0       __unwindfunclet$??$emplace_back@AAY0EA@_W@?$vector@V_variant_t@@V?$allocator@V_variant_t@@@std@@@std@@QAEXAAY0EA@_W@Z$0 10024da0 f   Columns.obj
 0001:00023da0       __unwindfunclet$??$emplace@AAV_variant_t@@@?$vector@V_variant_t@@V?$allocator@V_variant_t@@@std@@@std@@QAE?AV?$_Vector_iterator@V?$_Vector_val@V_variant_t@@V?$allocator@V_variant_t@@@std@@@std@@@1@V?$_Vector_const_iterator@V?$_Vector_val@V_variant_t@@V?$allocator@V_variant_t@@@std@@@std@@@1@AAV_variant_t@@@Z$0 10024da0 f   Columns.obj
 0001:00023da0       __unwindfunclet$??$emplace@AAV_bstr_t@@@?$vector@V_variant_t@@V?$allocator@V_variant_t@@@std@@@std@@QAE?AV?$_Vector_iterator@V?$_Vector_val@V_variant_t@@V?$allocator@V_variant_t@@@std@@@std@@@1@V?$_Vector_const_iterator@V?$_Vector_val@V_variant_t@@V?$allocator@V_variant_t@@@std@@@std@@@1@AAV_bstr_t@@@Z$0 10024da0 f   Columns.obj
 0001:00023db1       __ehhandler$??$emplace@AAV_bstr_t@@@?$vector@V_variant_t@@V?$allocator@V_variant_t@@@std@@@std@@QAE?AV?$_Vector_iterator@V?$_Vector_val@V_variant_t@@V?$allocator@V_variant_t@@@std@@@std@@@1@V?$_Vector_const_iterator@V?$_Vector_val@V_variant_t@@V?$allocator@V_variant_t@@@std@@@std@@@1@AAV_bstr_t@@@Z 10024db1 f   Columns.obj
 0001:00023db1       __ehhandler$??$emplace@AAV_variant_t@@@?$vector@V_variant_t@@V?$allocator@V_variant_t@@@std@@@std@@QAE?AV?$_Vector_iterator@V?$_Vector_val@V_variant_t@@V?$allocator@V_variant_t@@@std@@@std@@@1@V?$_Vector_const_iterator@V?$_Vector_val@V_variant_t@@V?$allocator@V_variant_t@@@std@@@std@@@1@AAV_variant_t@@@Z 10024db1 f   Columns.obj
 0001:00023db1       __ehhandler$??$emplace_back@AAY0EA@_W@?$vector@V_variant_t@@V?$allocator@V_variant_t@@@std@@@std@@QAEXAAY0EA@_W@Z 10024db1 f   Columns.obj
 0001:00023dc0       __ehhandler$?reserve@?$vector@V_bstr_t@@V?$allocator@V_bstr_t@@@std@@@std@@QAEXI@Z 10024dc0 f   Columns.obj
 0001:00023dd0       __unwindfunclet$?AppendNumber@DBMemoryBuilder@@AAEXAAV?$_com_ptr_t@V?$_com_IIID@UPropertyObject@TS@@$1?_GUID_8d8769a0_09c0_11d1_93bd_0020af68e893@@3U__s_GUID@@B@@@@G@Z$0 10024dd0 f   Columns.obj
 0001:00023dd8       __unwindfunclet$?AppendNumber@DBMemoryBuilder@@AAEXAAV?$_com_ptr_t@V?$_com_IIID@UPropertyObject@TS@@$1?_GUID_8d8769a0_09c0_11d1_93bd_0020af68e893@@3U__s_GUID@@B@@@@G@Z$1 10024dd8 f   Columns.obj
 0001:00023de0       __unwindfunclet$?AppendNumber@DBMemoryBuilder@@AAEXAAV?$_com_ptr_t@V?$_com_IIID@UPropertyObject@TS@@$1?_GUID_8d8769a0_09c0_11d1_93bd_0020af68e893@@3U__s_GUID@@B@@@@G@Z$2 10024de0 f   Columns.obj
 0001:00023de8       __unwindfunclet$?AppendNumber@DBMemoryBuilder@@AAEXAAV?$_com_ptr_t@V?$_com_IIID@UPropertyObject@TS@@$1?_GUID_8d8769a0_09c0_11d1_93bd_0020af68e893@@3U__s_GUID@@B@@@@G@Z$3 10024de8 f   Columns.obj
 0001:00023df0       __unwindfunclet$?AppendNumber@DBMemoryBuilder@@AAEXAAV?$_com_ptr_t@V?$_com_IIID@UPropertyObject@TS@@$1?_GUID_8d8769a0_09c0_11d1_93bd_0020af68e893@@3U__s_GUID@@B@@@@G@Z$4 10024df0 f   Columns.obj
 0001:00023df8       __unwindfunclet$?AppendNumber@DBMemoryBuilder@@AAEXAAV?$_com_ptr_t@V?$_com_IIID@UPropertyObject@TS@@$1?_GUID_8d8769a0_09c0_11d1_93bd_0020af68e893@@3U__s_GUID@@B@@@@G@Z$5 10024df8 f   Columns.obj
 0001:00023e00       __ehhandler$?AppendNumber@DBMemoryBuilder@@AAEXAAV?$_com_ptr_t@V?$_com_IIID@UPropertyObject@TS@@$1?_GUID_8d8769a0_09c0_11d1_93bd_0020af68e893@@3U__s_GUID@@B@@@@G@Z 10024e00 f   Columns.obj
 0001:00023e10       __unwindfunclet$?AppendString@DBMemoryBuilder@@AAEXAAV?$_com_ptr_t@V?$_com_IIID@UPropertyObject@TS@@$1?_GUID_8d8769a0_09c0_11d1_93bd_0020af68e893@@3U__s_GUID@@B@@@@V_bstr_t@@_N@Z$0 10024e10 f   Columns.obj
 0001:00023e18       __unwindfunclet$?AppendString@DBMemoryBuilder@@AAEXAAV?$_com_ptr_t@V?$_com_IIID@UPropertyObject@TS@@$1?_GUID_8d8769a0_09c0_11d1_93bd_0020af68e893@@3U__s_GUID@@B@@@@V_bstr_t@@_N@Z$4 10024e18 f   Columns.obj
 0001:00023e23       __unwindfunclet$?AppendString@DBMemoryBuilder@@AAEXAAV?$_com_ptr_t@V?$_com_IIID@UPropertyObject@TS@@$1?_GUID_8d8769a0_09c0_11d1_93bd_0020af68e893@@3U__s_GUID@@B@@@@V_bstr_t@@_N@Z$1 10024e23 f   Columns.obj
 0001:00023e2b       __unwindfunclet$?AppendString@DBMemoryBuilder@@AAEXAAV?$_com_ptr_t@V?$_com_IIID@UPropertyObject@TS@@$1?_GUID_8d8769a0_09c0_11d1_93bd_0020af68e893@@3U__s_GUID@@B@@@@V_bstr_t@@_N@Z$2 10024e2b f   Columns.obj
 0001:00023e33       __unwindfunclet$?AppendString@DBMemoryBuilder@@AAEXAAV?$_com_ptr_t@V?$_com_IIID@UPropertyObject@TS@@$1?_GUID_8d8769a0_09c0_11d1_93bd_0020af68e893@@3U__s_GUID@@B@@@@V_bstr_t@@_N@Z$3 10024e33 f   Columns.obj
 0001:00023e3c       __ehhandler$?AppendString@DBMemoryBuilder@@AAEXAAV?$_com_ptr_t@V?$_com_IIID@UPropertyObject@TS@@$1?_GUID_8d8769a0_09c0_11d1_93bd_0020af68e893@@3U__s_GUID@@B@@@@V_bstr_t@@_N@Z 10024e3c f   Columns.obj
 0001:00023e50       __unwindfunclet$?AppendBoolean@DBMemoryBuilder@@AAEXAAV?$_com_ptr_t@V?$_com_IIID@UPropertyObject@TS@@$1?_GUID_8d8769a0_09c0_11d1_93bd_0020af68e893@@3U__s_GUID@@B@@@@G@Z$3 10024e50 f   Columns.obj
 0001:00023e5b       __unwindfunclet$?AppendBoolean@DBMemoryBuilder@@AAEXAAV?$_com_ptr_t@V?$_com_IIID@UPropertyObject@TS@@$1?_GUID_8d8769a0_09c0_11d1_93bd_0020af68e893@@3U__s_GUID@@B@@@@G@Z$0 10024e5b f   Columns.obj
 0001:00023e63       __unwindfunclet$?AppendBoolean@DBMemoryBuilder@@AAEXAAV?$_com_ptr_t@V?$_com_IIID@UPropertyObject@TS@@$1?_GUID_8d8769a0_09c0_11d1_93bd_0020af68e893@@3U__s_GUID@@B@@@@G@Z$1 10024e63 f   Columns.obj
 0001:00023e6b       __unwindfunclet$?AppendBoolean@DBMemoryBuilder@@AAEXAAV?$_com_ptr_t@V?$_com_IIID@UPropertyObject@TS@@$1?_GUID_8d8769a0_09c0_11d1_93bd_0020af68e893@@3U__s_GUID@@B@@@@G@Z$2 10024e6b f   Columns.obj
 0001:00023e73       __ehhandler$?AppendBoolean@DBMemoryBuilder@@AAEXAAV?$_com_ptr_t@V?$_com_IIID@UPropertyObject@TS@@$1?_GUID_8d8769a0_09c0_11d1_93bd_0020af68e893@@3U__s_GUID@@B@@@@G@Z 10024e73 f   Columns.obj
 0001:00023e80       __unwindfunclet$?AppendNumericArray@DBMemoryBuilder@@AAEXAAV?$_com_ptr_t@V?$_com_IIID@UPropertyObject@TS@@$1?_GUID_8d8769a0_09c0_11d1_93bd_0020af68e893@@3U__s_GUID@@B@@@@G@Z$3 10024e80 f   Columns.obj
 0001:00023e8e       __unwindfunclet$?AppendNumericArray@DBMemoryBuilder@@AAEXAAV?$_com_ptr_t@V?$_com_IIID@UPropertyObject@TS@@$1?_GUID_8d8769a0_09c0_11d1_93bd_0020af68e893@@3U__s_GUID@@B@@@@G@Z$0 10024e8e f   Columns.obj
 0001:00023e99       __unwindfunclet$?AppendNumericArray@DBMemoryBuilder@@AAEXAAV?$_com_ptr_t@V?$_com_IIID@UPropertyObject@TS@@$1?_GUID_8d8769a0_09c0_11d1_93bd_0020af68e893@@3U__s_GUID@@B@@@@G@Z$1 10024e99 f   Columns.obj
 0001:00023ea4       __unwindfunclet$?AppendNumericArray@DBMemoryBuilder@@AAEXAAV?$_com_ptr_t@V?$_com_IIID@UPropertyObject@TS@@$1?_GUID_8d8769a0_09c0_11d1_93bd_0020af68e893@@3U__s_GUID@@B@@@@G@Z$2 10024ea4 f   Columns.obj
 0001:00023eaf       __ehhandler$?AppendNumericArray@DBMemoryBuilder@@AAEXAAV?$_com_ptr_t@V?$_com_IIID@UPropertyObject@TS@@$1?_GUID_8d8769a0_09c0_11d1_93bd_0020af68e893@@3U__s_GUID@@B@@@@G@Z 10024eaf f   Columns.obj
 0001:00023ec0       __unwindfunclet$?AppendStringArray@DBMemoryBuilder@@AAEXAAV?$_com_ptr_t@V?$_com_IIID@UPropertyObject@TS@@$1?_GUID_8d8769a0_09c0_11d1_93bd_0020af68e893@@3U__s_GUID@@B@@@@@Z$4 10024ec0 f   Columns.obj
 0001:00023ecb       __unwindfunclet$?AppendStringArray@DBMemoryBuilder@@AAEXAAV?$_com_ptr_t@V?$_com_IIID@UPropertyObject@TS@@$1?_GUID_8d8769a0_09c0_11d1_93bd_0020af68e893@@3U__s_GUID@@B@@@@@Z$0 10024ecb f   Columns.obj
 0001:00023ed3       __unwindfunclet$?AppendStringArray@DBMemoryBuilder@@AAEXAAV?$_com_ptr_t@V?$_com_IIID@UPropertyObject@TS@@$1?_GUID_8d8769a0_09c0_11d1_93bd_0020af68e893@@3U__s_GUID@@B@@@@@Z$1 10024ed3 f   Columns.obj
 0001:00023edb       __unwindfunclet$?AppendStringArray@DBMemoryBuilder@@AAEXAAV?$_com_ptr_t@V?$_com_IIID@UPropertyObject@TS@@$1?_GUID_8d8769a0_09c0_11d1_93bd_0020af68e893@@3U__s_GUID@@B@@@@@Z$2 10024edb f   Columns.obj
 0001:00023ee3       __unwindfunclet$?AppendStringArray@DBMemoryBuilder@@AAEXAAV?$_com_ptr_t@V?$_com_IIID@UPropertyObject@TS@@$1?_GUID_8d8769a0_09c0_11d1_93bd_0020af68e893@@3U__s_GUID@@B@@@@@Z$5 10024ee3 f   Columns.obj
 0001:00023eee       __unwindfunclet$?AppendStringArray@DBMemoryBuilder@@AAEXAAV?$_com_ptr_t@V?$_com_IIID@UPropertyObject@TS@@$1?_GUID_8d8769a0_09c0_11d1_93bd_0020af68e893@@3U__s_GUID@@B@@@@@Z$3 10024eee f   Columns.obj
 0001:00023ef6       __ehhandler$?AppendStringArray@DBMemoryBuilder@@AAEXAAV?$_com_ptr_t@V?$_com_IIID@UPropertyObject@TS@@$1?_GUID_8d8769a0_09c0_11d1_93bd_0020af68e893@@3U__s_GUID@@B@@@@@Z 10024ef6 f   Columns.obj
 0001:00023f00       __unwindfunclet$?AppendBooleanArray@DBMemoryBuilder@@AAEXAAV?$_com_ptr_t@V?$_com_IIID@UPropertyObject@TS@@$1?_GUID_8d8769a0_09c0_11d1_93bd_0020af68e893@@3U__s_GUID@@B@@@@G@Z$5 10024f00 f   Columns.obj
 0001:00023f0b       __unwindfunclet$?AppendBooleanArray@DBMemoryBuilder@@AAEXAAV?$_com_ptr_t@V?$_com_IIID@UPropertyObject@TS@@$1?_GUID_8d8769a0_09c0_11d1_93bd_0020af68e893@@3U__s_GUID@@B@@@@G@Z$0 10024f0b f   Columns.obj
 0001:00023f13       __unwindfunclet$?AppendBooleanArray@DBMemoryBuilder@@AAEXAAV?$_com_ptr_t@V?$_com_IIID@UPropertyObject@TS@@$1?_GUID_8d8769a0_09c0_11d1_93bd_0020af68e893@@3U__s_GUID@@B@@@@G@Z$1 10024f13 f   Columns.obj
 0001:00023f1b       __unwindfunclet$?AppendBooleanArray@DBMemoryBuilder@@AAEXAAV?$_com_ptr_t@V?$_com_IIID@UPropertyObject@TS@@$1?_GUID_8d8769a0_09c0_11d1_93bd_0020af68e893@@3U__s_GUID@@B@@@@G@Z$2 10024f1b f   Columns.obj
 0001:00023f23       __unwindfunclet$?AppendBooleanArray@DBMemoryBuilder@@AAEXAAV?$_com_ptr_t@V?$_com_IIID@UPropertyObject@TS@@$1?_GUID_8d8769a0_09c0_11d1_93bd_0020af68e893@@3U__s_GUID@@B@@@@G@Z$3 10024f23 f   Columns.obj
 0001:00023f2b       __unwindfunclet$?AppendBooleanArray@DBMemoryBuilder@@AAEXAAV?$_com_ptr_t@V?$_com_IIID@UPropertyObject@TS@@$1?_GUID_8d8769a0_09c0_11d1_93bd_0020af68e893@@3U__s_GUID@@B@@@@G@Z$6 10024f2b f   Columns.obj
 0001:00023f36       __unwindfunclet$?AppendBooleanArray@DBMemoryBuilder@@AAEXAAV?$_com_ptr_t@V?$_com_IIID@UPropertyObject@TS@@$1?_GUID_8d8769a0_09c0_11d1_93bd_0020af68e893@@3U__s_GUID@@B@@@@G@Z$4 10024f36 f   Columns.obj
 0001:00023f3e       __ehhandler$?AppendBooleanArray@DBMemoryBuilder@@AAEXAAV?$_com_ptr_t@V?$_com_IIID@UPropertyObject@TS@@$1?_GUID_8d8769a0_09c0_11d1_93bd_0020af68e893@@3U__s_GUID@@B@@@@G@Z 10024f3e f   Columns.obj
 0001:00023f50       __unwindfunclet$?push_back@?$vector@V_bstr_t@@V?$allocator@V_bstr_t@@@std@@@std@@QAEX$$QAV_bstr_t@@@Z$0 10024f50 f   Columns.obj
 0001:00023f61       __unwindfunclet$?push_back@?$vector@V_bstr_t@@V?$allocator@V_bstr_t@@@std@@@std@@QAEX$$QAV_bstr_t@@@Z$1 10024f61 f   Columns.obj
 0001:00023f72       __ehhandler$?push_back@?$vector@V_bstr_t@@V?$allocator@V_bstr_t@@@std@@@std@@QAEX$$QAV_bstr_t@@@Z 10024f72 f   Columns.obj
 0001:00023f80       __unwindfunclet$?Append@DBMemoryBuilder@@QAEXAAV?$_com_ptr_t@V?$_com_IIID@UPropertyObject@TS@@$1?_GUID_8d8769a0_09c0_11d1_93bd_0020af68e893@@3U__s_GUID@@B@@@@AAV_bstr_t@@HV3@@Z$0 10024f80 f   Columns.obj
 0001:00023f88       __unwindfunclet$?Append@DBMemoryBuilder@@QAEXAAV?$_com_ptr_t@V?$_com_IIID@UPropertyObject@TS@@$1?_GUID_8d8769a0_09c0_11d1_93bd_0020af68e893@@3U__s_GUID@@B@@@@AAV_bstr_t@@HV3@@Z$1 10024f88 f   Columns.obj
 0001:00023f90       __unwindfunclet$?Append@DBMemoryBuilder@@QAEXAAV?$_com_ptr_t@V?$_com_IIID@UPropertyObject@TS@@$1?_GUID_8d8769a0_09c0_11d1_93bd_0020af68e893@@3U__s_GUID@@B@@@@AAV_bstr_t@@HV3@@Z$2 10024f90 f   Columns.obj
 0001:00023f98       __unwindfunclet$?Append@DBMemoryBuilder@@QAEXAAV?$_com_ptr_t@V?$_com_IIID@UPropertyObject@TS@@$1?_GUID_8d8769a0_09c0_11d1_93bd_0020af68e893@@3U__s_GUID@@B@@@@AAV_bstr_t@@HV3@@Z$3 10024f98 f   Columns.obj
 0001:00023fa0       __unwindfunclet$?Append@DBMemoryBuilder@@QAEXAAV?$_com_ptr_t@V?$_com_IIID@UPropertyObject@TS@@$1?_GUID_8d8769a0_09c0_11d1_93bd_0020af68e893@@3U__s_GUID@@B@@@@AAV_bstr_t@@HV3@@Z$4 10024fa0 f   Columns.obj
 0001:00023fa8       __unwindfunclet$?Append@DBMemoryBuilder@@QAEXAAV?$_com_ptr_t@V?$_com_IIID@UPropertyObject@TS@@$1?_GUID_8d8769a0_09c0_11d1_93bd_0020af68e893@@3U__s_GUID@@B@@@@AAV_bstr_t@@HV3@@Z$5 10024fa8 f   Columns.obj
 0001:00023fb0       __unwindfunclet$?Append@DBMemoryBuilder@@QAEXAAV?$_com_ptr_t@V?$_com_IIID@UPropertyObject@TS@@$1?_GUID_8d8769a0_09c0_11d1_93bd_0020af68e893@@3U__s_GUID@@B@@@@AAV_bstr_t@@HV3@@Z$6 10024fb0 f   Columns.obj
 0001:00023fb9       __unwindfunclet$?Append@DBMemoryBuilder@@QAEXAAV?$_com_ptr_t@V?$_com_IIID@UPropertyObject@TS@@$1?_GUID_8d8769a0_09c0_11d1_93bd_0020af68e893@@3U__s_GUID@@B@@@@AAV_bstr_t@@HV3@@Z$7 10024fb9 f   Columns.obj
 0001:00023fc1       __unwindfunclet$?Append@DBMemoryBuilder@@QAEXAAV?$_com_ptr_t@V?$_com_IIID@UPropertyObject@TS@@$1?_GUID_8d8769a0_09c0_11d1_93bd_0020af68e893@@3U__s_GUID@@B@@@@AAV_bstr_t@@HV3@@Z$8 10024fc1 f   Columns.obj
 0001:00023fc9       __unwindfunclet$?Append@DBMemoryBuilder@@QAEXAAV?$_com_ptr_t@V?$_com_IIID@UPropertyObject@TS@@$1?_GUID_8d8769a0_09c0_11d1_93bd_0020af68e893@@3U__s_GUID@@B@@@@AAV_bstr_t@@HV3@@Z$9 10024fc9 f   Columns.obj
 0001:00023fd1       __unwindfunclet$?Append@DBMemoryBuilder@@QAEXAAV?$_com_ptr_t@V?$_com_IIID@UPropertyObject@TS@@$1?_GUID_8d8769a0_09c0_11d1_93bd_0020af68e893@@3U__s_GUID@@B@@@@AAV_bstr_t@@HV3@@Z$10 10024fd1 f   Columns.obj
 0001:00023fd9       __unwindfunclet$?Append@DBMemoryBuilder@@QAEXAAV?$_com_ptr_t@V?$_com_IIID@UPropertyObject@TS@@$1?_GUID_8d8769a0_09c0_11d1_93bd_0020af68e893@@3U__s_GUID@@B@@@@AAV_bstr_t@@HV3@@Z$11 10024fd9 f   Columns.obj
 0001:00023fe1       __ehhandler$?Append@DBMemoryBuilder@@QAEXAAV?$_com_ptr_t@V?$_com_IIID@UPropertyObject@TS@@$1?_GUID_8d8769a0_09c0_11d1_93bd_0020af68e893@@3U__s_GUID@@B@@@@AAV_bstr_t@@HV3@@Z 10024fe1 f   Columns.obj
 0001:00023ff0       __unwindfunclet$?SetColumn@CDbColumn@@QAEXAAVLoggingInfo@@AAVADOLoggingObject@@H@Z$8 10024ff0 f   Columns.obj
 0001:00023ff8       __unwindfunclet$?SetColumn@CDbColumn@@QAEXAAVLoggingInfo@@AAVADOLoggingObject@@H@Z$9 10024ff8 f   Columns.obj
 0001:00024000       __unwindfunclet$?SetColumn@CDbColumn@@QAEXAAVLoggingInfo@@AAVADOLoggingObject@@H@Z$10 10025000 f   Columns.obj
 0001:00024008       __unwindfunclet$?SetColumn@CDbColumn@@QAEXAAVLoggingInfo@@AAVADOLoggingObject@@H@Z$11 10025008 f   Columns.obj
 0001:00024010       __unwindfunclet$?SetColumn@CDbColumn@@QAEXAAVLoggingInfo@@AAVADOLoggingObject@@H@Z$12 10025010 f   Columns.obj
 0001:00024018       __unwindfunclet$?SetColumn@CDbColumn@@QAEXAAVLoggingInfo@@AAVADOLoggingObject@@H@Z$13 10025018 f   Columns.obj
 0001:00024020       __unwindfunclet$?SetColumn@CDbColumn@@QAEXAAVLoggingInfo@@AAVADOLoggingObject@@H@Z$14 10025020 f   Columns.obj
 0001:00024028       __unwindfunclet$?SetColumn@CDbColumn@@QAEXAAVLoggingInfo@@AAVADOLoggingObject@@H@Z$15 10025028 f   Columns.obj
 0001:00024030       __unwindfunclet$?SetColumn@CDbColumn@@QAEXAAVLoggingInfo@@AAVADOLoggingObject@@H@Z$16 10025030 f   Columns.obj
 0001:00024038       __unwindfunclet$?SetColumn@CDbColumn@@QAEXAAVLoggingInfo@@AAVADOLoggingObject@@H@Z$17 10025038 f   Columns.obj
 0001:00024040       __unwindfunclet$?SetColumn@CDbColumn@@QAEXAAVLoggingInfo@@AAVADOLoggingObject@@H@Z$18 10025040 f   Columns.obj
 0001:00024048       __unwindfunclet$?SetColumn@CDbColumn@@QAEXAAVLoggingInfo@@AAVADOLoggingObject@@H@Z$19 10025048 f   Columns.obj
 0001:00024050       __unwindfunclet$?SetColumn@CDbColumn@@QAEXAAVLoggingInfo@@AAVADOLoggingObject@@H@Z$20 10025050 f   Columns.obj
 0001:00024058       __unwindfunclet$?SetColumn@CDbColumn@@QAEXAAVLoggingInfo@@AAVADOLoggingObject@@H@Z$21 10025058 f   Columns.obj
 0001:00024060       __unwindfunclet$?SetColumn@CDbColumn@@QAEXAAVLoggingInfo@@AAVADOLoggingObject@@H@Z$22 10025060 f   Columns.obj
 0001:00024068       __unwindfunclet$?SetColumn@CDbColumn@@QAEXAAVLoggingInfo@@AAVADOLoggingObject@@H@Z$23 10025068 f   Columns.obj
 0001:00024070       __unwindfunclet$?SetColumn@CDbColumn@@QAEXAAVLoggingInfo@@AAVADOLoggingObject@@H@Z$24 10025070 f   Columns.obj
 0001:00024078       __unwindfunclet$?SetColumn@CDbColumn@@QAEXAAVLoggingInfo@@AAVADOLoggingObject@@H@Z$25 10025078 f   Columns.obj
 0001:00024080       __unwindfunclet$?SetColumn@CDbColumn@@QAEXAAVLoggingInfo@@AAVADOLoggingObject@@H@Z$26 10025080 f   Columns.obj
 0001:00024088       __unwindfunclet$?SetColumn@CDbColumn@@QAEXAAVLoggingInfo@@AAVADOLoggingObject@@H@Z$27 10025088 f   Columns.obj
 0001:00024090       __unwindfunclet$?SetColumn@CDbColumn@@QAEXAAVLoggingInfo@@AAVADOLoggingObject@@H@Z$28 10025090 f   Columns.obj
 0001:00024098       __unwindfunclet$?SetColumn@CDbColumn@@QAEXAAVLoggingInfo@@AAVADOLoggingObject@@H@Z$29 10025098 f   Columns.obj
 0001:000240a0       __unwindfunclet$?SetColumn@CDbColumn@@QAEXAAVLoggingInfo@@AAVADOLoggingObject@@H@Z$30 100250a0 f   Columns.obj
 0001:000240a8       __unwindfunclet$?SetColumn@CDbColumn@@QAEXAAVLoggingInfo@@AAVADOLoggingObject@@H@Z$31 100250a8 f   Columns.obj
 0001:000240b0       __unwindfunclet$?SetColumn@CDbColumn@@QAEXAAVLoggingInfo@@AAVADOLoggingObject@@H@Z$32 100250b0 f   Columns.obj
 0001:000240b8       __unwindfunclet$?SetColumn@CDbColumn@@QAEXAAVLoggingInfo@@AAVADOLoggingObject@@H@Z$33 100250b8 f   Columns.obj
 0001:000240c0       __unwindfunclet$?SetColumn@CDbColumn@@QAEXAAVLoggingInfo@@AAVADOLoggingObject@@H@Z$34 100250c0 f   Columns.obj
 0001:000240c8       __unwindfunclet$?SetColumn@CDbColumn@@QAEXAAVLoggingInfo@@AAVADOLoggingObject@@H@Z$35 100250c8 f   Columns.obj
 0001:000240d0       __unwindfunclet$?SetColumn@CDbColumn@@QAEXAAVLoggingInfo@@AAVADOLoggingObject@@H@Z$36 100250d0 f   Columns.obj
 0001:000240d8       __unwindfunclet$?SetColumn@CDbColumn@@QAEXAAVLoggingInfo@@AAVADOLoggingObject@@H@Z$37 100250d8 f   Columns.obj
 0001:000240e0       __unwindfunclet$?SetColumn@CDbColumn@@QAEXAAVLoggingInfo@@AAVADOLoggingObject@@H@Z$38 100250e0 f   Columns.obj
 0001:000240e8       __unwindfunclet$?SetColumn@CDbColumn@@QAEXAAVLoggingInfo@@AAVADOLoggingObject@@H@Z$39 100250e8 f   Columns.obj
 0001:000240f0       __unwindfunclet$?SetColumn@CDbColumn@@QAEXAAVLoggingInfo@@AAVADOLoggingObject@@H@Z$40 100250f0 f   Columns.obj
 0001:000240f8       __unwindfunclet$?SetColumn@CDbColumn@@QAEXAAVLoggingInfo@@AAVADOLoggingObject@@H@Z$41 100250f8 f   Columns.obj
 0001:00024100       __unwindfunclet$?SetColumn@CDbColumn@@QAEXAAVLoggingInfo@@AAVADOLoggingObject@@H@Z$42 10025100 f   Columns.obj
 0001:00024108       __unwindfunclet$?SetColumn@CDbColumn@@QAEXAAVLoggingInfo@@AAVADOLoggingObject@@H@Z$43 10025108 f   Columns.obj
 0001:00024110       __unwindfunclet$?SetColumn@CDbColumn@@QAEXAAVLoggingInfo@@AAVADOLoggingObject@@H@Z$44 10025110 f   Columns.obj
 0001:00024118       __unwindfunclet$?SetColumn@CDbColumn@@QAEXAAVLoggingInfo@@AAVADOLoggingObject@@H@Z$45 10025118 f   Columns.obj
 0001:00024120       __unwindfunclet$?SetColumn@CDbColumn@@QAEXAAVLoggingInfo@@AAVADOLoggingObject@@H@Z$46 10025120 f   Columns.obj
 0001:00024128       __unwindfunclet$?SetColumn@CDbColumn@@QAEXAAVLoggingInfo@@AAVADOLoggingObject@@H@Z$47 10025128 f   Columns.obj
 0001:00024130       __unwindfunclet$?SetColumn@CDbColumn@@QAEXAAVLoggingInfo@@AAVADOLoggingObject@@H@Z$48 10025130 f   Columns.obj
 0001:00024138       __unwindfunclet$?SetColumn@CDbColumn@@QAEXAAVLoggingInfo@@AAVADOLoggingObject@@H@Z$49 10025138 f   Columns.obj
 0001:00024140       __unwindfunclet$?SetColumn@CDbColumn@@QAEXAAVLoggingInfo@@AAVADOLoggingObject@@H@Z$50 10025140 f   Columns.obj
 0001:00024148       __unwindfunclet$?SetColumn@CDbColumn@@QAEXAAVLoggingInfo@@AAVADOLoggingObject@@H@Z$51 10025148 f   Columns.obj
 0001:00024150       __unwindfunclet$?SetColumn@CDbColumn@@QAEXAAVLoggingInfo@@AAVADOLoggingObject@@H@Z$52 10025150 f   Columns.obj
 0001:00024158       __unwindfunclet$?SetColumn@CDbColumn@@QAEXAAVLoggingInfo@@AAVADOLoggingObject@@H@Z$53 10025158 f   Columns.obj
 0001:00024160       __unwindfunclet$?SetColumn@CDbColumn@@QAEXAAVLoggingInfo@@AAVADOLoggingObject@@H@Z$54 10025160 f   Columns.obj
 0001:00024168       __unwindfunclet$?SetColumn@CDbColumn@@QAEXAAVLoggingInfo@@AAVADOLoggingObject@@H@Z$55 10025168 f   Columns.obj
 0001:00024170       __unwindfunclet$?SetColumn@CDbColumn@@QAEXAAVLoggingInfo@@AAVADOLoggingObject@@H@Z$56 10025170 f   Columns.obj
 0001:00024178       __unwindfunclet$?SetColumn@CDbColumn@@QAEXAAVLoggingInfo@@AAVADOLoggingObject@@H@Z$57 10025178 f   Columns.obj
 0001:00024180       __unwindfunclet$?SetColumn@CDbColumn@@QAEXAAVLoggingInfo@@AAVADOLoggingObject@@H@Z$58 10025180 f   Columns.obj
 0001:00024188       __unwindfunclet$?SetColumn@CDbColumn@@QAEXAAVLoggingInfo@@AAVADOLoggingObject@@H@Z$59 10025188 f   Columns.obj
 0001:00024190       __unwindfunclet$?SetColumn@CDbColumn@@QAEXAAVLoggingInfo@@AAVADOLoggingObject@@H@Z$60 10025190 f   Columns.obj
 0001:00024198       __unwindfunclet$?SetColumn@CDbColumn@@QAEXAAVLoggingInfo@@AAVADOLoggingObject@@H@Z$61 10025198 f   Columns.obj
 0001:000241a0       __unwindfunclet$?SetColumn@CDbColumn@@QAEXAAVLoggingInfo@@AAVADOLoggingObject@@H@Z$62 100251a0 f   Columns.obj
 0001:000241a8       __ehhandler$?SetColumn@CDbColumn@@QAEXAAVLoggingInfo@@AAVADOLoggingObject@@H@Z 100251a8 f   Columns.obj
 0001:000241c0       __unwindfunclet$??1CDbColumn@@QAE@XZ$0 100251c0 f   Columns.obj
 0001:000241c8       __unwindfunclet$??1CDbColumn@@QAE@XZ$1 100251c8 f   Columns.obj
 0001:000241d3       __unwindfunclet$??1CDbColumn@@QAE@XZ$2 100251d3 f   Columns.obj
 0001:000241de       __unwindfunclet$??1CDbColumn@@QAE@XZ$3 100251de f   Columns.obj
 0001:000241e9       __unwindfunclet$??1CDbColumn@@QAE@XZ$4 100251e9 f   Columns.obj
 0001:000241f4       __unwindfunclet$??1CDbColumn@@QAE@XZ$5 100251f4 f   Columns.obj
 0001:000241ff       __unwindfunclet$??1CDbColumn@@QAE@XZ$6 100251ff f   Columns.obj
 0001:0002420a       __unwindfunclet$??1CDbColumn@@QAE@XZ$7 1002520a f   Columns.obj
 0001:00024215       __ehhandler$??1CDbColumn@@QAE@XZ 10025215 f   Columns.obj
 0001:00024220       __unwindfunclet$??$_GetSafeArrayElemValue@V?$vector@V_bstr_t@@V?$allocator@V_bstr_t@@@std@@@std@@PA_W@TSUTIL@@YAXAAPA_WAAV?$vector@V_bstr_t@@V?$allocator@V_bstr_t@@@std@@@std@@J@Z$0 10025220 f   Columns.obj
 0001:00024228       __unwindfunclet$??$_GetSafeArrayElemValue@V?$vector@V_bstr_t@@V?$allocator@V_bstr_t@@@std@@@std@@PA_W@TSUTIL@@YAXAAPA_WAAV?$vector@V_bstr_t@@V?$allocator@V_bstr_t@@@std@@@std@@J@Z$1 10025228 f   Columns.obj
 0001:00024230       __ehhandler$??$_GetSafeArrayElemValue@V?$vector@V_bstr_t@@V?$allocator@V_bstr_t@@@std@@@std@@PA_W@TSUTIL@@YAXAAPA_WAAV?$vector@V_bstr_t@@V?$allocator@V_bstr_t@@@std@@@std@@J@Z 10025230 f   Columns.obj
 0001:00024240       __unwindfunclet$??0CDbColumn@@QAE@AAV?$_com_ptr_t@V?$_com_IIID@UIEngine@TS@@$1?_GUID_b2794ef5_c0b6_11d0_939c_0020af68e893@@3U__s_GUID@@B@@@@AAV?$_com_ptr_t@V?$_com_IIID@UPropertyObject@TS@@$1?_GUID_8d8769a0_09c0_11d1_93bd_0020af68e893@@3U__s_GUID@@B@@@@PAVStatement@@@Z$4 10025240 f   Columns.obj
 0001:00024248       __unwindfunclet$??0CDbColumn@@QAE@AAV?$_com_ptr_t@V?$_com_IIID@UIEngine@TS@@$1?_GUID_b2794ef5_c0b6_11d0_939c_0020af68e893@@3U__s_GUID@@B@@@@AAV?$_com_ptr_t@V?$_com_IIID@UPropertyObject@TS@@$1?_GUID_8d8769a0_09c0_11d1_93bd_0020af68e893@@3U__s_GUID@@B@@@@PAVStatement@@@Z$5 10025248 f   Columns.obj
 0001:00024253       __unwindfunclet$??0CDbColumn@@QAE@AAV?$_com_ptr_t@V?$_com_IIID@UIEngine@TS@@$1?_GUID_b2794ef5_c0b6_11d0_939c_0020af68e893@@3U__s_GUID@@B@@@@AAV?$_com_ptr_t@V?$_com_IIID@UPropertyObject@TS@@$1?_GUID_8d8769a0_09c0_11d1_93bd_0020af68e893@@3U__s_GUID@@B@@@@PAVStatement@@@Z$6 10025253 f   Columns.obj
 0001:0002425e       __unwindfunclet$??0CDbColumn@@QAE@AAV?$_com_ptr_t@V?$_com_IIID@UIEngine@TS@@$1?_GUID_b2794ef5_c0b6_11d0_939c_0020af68e893@@3U__s_GUID@@B@@@@AAV?$_com_ptr_t@V?$_com_IIID@UPropertyObject@TS@@$1?_GUID_8d8769a0_09c0_11d1_93bd_0020af68e893@@3U__s_GUID@@B@@@@PAVStatement@@@Z$7 1002525e f   Columns.obj
 0001:00024269       __unwindfunclet$??0CDbColumn@@QAE@AAV?$_com_ptr_t@V?$_com_IIID@UIEngine@TS@@$1?_GUID_b2794ef5_c0b6_11d0_939c_0020af68e893@@3U__s_GUID@@B@@@@AAV?$_com_ptr_t@V?$_com_IIID@UPropertyObject@TS@@$1?_GUID_8d8769a0_09c0_11d1_93bd_0020af68e893@@3U__s_GUID@@B@@@@PAVStatement@@@Z$8 10025269 f   Columns.obj
 0001:00024274       __unwindfunclet$??0CDbColumn@@QAE@AAV?$_com_ptr_t@V?$_com_IIID@UIEngine@TS@@$1?_GUID_b2794ef5_c0b6_11d0_939c_0020af68e893@@3U__s_GUID@@B@@@@AAV?$_com_ptr_t@V?$_com_IIID@UPropertyObject@TS@@$1?_GUID_8d8769a0_09c0_11d1_93bd_0020af68e893@@3U__s_GUID@@B@@@@PAVStatement@@@Z$9 10025274 f   Columns.obj
 0001:0002427f       __unwindfunclet$??0CDbColumn@@QAE@AAV?$_com_ptr_t@V?$_com_IIID@UIEngine@TS@@$1?_GUID_b2794ef5_c0b6_11d0_939c_0020af68e893@@3U__s_GUID@@B@@@@AAV?$_com_ptr_t@V?$_com_IIID@UPropertyObject@TS@@$1?_GUID_8d8769a0_09c0_11d1_93bd_0020af68e893@@3U__s_GUID@@B@@@@PAVStatement@@@Z$10 1002527f f   Columns.obj
 0001:0002428a       __unwindfunclet$??0CDbColumn@@QAE@AAV?$_com_ptr_t@V?$_com_IIID@UIEngine@TS@@$1?_GUID_b2794ef5_c0b6_11d0_939c_0020af68e893@@3U__s_GUID@@B@@@@AAV?$_com_ptr_t@V?$_com_IIID@UPropertyObject@TS@@$1?_GUID_8d8769a0_09c0_11d1_93bd_0020af68e893@@3U__s_GUID@@B@@@@PAVStatement@@@Z$11 1002528a f   Columns.obj
 0001:00024295       __unwindfunclet$??0CDbColumn@@QAE@AAV?$_com_ptr_t@V?$_com_IIID@UIEngine@TS@@$1?_GUID_b2794ef5_c0b6_11d0_939c_0020af68e893@@3U__s_GUID@@B@@@@AAV?$_com_ptr_t@V?$_com_IIID@UPropertyObject@TS@@$1?_GUID_8d8769a0_09c0_11d1_93bd_0020af68e893@@3U__s_GUID@@B@@@@PAVStatement@@@Z$12 10025295 f   Columns.obj
 0001:0002429d       __unwindfunclet$??0CDbColumn@@QAE@AAV?$_com_ptr_t@V?$_com_IIID@UIEngine@TS@@$1?_GUID_b2794ef5_c0b6_11d0_939c_0020af68e893@@3U__s_GUID@@B@@@@AAV?$_com_ptr_t@V?$_com_IIID@UPropertyObject@TS@@$1?_GUID_8d8769a0_09c0_11d1_93bd_0020af68e893@@3U__s_GUID@@B@@@@PAVStatement@@@Z$49 1002529d f   Columns.obj
 0001:000242a5       __unwindfunclet$??0CDbColumn@@QAE@AAV?$_com_ptr_t@V?$_com_IIID@UIEngine@TS@@$1?_GUID_b2794ef5_c0b6_11d0_939c_0020af68e893@@3U__s_GUID@@B@@@@AAV?$_com_ptr_t@V?$_com_IIID@UPropertyObject@TS@@$1?_GUID_8d8769a0_09c0_11d1_93bd_0020af68e893@@3U__s_GUID@@B@@@@PAVStatement@@@Z$13 100252a5 f   Columns.obj
 0001:000242ad       __unwindfunclet$??0CDbColumn@@QAE@AAV?$_com_ptr_t@V?$_com_IIID@UIEngine@TS@@$1?_GUID_b2794ef5_c0b6_11d0_939c_0020af68e893@@3U__s_GUID@@B@@@@AAV?$_com_ptr_t@V?$_com_IIID@UPropertyObject@TS@@$1?_GUID_8d8769a0_09c0_11d1_93bd_0020af68e893@@3U__s_GUID@@B@@@@PAVStatement@@@Z$14 100252ad f   Columns.obj
 0001:000242b5       __unwindfunclet$??0CDbColumn@@QAE@AAV?$_com_ptr_t@V?$_com_IIID@UIEngine@TS@@$1?_GUID_b2794ef5_c0b6_11d0_939c_0020af68e893@@3U__s_GUID@@B@@@@AAV?$_com_ptr_t@V?$_com_IIID@UPropertyObject@TS@@$1?_GUID_8d8769a0_09c0_11d1_93bd_0020af68e893@@3U__s_GUID@@B@@@@PAVStatement@@@Z$15 100252b5 f   Columns.obj
 0001:000242bd       __unwindfunclet$??0CDbColumn@@QAE@AAV?$_com_ptr_t@V?$_com_IIID@UIEngine@TS@@$1?_GUID_b2794ef5_c0b6_11d0_939c_0020af68e893@@3U__s_GUID@@B@@@@AAV?$_com_ptr_t@V?$_com_IIID@UPropertyObject@TS@@$1?_GUID_8d8769a0_09c0_11d1_93bd_0020af68e893@@3U__s_GUID@@B@@@@PAVStatement@@@Z$16 100252bd f   Columns.obj
 0001:000242c5       __unwindfunclet$??0CDbColumn@@QAE@AAV?$_com_ptr_t@V?$_com_IIID@UIEngine@TS@@$1?_GUID_b2794ef5_c0b6_11d0_939c_0020af68e893@@3U__s_GUID@@B@@@@AAV?$_com_ptr_t@V?$_com_IIID@UPropertyObject@TS@@$1?_GUID_8d8769a0_09c0_11d1_93bd_0020af68e893@@3U__s_GUID@@B@@@@PAVStatement@@@Z$17 100252c5 f   Columns.obj
 0001:000242cd       __unwindfunclet$??0CDbColumn@@QAE@AAV?$_com_ptr_t@V?$_com_IIID@UIEngine@TS@@$1?_GUID_b2794ef5_c0b6_11d0_939c_0020af68e893@@3U__s_GUID@@B@@@@AAV?$_com_ptr_t@V?$_com_IIID@UPropertyObject@TS@@$1?_GUID_8d8769a0_09c0_11d1_93bd_0020af68e893@@3U__s_GUID@@B@@@@PAVStatement@@@Z$18 100252cd f   Columns.obj
 0001:000242d5       __unwindfunclet$??0CDbColumn@@QAE@AAV?$_com_ptr_t@V?$_com_IIID@UIEngine@TS@@$1?_GUID_b2794ef5_c0b6_11d0_939c_0020af68e893@@3U__s_GUID@@B@@@@AAV?$_com_ptr_t@V?$_com_IIID@UPropertyObject@TS@@$1?_GUID_8d8769a0_09c0_11d1_93bd_0020af68e893@@3U__s_GUID@@B@@@@PAVStatement@@@Z$19 100252d5 f   Columns.obj
 0001:000242dd       __unwindfunclet$??0CDbColumn@@QAE@AAV?$_com_ptr_t@V?$_com_IIID@UIEngine@TS@@$1?_GUID_b2794ef5_c0b6_11d0_939c_0020af68e893@@3U__s_GUID@@B@@@@AAV?$_com_ptr_t@V?$_com_IIID@UPropertyObject@TS@@$1?_GUID_8d8769a0_09c0_11d1_93bd_0020af68e893@@3U__s_GUID@@B@@@@PAVStatement@@@Z$20 100252dd f   Columns.obj
 0001:000242e5       __unwindfunclet$??0CDbColumn@@QAE@AAV?$_com_ptr_t@V?$_com_IIID@UIEngine@TS@@$1?_GUID_b2794ef5_c0b6_11d0_939c_0020af68e893@@3U__s_GUID@@B@@@@AAV?$_com_ptr_t@V?$_com_IIID@UPropertyObject@TS@@$1?_GUID_8d8769a0_09c0_11d1_93bd_0020af68e893@@3U__s_GUID@@B@@@@PAVStatement@@@Z$21 100252e5 f   Columns.obj
 0001:000242ed       __unwindfunclet$??0CDbColumn@@QAE@AAV?$_com_ptr_t@V?$_com_IIID@UIEngine@TS@@$1?_GUID_b2794ef5_c0b6_11d0_939c_0020af68e893@@3U__s_GUID@@B@@@@AAV?$_com_ptr_t@V?$_com_IIID@UPropertyObject@TS@@$1?_GUID_8d8769a0_09c0_11d1_93bd_0020af68e893@@3U__s_GUID@@B@@@@PAVStatement@@@Z$22 100252ed f   Columns.obj
 0001:000242f5       __unwindfunclet$??0CDbColumn@@QAE@AAV?$_com_ptr_t@V?$_com_IIID@UIEngine@TS@@$1?_GUID_b2794ef5_c0b6_11d0_939c_0020af68e893@@3U__s_GUID@@B@@@@AAV?$_com_ptr_t@V?$_com_IIID@UPropertyObject@TS@@$1?_GUID_8d8769a0_09c0_11d1_93bd_0020af68e893@@3U__s_GUID@@B@@@@PAVStatement@@@Z$23 100252f5 f   Columns.obj
 0001:000242fd       __unwindfunclet$??0CDbColumn@@QAE@AAV?$_com_ptr_t@V?$_com_IIID@UIEngine@TS@@$1?_GUID_b2794ef5_c0b6_11d0_939c_0020af68e893@@3U__s_GUID@@B@@@@AAV?$_com_ptr_t@V?$_com_IIID@UPropertyObject@TS@@$1?_GUID_8d8769a0_09c0_11d1_93bd_0020af68e893@@3U__s_GUID@@B@@@@PAVStatement@@@Z$24 100252fd f   Columns.obj
 0001:00024305       __unwindfunclet$??0CDbColumn@@QAE@AAV?$_com_ptr_t@V?$_com_IIID@UIEngine@TS@@$1?_GUID_b2794ef5_c0b6_11d0_939c_0020af68e893@@3U__s_GUID@@B@@@@AAV?$_com_ptr_t@V?$_com_IIID@UPropertyObject@TS@@$1?_GUID_8d8769a0_09c0_11d1_93bd_0020af68e893@@3U__s_GUID@@B@@@@PAVStatement@@@Z$25 10025305 f   Columns.obj
 0001:0002430d       __unwindfunclet$??0CDbColumn@@QAE@AAV?$_com_ptr_t@V?$_com_IIID@UIEngine@TS@@$1?_GUID_b2794ef5_c0b6_11d0_939c_0020af68e893@@3U__s_GUID@@B@@@@AAV?$_com_ptr_t@V?$_com_IIID@UPropertyObject@TS@@$1?_GUID_8d8769a0_09c0_11d1_93bd_0020af68e893@@3U__s_GUID@@B@@@@PAVStatement@@@Z$26 1002530d f   Columns.obj
 0001:00024315       __unwindfunclet$??0CDbColumn@@QAE@AAV?$_com_ptr_t@V?$_com_IIID@UIEngine@TS@@$1?_GUID_b2794ef5_c0b6_11d0_939c_0020af68e893@@3U__s_GUID@@B@@@@AAV?$_com_ptr_t@V?$_com_IIID@UPropertyObject@TS@@$1?_GUID_8d8769a0_09c0_11d1_93bd_0020af68e893@@3U__s_GUID@@B@@@@PAVStatement@@@Z$27 10025315 f   Columns.obj
 0001:0002431d       __unwindfunclet$??0CDbColumn@@QAE@AAV?$_com_ptr_t@V?$_com_IIID@UIEngine@TS@@$1?_GUID_b2794ef5_c0b6_11d0_939c_0020af68e893@@3U__s_GUID@@B@@@@AAV?$_com_ptr_t@V?$_com_IIID@UPropertyObject@TS@@$1?_GUID_8d8769a0_09c0_11d1_93bd_0020af68e893@@3U__s_GUID@@B@@@@PAVStatement@@@Z$28 1002531d f   Columns.obj
 0001:00024325       __unwindfunclet$??0CDbColumn@@QAE@AAV?$_com_ptr_t@V?$_com_IIID@UIEngine@TS@@$1?_GUID_b2794ef5_c0b6_11d0_939c_0020af68e893@@3U__s_GUID@@B@@@@AAV?$_com_ptr_t@V?$_com_IIID@UPropertyObject@TS@@$1?_GUID_8d8769a0_09c0_11d1_93bd_0020af68e893@@3U__s_GUID@@B@@@@PAVStatement@@@Z$29 10025325 f   Columns.obj
 0001:0002432d       __unwindfunclet$??0CDbColumn@@QAE@AAV?$_com_ptr_t@V?$_com_IIID@UIEngine@TS@@$1?_GUID_b2794ef5_c0b6_11d0_939c_0020af68e893@@3U__s_GUID@@B@@@@AAV?$_com_ptr_t@V?$_com_IIID@UPropertyObject@TS@@$1?_GUID_8d8769a0_09c0_11d1_93bd_0020af68e893@@3U__s_GUID@@B@@@@PAVStatement@@@Z$30 1002532d f   Columns.obj
 0001:00024335       __unwindfunclet$??0CDbColumn@@QAE@AAV?$_com_ptr_t@V?$_com_IIID@UIEngine@TS@@$1?_GUID_b2794ef5_c0b6_11d0_939c_0020af68e893@@3U__s_GUID@@B@@@@AAV?$_com_ptr_t@V?$_com_IIID@UPropertyObject@TS@@$1?_GUID_8d8769a0_09c0_11d1_93bd_0020af68e893@@3U__s_GUID@@B@@@@PAVStatement@@@Z$31 10025335 f   Columns.obj
 0001:0002433d       __unwindfunclet$??0CDbColumn@@QAE@AAV?$_com_ptr_t@V?$_com_IIID@UIEngine@TS@@$1?_GUID_b2794ef5_c0b6_11d0_939c_0020af68e893@@3U__s_GUID@@B@@@@AAV?$_com_ptr_t@V?$_com_IIID@UPropertyObject@TS@@$1?_GUID_8d8769a0_09c0_11d1_93bd_0020af68e893@@3U__s_GUID@@B@@@@PAVStatement@@@Z$32 1002533d f   Columns.obj
 0001:00024345       __unwindfunclet$??0CDbColumn@@QAE@AAV?$_com_ptr_t@V?$_com_IIID@UIEngine@TS@@$1?_GUID_b2794ef5_c0b6_11d0_939c_0020af68e893@@3U__s_GUID@@B@@@@AAV?$_com_ptr_t@V?$_com_IIID@UPropertyObject@TS@@$1?_GUID_8d8769a0_09c0_11d1_93bd_0020af68e893@@3U__s_GUID@@B@@@@PAVStatement@@@Z$33 10025345 f   Columns.obj
 0001:0002434d       __unwindfunclet$??0CDbColumn@@QAE@AAV?$_com_ptr_t@V?$_com_IIID@UIEngine@TS@@$1?_GUID_b2794ef5_c0b6_11d0_939c_0020af68e893@@3U__s_GUID@@B@@@@AAV?$_com_ptr_t@V?$_com_IIID@UPropertyObject@TS@@$1?_GUID_8d8769a0_09c0_11d1_93bd_0020af68e893@@3U__s_GUID@@B@@@@PAVStatement@@@Z$34 1002534d f   Columns.obj
 0001:00024355       __unwindfunclet$??0CDbColumn@@QAE@AAV?$_com_ptr_t@V?$_com_IIID@UIEngine@TS@@$1?_GUID_b2794ef5_c0b6_11d0_939c_0020af68e893@@3U__s_GUID@@B@@@@AAV?$_com_ptr_t@V?$_com_IIID@UPropertyObject@TS@@$1?_GUID_8d8769a0_09c0_11d1_93bd_0020af68e893@@3U__s_GUID@@B@@@@PAVStatement@@@Z$35 10025355 f   Columns.obj
 0001:0002435d       __unwindfunclet$??0CDbColumn@@QAE@AAV?$_com_ptr_t@V?$_com_IIID@UIEngine@TS@@$1?_GUID_b2794ef5_c0b6_11d0_939c_0020af68e893@@3U__s_GUID@@B@@@@AAV?$_com_ptr_t@V?$_com_IIID@UPropertyObject@TS@@$1?_GUID_8d8769a0_09c0_11d1_93bd_0020af68e893@@3U__s_GUID@@B@@@@PAVStatement@@@Z$36 1002535d f   Columns.obj
 0001:00024365       __unwindfunclet$??0CDbColumn@@QAE@AAV?$_com_ptr_t@V?$_com_IIID@UIEngine@TS@@$1?_GUID_b2794ef5_c0b6_11d0_939c_0020af68e893@@3U__s_GUID@@B@@@@AAV?$_com_ptr_t@V?$_com_IIID@UPropertyObject@TS@@$1?_GUID_8d8769a0_09c0_11d1_93bd_0020af68e893@@3U__s_GUID@@B@@@@PAVStatement@@@Z$37 10025365 f   Columns.obj
 0001:0002436d       __unwindfunclet$??0CDbColumn@@QAE@AAV?$_com_ptr_t@V?$_com_IIID@UIEngine@TS@@$1?_GUID_b2794ef5_c0b6_11d0_939c_0020af68e893@@3U__s_GUID@@B@@@@AAV?$_com_ptr_t@V?$_com_IIID@UPropertyObject@TS@@$1?_GUID_8d8769a0_09c0_11d1_93bd_0020af68e893@@3U__s_GUID@@B@@@@PAVStatement@@@Z$38 1002536d f   Columns.obj
 0001:00024375       __unwindfunclet$??0CDbColumn@@QAE@AAV?$_com_ptr_t@V?$_com_IIID@UIEngine@TS@@$1?_GUID_b2794ef5_c0b6_11d0_939c_0020af68e893@@3U__s_GUID@@B@@@@AAV?$_com_ptr_t@V?$_com_IIID@UPropertyObject@TS@@$1?_GUID_8d8769a0_09c0_11d1_93bd_0020af68e893@@3U__s_GUID@@B@@@@PAVStatement@@@Z$39 10025375 f   Columns.obj
 0001:0002437d       __unwindfunclet$??0CDbColumn@@QAE@AAV?$_com_ptr_t@V?$_com_IIID@UIEngine@TS@@$1?_GUID_b2794ef5_c0b6_11d0_939c_0020af68e893@@3U__s_GUID@@B@@@@AAV?$_com_ptr_t@V?$_com_IIID@UPropertyObject@TS@@$1?_GUID_8d8769a0_09c0_11d1_93bd_0020af68e893@@3U__s_GUID@@B@@@@PAVStatement@@@Z$40 1002537d f   Columns.obj
 0001:00024385       __unwindfunclet$??0CDbColumn@@QAE@AAV?$_com_ptr_t@V?$_com_IIID@UIEngine@TS@@$1?_GUID_b2794ef5_c0b6_11d0_939c_0020af68e893@@3U__s_GUID@@B@@@@AAV?$_com_ptr_t@V?$_com_IIID@UPropertyObject@TS@@$1?_GUID_8d8769a0_09c0_11d1_93bd_0020af68e893@@3U__s_GUID@@B@@@@PAVStatement@@@Z$41 10025385 f   Columns.obj
 0001:0002438d       __unwindfunclet$??0CDbColumn@@QAE@AAV?$_com_ptr_t@V?$_com_IIID@UIEngine@TS@@$1?_GUID_b2794ef5_c0b6_11d0_939c_0020af68e893@@3U__s_GUID@@B@@@@AAV?$_com_ptr_t@V?$_com_IIID@UPropertyObject@TS@@$1?_GUID_8d8769a0_09c0_11d1_93bd_0020af68e893@@3U__s_GUID@@B@@@@PAVStatement@@@Z$50 1002538d f   Columns.obj
 0001:00024395       __unwindfunclet$??0CDbColumn@@QAE@AAV?$_com_ptr_t@V?$_com_IIID@UIEngine@TS@@$1?_GUID_b2794ef5_c0b6_11d0_939c_0020af68e893@@3U__s_GUID@@B@@@@AAV?$_com_ptr_t@V?$_com_IIID@UPropertyObject@TS@@$1?_GUID_8d8769a0_09c0_11d1_93bd_0020af68e893@@3U__s_GUID@@B@@@@PAVStatement@@@Z$42 10025395 f   Columns.obj
 0001:0002439d       __unwindfunclet$??0CDbColumn@@QAE@AAV?$_com_ptr_t@V?$_com_IIID@UIEngine@TS@@$1?_GUID_b2794ef5_c0b6_11d0_939c_0020af68e893@@3U__s_GUID@@B@@@@AAV?$_com_ptr_t@V?$_com_IIID@UPropertyObject@TS@@$1?_GUID_8d8769a0_09c0_11d1_93bd_0020af68e893@@3U__s_GUID@@B@@@@PAVStatement@@@Z$43 1002539d f   Columns.obj
 0001:000243a5       __unwindfunclet$??0CDbColumn@@QAE@AAV?$_com_ptr_t@V?$_com_IIID@UIEngine@TS@@$1?_GUID_b2794ef5_c0b6_11d0_939c_0020af68e893@@3U__s_GUID@@B@@@@AAV?$_com_ptr_t@V?$_com_IIID@UPropertyObject@TS@@$1?_GUID_8d8769a0_09c0_11d1_93bd_0020af68e893@@3U__s_GUID@@B@@@@PAVStatement@@@Z$44 100253a5 f   Columns.obj
 0001:000243ad       __unwindfunclet$??0CDbColumn@@QAE@AAV?$_com_ptr_t@V?$_com_IIID@UIEngine@TS@@$1?_GUID_b2794ef5_c0b6_11d0_939c_0020af68e893@@3U__s_GUID@@B@@@@AAV?$_com_ptr_t@V?$_com_IIID@UPropertyObject@TS@@$1?_GUID_8d8769a0_09c0_11d1_93bd_0020af68e893@@3U__s_GUID@@B@@@@PAVStatement@@@Z$45 100253ad f   Columns.obj
 0001:000243b5       __unwindfunclet$??0CDbColumn@@QAE@AAV?$_com_ptr_t@V?$_com_IIID@UIEngine@TS@@$1?_GUID_b2794ef5_c0b6_11d0_939c_0020af68e893@@3U__s_GUID@@B@@@@AAV?$_com_ptr_t@V?$_com_IIID@UPropertyObject@TS@@$1?_GUID_8d8769a0_09c0_11d1_93bd_0020af68e893@@3U__s_GUID@@B@@@@PAVStatement@@@Z$46 100253b5 f   Columns.obj
 0001:000243bd       __unwindfunclet$??0CDbColumn@@QAE@AAV?$_com_ptr_t@V?$_com_IIID@UIEngine@TS@@$1?_GUID_b2794ef5_c0b6_11d0_939c_0020af68e893@@3U__s_GUID@@B@@@@AAV?$_com_ptr_t@V?$_com_IIID@UPropertyObject@TS@@$1?_GUID_8d8769a0_09c0_11d1_93bd_0020af68e893@@3U__s_GUID@@B@@@@PAVStatement@@@Z$47 100253bd f   Columns.obj
 0001:000243c5       __unwindfunclet$??0CDbColumn@@QAE@AAV?$_com_ptr_t@V?$_com_IIID@UIEngine@TS@@$1?_GUID_b2794ef5_c0b6_11d0_939c_0020af68e893@@3U__s_GUID@@B@@@@AAV?$_com_ptr_t@V?$_com_IIID@UPropertyObject@TS@@$1?_GUID_8d8769a0_09c0_11d1_93bd_0020af68e893@@3U__s_GUID@@B@@@@PAVStatement@@@Z$48 100253c5 f   Columns.obj
 0001:000243cd       __ehhandler$??0CDbColumn@@QAE@AAV?$_com_ptr_t@V?$_com_IIID@UIEngine@TS@@$1?_GUID_b2794ef5_c0b6_11d0_939c_0020af68e893@@3U__s_GUID@@B@@@@AAV?$_com_ptr_t@V?$_com_IIID@UPropertyObject@TS@@$1?_GUID_8d8769a0_09c0_11d1_93bd_0020af68e893@@3U__s_GUID@@B@@@@PAVStatement@@@Z 100253cd f   Columns.obj
 0001:000243e0       __unwindfunclet$??1CComAutoDeleteCriticalSection@ATL@@QAE@XZ$0 100253e0 f   DBLog.obj
 0001:000243e8       __ehhandler$??1CComAutoDeleteCriticalSection@ATL@@QAE@XZ 100253e8 f   DBLog.obj
 0001:00024400       __unwindfunclet$?GetValue@_Parameter@@QAE?AV_variant_t@@XZ$0 10025400 f   DBLog.obj
 0001:00024400       __unwindfunclet$?GetValue@Field20@@QAE?AV_variant_t@@XZ$0 10025400 f   DBLog.obj
 0001:00024419       __ehhandler$?GetValue@_Parameter@@QAE?AV_variant_t@@XZ 10025419 f   DBLog.obj
 0001:00024419       __ehhandler$?GetValue@Field20@@QAE?AV_variant_t@@XZ 10025419 f   DBLog.obj
 0001:00024430       __unwindfunclet$??_GCDBLogApp@@UAEPAXI@Z$0 10025430 f   DBLog.obj
 0001:00024438       __ehhandler$??_GCDBLogApp@@UAEPAXI@Z 10025438 f   DBLog.obj
 0001:00024450       __unwindfunclet$_DllCanUnloadNow@0$0 10025450 f   DBLog.obj
 0001:00024458       __ehhandler$_DllCanUnloadNow@0 10025458 f   DBLog.obj
 0001:00024470       __unwindfunclet$??1?$CComContainedObject@VCTSDatalink@@@ATL@@QAE@XZ$0 10025470 f   DBLog.obj
 0001:00024470       __unwindfunclet$??_G?$CComObject@VCTSDatalink@@@ATL@@UAEPAXI@Z$0 10025470 f   DBLog.obj
 0001:00024470       __unwindfunclet$??0?$CComObject@VCTSDatalink@@@ATL@@QAE@PAX@Z$0 10025470 f   DBLog.obj
 0001:00024478       __ehhandler$??_G?$CComObject@VCTSDatalink@@@ATL@@UAEPAXI@Z 10025478 f   DBLog.obj
 0001:00024478       __ehhandler$??0?$CComObject@VCTSDatalink@@@ATL@@QAE@PAX@Z 10025478 f   DBLog.obj
 0001:00024478       __ehhandler$??1?$CComContainedObject@VCTSDatalink@@@ATL@@QAE@XZ 10025478 f   DBLog.obj
 0001:00024490       __unwindfunclet$??1?$CAtlModuleT@VCComModule@ATL@@@ATL@@UAE@XZ$0 10025490 f   DBLog.obj
 0001:00024498       __ehhandler$??1?$CAtlModuleT@VCComModule@ATL@@@ATL@@UAE@XZ 10025498 f   DBLog.obj
 0001:000244b0       __unwindfunclet$?LoadNameCache@CComTypeInfoHolder@ATL@@QAEJPAUITypeInfo@@@Z$2 100254b0 f   DBLog.obj
 0001:000244bb       __unwindfunclet$?LoadNameCache@CComTypeInfoHolder@ATL@@QAEJPAUITypeInfo@@@Z$3 100254bb f   DBLog.obj
 0001:000244c3       __ehhandler$?LoadNameCache@CComTypeInfoHolder@ATL@@QAEJPAUITypeInfo@@@Z 100254c3 f   DBLog.obj
 0001:000244d0       __unwindfunclet$??1?$CComObjectRootEx@VCComMultiThreadModel@ATL@@@ATL@@QAE@XZ$0 100254d0 f   DBLog.obj
 0001:000244db       __unwindfunclet$??1?$CComObjectRootEx@VCComMultiThreadModel@ATL@@@ATL@@QAE@XZ$1 100254db f   DBLog.obj
 0001:000244e3       __ehhandler$??1?$CComObjectRootEx@VCComMultiThreadModel@ATL@@@ATL@@QAE@XZ 100254e3 f   DBLog.obj
 0001:000244f0       __unwindfunclet$?IsEqualObject@?$CComPtrBase@UITypeInfo@@@ATL@@QAE_NPAUIUnknown@@@Z$2 100254f0 f   DBLog.obj
 0001:000244f8       __unwindfunclet$?IsEqualObject@?$CComPtrBase@UITypeInfo@@@ATL@@QAE_NPAUIUnknown@@@Z$0 100254f8 f   DBLog.obj
 0001:00024500       __unwindfunclet$?IsEqualObject@?$CComPtrBase@UITypeInfo@@@ATL@@QAE_NPAUIUnknown@@@Z$3 10025500 f   DBLog.obj
 0001:00024508       __unwindfunclet$?IsEqualObject@?$CComPtrBase@UITypeInfo@@@ATL@@QAE_NPAUIUnknown@@@Z$1 10025508 f   DBLog.obj
 0001:00024510       __unwindfunclet$?IsEqualObject@?$CComPtrBase@UITypeInfo@@@ATL@@QAE_NPAUIUnknown@@@Z$4 10025510 f   DBLog.obj
 0001:00024518       __unwindfunclet$?IsEqualObject@?$CComPtrBase@UITypeInfo@@@ATL@@QAE_NPAUIUnknown@@@Z$5 10025518 f   DBLog.obj
 0001:00024520       __ehhandler$?IsEqualObject@?$CComPtrBase@UITypeInfo@@@ATL@@QAE_NPAUIUnknown@@@Z 10025520 f   DBLog.obj
 0001:00024530       __ehhandler$?CreateInstance@?$CComCreator@V?$CComObject@VCTSDatalink@@@ATL@@@ATL@@SGJPAXABU_GUID@@PAPAX@Z 10025530 f   DBLog.obj
 0001:00024540       __unwindfunclet$??0?$CComAggObject@VCTSDatalink@@@ATL@@QAE@PAX@Z$1 10025540 f   DBLog.obj
 0001:00024548       __unwindfunclet$??0?$CComAggObject@VCTSDatalink@@@ATL@@QAE@PAX@Z$0 10025548 f   DBLog.obj
 0001:00024553       __ehhandler$??0?$CComAggObject@VCTSDatalink@@@ATL@@QAE@PAX@Z 10025553 f   DBLog.obj
 0001:00024560       __unwindfunclet$??1CTSDBLog@@QAE@XZ$0 10025560 f   DBLog.obj
 0001:0002456b       __unwindfunclet$??1CTSDBLog@@QAE@XZ$1 1002556b f   DBLog.obj
 0001:00024576       __unwindfunclet$??1CTSDBLog@@QAE@XZ$2 10025576 f   DBLog.obj
 0001:00024581       __unwindfunclet$??1CTSDBLog@@QAE@XZ$3 10025581 f   DBLog.obj
 0001:00024589       __ehhandler$??1CTSDBLog@@QAE@XZ 10025589 f   DBLog.obj
 0001:000245a0       __unwindfunclet$??1?$CComContainedObject@VCTSDBLog@@@ATL@@QAE@XZ$0 100255a0 f   DBLog.obj
 0001:000245a0       __unwindfunclet$??1?$CComObject@VCTSDBLog@@@ATL@@UAE@XZ$0 100255a0 f   DBLog.obj
 0001:000245a8       __unwindfunclet$??1?$CComContainedObject@VCTSDBLog@@@ATL@@QAE@XZ$1 100255a8 f   DBLog.obj
 0001:000245a8       __unwindfunclet$??1?$CComObject@VCTSDBLog@@@ATL@@UAE@XZ$1 100255a8 f   DBLog.obj
 0001:000245b3       __unwindfunclet$??1?$CComObject@VCTSDBLog@@@ATL@@UAE@XZ$2 100255b3 f   DBLog.obj
 0001:000245b3       __unwindfunclet$??1?$CComContainedObject@VCTSDBLog@@@ATL@@QAE@XZ$2 100255b3 f   DBLog.obj
 0001:000245be       __unwindfunclet$??1?$CComObject@VCTSDBLog@@@ATL@@UAE@XZ$3 100255be f   DBLog.obj
 0001:000245be       __unwindfunclet$??1?$CComContainedObject@VCTSDBLog@@@ATL@@QAE@XZ$3 100255be f   DBLog.obj
 0001:000245c9       __unwindfunclet$??1?$CComContainedObject@VCTSDBLog@@@ATL@@QAE@XZ$4 100255c9 f   DBLog.obj
 0001:000245c9       __unwindfunclet$??1?$CComObject@VCTSDBLog@@@ATL@@UAE@XZ$4 100255c9 f   DBLog.obj
 0001:000245d1       __ehhandler$??1?$CComObject@VCTSDBLog@@@ATL@@UAE@XZ 100255d1 f   DBLog.obj
 0001:000245d1       __ehhandler$??1?$CComContainedObject@VCTSDBLog@@@ATL@@QAE@XZ 100255d1 f   DBLog.obj
 0001:000245e0       __unwindfunclet$??_G?$CComAggObject@VCTSDatalink@@@ATL@@UAEPAXI@Z$0 100255e0 f   DBLog.obj
 0001:000245eb       __unwindfunclet$??_G?$CComAggObject@VCTSDatalink@@@ATL@@UAEPAXI@Z$1 100255eb f   DBLog.obj
 0001:000245f3       __ehhandler$??_G?$CComAggObject@VCTSDatalink@@@ATL@@UAEPAXI@Z 100255f3 f   DBLog.obj
 0001:00024600       __unwindfunclet$?GetType@PropertyObject@TS@@QAE?AV?$_com_ptr_t@V?$_com_IIID@UPropertyObjectType@TS@@$1?_GUID_606104e9_6ede_469c_a1fc_181acc1856bc@@3U__s_GUID@@B@@@@XZ$0 10025600 f   DBLog.obj
 0001:00024600       __unwindfunclet$?GetFields@Recordset15@@QAE?AV?$_com_ptr_t@V?$_com_IIID@UFields@@$1?_GUID_00001564_0000_0010_8000_00aa006d2ea4@@3U__s_GUID@@B@@@@XZ$0 10025600 f   DBLog.obj
 0001:00024600       __unwindfunclet$?Evaluate@Expression@TS@@QAE?AV?$_com_ptr_t@V?$_com_IIID@UPropertyObject@TS@@$1?_GUID_8d8769a0_09c0_11d1_93bd_0020af68e893@@3U__s_GUID@@B@@@@PAUPropertyObject@2@J@Z$0 10025600 f   DBLog.obj
 0001:00024600       __unwindfunclet$?GetPropertyObjectByOffset@PropertyObject@TS@@QAE?AV?$_com_ptr_t@V?$_com_IIID@UPropertyObject@TS@@$1?_GUID_8d8769a0_09c0_11d1_93bd_0020af68e893@@3U__s_GUID@@B@@@@JJ@Z$0 10025600 f   DBLog.obj
 0001:00024600       __unwindfunclet$?NewExpression@IEngine@TS@@QAE?AV?$_com_ptr_t@V?$_com_IIID@UExpression@TS@@$1?_GUID_e7495e94_98e0_4d89_bfea_3f850f0a0399@@3U__s_GUID@@B@@@@XZ$0 10025600 f   DBLog.obj
 0001:00024600       __unwindfunclet$?GetItem@Parameters@@QAE?AV?$_com_ptr_t@V?$_com_IIID@U_Parameter@@$1?_GUID_0000150c_0000_0010_8000_00aa006d2ea4@@3U__s_GUID@@B@@@@ABV_variant_t@@@Z$0 10025600 f   DBLog.obj
 0001:00024600       __unwindfunclet$?AsPropertyObject@Execution@TS@@QAE?AV?$_com_ptr_t@V?$_com_IIID@UPropertyObject@TS@@$1?_GUID_8d8769a0_09c0_11d1_93bd_0020af68e893@@3U__s_GUID@@B@@@@XZ$0 10025600 f   DBLog.obj
 0001:00024600       __unwindfunclet$?GetElementType@PropertyObjectType@TS@@QAE?AV?$_com_ptr_t@V?$_com_IIID@UPropertyObjectType@TS@@$1?_GUID_606104e9_6ede_469c_a1fc_181acc1856bc@@3U__s_GUID@@B@@@@XZ$0 10025600 f   DBLog.obj
 0001:00024600       __unwindfunclet$?Execute@Command15@@QAE?AV?$_com_ptr_t@V?$_com_IIID@U_Recordset@@$1?_GUID_00001556_0000_0010_8000_00aa006d2ea4@@3U__s_GUID@@B@@@@PAUtagVARIANT@@0J@Z$0 10025600 f   DBLog.obj
 0001:00024600       __unwindfunclet$?GetItem@Fields15@@QAE?AV?$_com_ptr_t@V?$_com_IIID@UField@@$1?_GUID_00001569_0000_0010_8000_00aa006d2ea4@@3U__s_GUID@@B@@@@ABV_variant_t@@@Z$0 10025600 f   DBLog.obj
 0001:00024600       __unwindfunclet$?GetArrayDimensions@PropertyObjectType@TS@@QAE?AV?$_com_ptr_t@V?$_com_IIID@UArrayDimensions@TS@@$1?_GUID_65a60a52_3e57_4707_be4b_8d00bc08e32f@@3U__s_GUID@@B@@@@XZ$0 10025600 f   DBLog.obj
 0001:00024600       __unwindfunclet$?GetActiveConnection@Command15@@QAE?AV?$_com_ptr_t@V?$_com_IIID@U_Connection@@$1?_GUID_00001550_0000_0010_8000_00aa006d2ea4@@3U__s_GUID@@B@@@@XZ$0 10025600 f   DBLog.obj
 0001:00024600       __unwindfunclet$?GetErrors@Connection15@@QAE?AV?$_com_ptr_t@V?$_com_IIID@UErrors@@$1?_GUID_00000501_0000_0010_8000_00aa006d2ea4@@3U__s_GUID@@B@@@@XZ$0 10025600 f   DBLog.obj
 0001:00024600       __unwindfunclet$?GetParameters@Command15@@QAE?AV?$_com_ptr_t@V?$_com_IIID@UParameters@@$1?_GUID_0000150d_0000_0010_8000_00aa006d2ea4@@3U__s_GUID@@B@@@@XZ$0 10025600 f   DBLog.obj
 0001:00024600       __unwindfunclet$?InitTerminationMonitor@Execution@TS@@QAE?AV?$_com_ptr_t@V?$_com_IIID@UPropertyObject@TS@@$1?_GUID_8d8769a0_09c0_11d1_93bd_0020af68e893@@3U__s_GUID@@B@@@@XZ$0 10025600 f   DBLog.obj
 0001:00024600       __unwindfunclet$?GetItem@Errors@@QAE?AV?$_com_ptr_t@V?$_com_IIID@UError@@$1?_GUID_00000500_0000_0010_8000_00aa006d2ea4@@3U__s_GUID@@B@@@@ABV_variant_t@@@Z$0 10025600 f   DBLog.obj
 0001:00024600       __unwindfunclet$?GetSequenceContext@Thread@TS@@QAE?AV?$_com_ptr_t@V?$_com_IIID@USequenceContext@TS@@$1?_GUID_6427d0e0_e410_11d0_93b4_0020af68e893@@3U__s_GUID@@B@@@@JPAJ@Z$0 10025600 f   DBLog.obj
 0001:00024600       __unwindfunclet$?GetProperties@_ADO@@QAE?AV?$_com_ptr_t@V?$_com_IIID@UProperties@@$1?_GUID_00000504_0000_0010_8000_00aa006d2ea4@@3U__s_GUID@@B@@@@XZ$0 10025600 f   DBLog.obj
 0001:00024600       __unwindfunclet$?AsPropertyObject@SequenceContext@TS@@QAE?AV?$_com_ptr_t@V?$_com_IIID@UPropertyObject@TS@@$1?_GUID_8d8769a0_09c0_11d1_93bd_0020af68e893@@3U__s_GUID@@B@@@@XZ$0 10025600 f   DBLog.obj
 0001:00024600       __unwindfunclet$?GetItem@Properties@@QAE?AV?$_com_ptr_t@V?$_com_IIID@UProperty@@$1?_GUID_00000503_0000_0010_8000_00aa006d2ea4@@3U__s_GUID@@B@@@@ABV_variant_t@@@Z$0 10025600 f   DBLog.obj
 0001:00024600       __unwindfunclet$?GetCaller@SequenceContext@TS@@QAE?AV?$_com_ptr_t@V?$_com_IIID@USequenceContext@TS@@$1?_GUID_6427d0e0_e410_11d0_93b4_0020af68e893@@3U__s_GUID@@B@@@@XZ$0 10025600 f   DBLog.obj
 0001:00024600       __unwindfunclet$?GetEngine@SequenceContext@TS@@QAE?AV?$_com_ptr_t@V?$_com_IIID@UIEngine@TS@@$1?_GUID_b2794ef5_c0b6_11d0_939c_0020af68e893@@3U__s_GUID@@B@@@@XZ$0 10025600 f   DBLog.obj
 0001:00024600       __unwindfunclet$?GetRoot@SequenceContext@TS@@QAE?AV?$_com_ptr_t@V?$_com_IIID@USequenceContext@TS@@$1?_GUID_6427d0e0_e410_11d0_93b4_0020af68e893@@3U__s_GUID@@B@@@@XZ$0 10025600 f   DBLog.obj
 0001:00024600       __unwindfunclet$?GetExecution@SequenceContext@TS@@QAE?AV?$_com_ptr_t@V?$_com_IIID@UExecution@TS@@$1?_GUID_7dc7e990_18dc_11d1_93be_0020af68e893@@3U__s_GUID@@B@@@@XZ$0 10025600 f   DBLog.obj
 0001:00024600       __unwindfunclet$?GetThread@SequenceContext@TS@@QAE?AV?$_com_ptr_t@V?$_com_IIID@UThread@TS@@$1?_GUID_6ad5e6e0_5c69_11d1_93c6_0020af68e893@@3U__s_GUID@@B@@@@XZ$0 10025600 f   DBLog.obj
 0001:00024619       __ehhandler$?GetThread@SequenceContext@TS@@QAE?AV?$_com_ptr_t@V?$_com_IIID@UThread@TS@@$1?_GUID_6ad5e6e0_5c69_11d1_93c6_0020af68e893@@3U__s_GUID@@B@@@@XZ 10025619 f   DBLog.obj
 0001:00024619       __ehhandler$?GetRoot@SequenceContext@TS@@QAE?AV?$_com_ptr_t@V?$_com_IIID@USequenceContext@TS@@$1?_GUID_6427d0e0_e410_11d0_93b4_0020af68e893@@3U__s_GUID@@B@@@@XZ 10025619 f   DBLog.obj
 0001:00024619       __ehhandler$?GetExecution@SequenceContext@TS@@QAE?AV?$_com_ptr_t@V?$_com_IIID@UExecution@TS@@$1?_GUID_7dc7e990_18dc_11d1_93be_0020af68e893@@3U__s_GUID@@B@@@@XZ 10025619 f   DBLog.obj
 0001:00024619       __ehhandler$?GetCaller@SequenceContext@TS@@QAE?AV?$_com_ptr_t@V?$_com_IIID@USequenceContext@TS@@$1?_GUID_6427d0e0_e410_11d0_93b4_0020af68e893@@3U__s_GUID@@B@@@@XZ 10025619 f   DBLog.obj
 0001:00024619       __ehhandler$?GetEngine@SequenceContext@TS@@QAE?AV?$_com_ptr_t@V?$_com_IIID@UIEngine@TS@@$1?_GUID_b2794ef5_c0b6_11d0_939c_0020af68e893@@3U__s_GUID@@B@@@@XZ 10025619 f   DBLog.obj
 0001:00024619       __ehhandler$?AsPropertyObject@SequenceContext@TS@@QAE?AV?$_com_ptr_t@V?$_com_IIID@UPropertyObject@TS@@$1?_GUID_8d8769a0_09c0_11d1_93bd_0020af68e893@@3U__s_GUID@@B@@@@XZ 10025619 f   DBLog.obj
 0001:00024619       __ehhandler$?GetItem@Properties@@QAE?AV?$_com_ptr_t@V?$_com_IIID@UProperty@@$1?_GUID_00000503_0000_0010_8000_00aa006d2ea4@@3U__s_GUID@@B@@@@ABV_variant_t@@@Z 10025619 f   DBLog.obj
 0001:00024619       __ehhandler$?GetSequenceContext@Thread@TS@@QAE?AV?$_com_ptr_t@V?$_com_IIID@USequenceContext@TS@@$1?_GUID_6427d0e0_e410_11d0_93b4_0020af68e893@@3U__s_GUID@@B@@@@JPAJ@Z 10025619 f   DBLog.obj
 0001:00024619       __ehhandler$?GetProperties@_ADO@@QAE?AV?$_com_ptr_t@V?$_com_IIID@UProperties@@$1?_GUID_00000504_0000_0010_8000_00aa006d2ea4@@3U__s_GUID@@B@@@@XZ 10025619 f   DBLog.obj
 0001:00024619       __ehhandler$?InitTerminationMonitor@Execution@TS@@QAE?AV?$_com_ptr_t@V?$_com_IIID@UPropertyObject@TS@@$1?_GUID_8d8769a0_09c0_11d1_93bd_0020af68e893@@3U__s_GUID@@B@@@@XZ 10025619 f   DBLog.obj
 0001:00024619       __ehhandler$?GetItem@Errors@@QAE?AV?$_com_ptr_t@V?$_com_IIID@UError@@$1?_GUID_00000500_0000_0010_8000_00aa006d2ea4@@3U__s_GUID@@B@@@@ABV_variant_t@@@Z 10025619 f   DBLog.obj
 0001:00024619       __ehhandler$?AsPropertyObject@Execution@TS@@QAE?AV?$_com_ptr_t@V?$_com_IIID@UPropertyObject@TS@@$1?_GUID_8d8769a0_09c0_11d1_93bd_0020af68e893@@3U__s_GUID@@B@@@@XZ 10025619 f   DBLog.obj
 0001:00024619       __ehhandler$?GetItem@Fields15@@QAE?AV?$_com_ptr_t@V?$_com_IIID@UField@@$1?_GUID_00001569_0000_0010_8000_00aa006d2ea4@@3U__s_GUID@@B@@@@ABV_variant_t@@@Z 10025619 f   DBLog.obj
 0001:00024619       __ehhandler$?NewExpression@IEngine@TS@@QAE?AV?$_com_ptr_t@V?$_com_IIID@UExpression@TS@@$1?_GUID_e7495e94_98e0_4d89_bfea_3f850f0a0399@@3U__s_GUID@@B@@@@XZ 10025619 f   DBLog.obj
 0001:00024619       __ehhandler$?GetItem@Parameters@@QAE?AV?$_com_ptr_t@V?$_com_IIID@U_Parameter@@$1?_GUID_0000150c_0000_0010_8000_00aa006d2ea4@@3U__s_GUID@@B@@@@ABV_variant_t@@@Z 10025619 f   DBLog.obj
 0001:00024619       __ehhandler$?Evaluate@Expression@TS@@QAE?AV?$_com_ptr_t@V?$_com_IIID@UPropertyObject@TS@@$1?_GUID_8d8769a0_09c0_11d1_93bd_0020af68e893@@3U__s_GUID@@B@@@@PAUPropertyObject@2@J@Z 10025619 f   DBLog.obj
 0001:00024619       __ehhandler$?GetActiveConnection@Command15@@QAE?AV?$_com_ptr_t@V?$_com_IIID@U_Connection@@$1?_GUID_00001550_0000_0010_8000_00aa006d2ea4@@3U__s_GUID@@B@@@@XZ 10025619 f   DBLog.obj
 0001:00024619       __ehhandler$?GetPropertyObjectByOffset@PropertyObject@TS@@QAE?AV?$_com_ptr_t@V?$_com_IIID@UPropertyObject@TS@@$1?_GUID_8d8769a0_09c0_11d1_93bd_0020af68e893@@3U__s_GUID@@B@@@@JJ@Z 10025619 f   DBLog.obj
 0001:00024619       __ehhandler$?Execute@Command15@@QAE?AV?$_com_ptr_t@V?$_com_IIID@U_Recordset@@$1?_GUID_00001556_0000_0010_8000_00aa006d2ea4@@3U__s_GUID@@B@@@@PAUtagVARIANT@@0J@Z 10025619 f   DBLog.obj
 0001:00024619       __ehhandler$?GetArrayDimensions@PropertyObjectType@TS@@QAE?AV?$_com_ptr_t@V?$_com_IIID@UArrayDimensions@TS@@$1?_GUID_65a60a52_3e57_4707_be4b_8d00bc08e32f@@3U__s_GUID@@B@@@@XZ 10025619 f   DBLog.obj
 0001:00024619       __ehhandler$?GetParameters@Command15@@QAE?AV?$_com_ptr_t@V?$_com_IIID@UParameters@@$1?_GUID_0000150d_0000_0010_8000_00aa006d2ea4@@3U__s_GUID@@B@@@@XZ 10025619 f   DBLog.obj
 0001:00024619       __ehhandler$?GetElementType@PropertyObjectType@TS@@QAE?AV?$_com_ptr_t@V?$_com_IIID@UPropertyObjectType@TS@@$1?_GUID_606104e9_6ede_469c_a1fc_181acc1856bc@@3U__s_GUID@@B@@@@XZ 10025619 f   DBLog.obj
 0001:00024619       __ehhandler$?GetErrors@Connection15@@QAE?AV?$_com_ptr_t@V?$_com_IIID@UErrors@@$1?_GUID_00000501_0000_0010_8000_00aa006d2ea4@@3U__s_GUID@@B@@@@XZ 10025619 f   DBLog.obj
 0001:00024619       __ehhandler$?GetType@PropertyObject@TS@@QAE?AV?$_com_ptr_t@V?$_com_IIID@UPropertyObjectType@TS@@$1?_GUID_606104e9_6ede_469c_a1fc_181acc1856bc@@3U__s_GUID@@B@@@@XZ 10025619 f   DBLog.obj
 0001:00024619       __ehhandler$?GetFields@Recordset15@@QAE?AV?$_com_ptr_t@V?$_com_IIID@UFields@@$1?_GUID_00001564_0000_0010_8000_00aa006d2ea4@@3U__s_GUID@@B@@@@XZ 10025619 f   DBLog.obj
 0001:00024630       __unwindfunclet$?UpdateRegistryFromResourceDHelper@CAtlModule@ATL@@QAGJPB_WHPAU_ATL_REGMAP_ENTRY@2@@Z$1 10025630 f   DBLog.obj
 0001:00024638       __unwindfunclet$?UpdateRegistryFromResourceDHelper@CAtlModule@ATL@@QAGJPB_WHPAU_ATL_REGMAP_ENTRY@2@@Z$0 10025638 f   DBLog.obj
 0001:00024640       __unwindfunclet$?UpdateRegistryFromResourceDHelper@CAtlModule@ATL@@QAGJPB_WHPAU_ATL_REGMAP_ENTRY@2@@Z$2 10025640 f   DBLog.obj
 0001:00024648       __unwindfunclet$?UpdateRegistryFromResourceDHelper@CAtlModule@ATL@@QAGJPB_WHPAU_ATL_REGMAP_ENTRY@2@@Z$3 10025648 f   DBLog.obj
 0001:00024650       __unwindfunclet$?UpdateRegistryFromResourceDHelper@CAtlModule@ATL@@QAGJPB_WHPAU_ATL_REGMAP_ENTRY@2@@Z$4 10025650 f   DBLog.obj
 0001:00024658       __ehhandler$?UpdateRegistryFromResourceDHelper@CAtlModule@ATL@@QAGJPB_WHPAU_ATL_REGMAP_ENTRY@2@@Z 10025658 f   DBLog.obj
 0001:00024670       __unwindfunclet$??_GCComModule@ATL@@UAEPAXI@Z$0 10025670 f   DBLog.obj
 0001:00024678       __unwindfunclet$??_GCComModule@ATL@@UAEPAXI@Z$1 10025678 f   DBLog.obj
 0001:00024680       __ehhandler$??_GCComModule@ATL@@UAEPAXI@Z 10025680 f   DBLog.obj
 0001:00024690       __unwindfunclet$_AtlUnRegisterTypeLib@8$0 10025690 f   DBLog.obj
 0001:00024698       __unwindfunclet$_AtlUnRegisterTypeLib@8$2 10025698 f   DBLog.obj
 0001:000246a0       __unwindfunclet$_AtlUnRegisterTypeLib@8$1 100256a0 f   DBLog.obj
 0001:000246a8       __unwindfunclet$_AtlUnRegisterTypeLib@8$3 100256a8 f   DBLog.obj
 0001:000246b0       __unwindfunclet$_AtlUnRegisterTypeLib@8$4 100256b0 f   DBLog.obj
 0001:000246b8       __ehhandler$_AtlUnRegisterTypeLib@8 100256b8 f   DBLog.obj
 0001:000246d0       __unwindfunclet$_AtlRegisterTypeLib@8$0 100256d0 f   DBLog.obj
 0001:000246db       __unwindfunclet$_AtlRegisterTypeLib@8$3 100256db f   DBLog.obj
 0001:000246e6       __unwindfunclet$_AtlRegisterTypeLib@8$1 100256e6 f   DBLog.obj
 0001:000246f1       __unwindfunclet$_AtlRegisterTypeLib@8$2 100256f1 f   DBLog.obj
 0001:000246fc       __unwindfunclet$_AtlRegisterTypeLib@8$4 100256fc f   DBLog.obj
 0001:00024707       __unwindfunclet$_AtlRegisterTypeLib@8$5 10025707 f   DBLog.obj
 0001:00024712       __ehhandler$_AtlRegisterTypeLib@8 10025712 f   DBLog.obj
 0001:00024720       __unwindfunclet$?GetClassObject@CComModule@ATL@@QAEJABU_GUID@@0PAPAX@Z$0 10025720 f   DBLog.obj
 0001:00024728       __ehhandler$?GetClassObject@CComModule@ATL@@QAEJABU_GUID@@0PAPAX@Z 10025728 f   DBLog.obj
 0001:00024740       __unwindfunclet$??_GCComClassFactory@ATL@@UAEPAXI@Z$0 10025740 f   DBLog.obj
 0001:00024740       __unwindfunclet$??1CComClassFactory@ATL@@UAE@XZ$0 10025740 f   DBLog.obj
 0001:0002474b       __unwindfunclet$??1CComClassFactory@ATL@@UAE@XZ$1 1002574b f   DBLog.obj
 0001:0002474b       __unwindfunclet$??_GCComClassFactory@ATL@@UAEPAXI@Z$1 1002574b f   DBLog.obj
 0001:00024756       __unwindfunclet$??1CComClassFactory@ATL@@UAE@XZ$2 10025756 f   DBLog.obj
 0001:00024756       __unwindfunclet$??_GCComClassFactory@ATL@@UAEPAXI@Z$2 10025756 f   DBLog.obj
 0001:0002475e       __ehhandler$??1CComClassFactory@ATL@@UAE@XZ 1002575e f   DBLog.obj
 0001:0002475e       __ehhandler$??_GCComClassFactory@ATL@@UAEPAXI@Z 1002575e f   DBLog.obj
 0001:00024770       __unwindfunclet$??0?$CComObjectCached@VCComClassFactory@ATL@@@ATL@@QAE@PAX@Z$3 10025770 f   DBLog.obj
 0001:00024778       __unwindfunclet$??0?$CComObjectCached@VCComClassFactory@ATL@@@ATL@@QAE@PAX@Z$2 10025778 f   DBLog.obj
 0001:00024783       __unwindfunclet$??0?$CComObjectCached@VCComClassFactory@ATL@@@ATL@@QAE@PAX@Z$1 10025783 f   DBLog.obj
 0001:0002478e       __unwindfunclet$??0?$CComObjectCached@VCComClassFactory@ATL@@@ATL@@QAE@PAX@Z$0 1002578e f   DBLog.obj
 0001:00024796       __ehhandler$??0?$CComObjectCached@VCComClassFactory@ATL@@@ATL@@QAE@PAX@Z 10025796 f   DBLog.obj
 0001:000247a0       __unwindfunclet$?CreateInstance@?$CComCreator@V?$CComAggObject@VCTSDatalink@@@ATL@@@ATL@@SGJPAXABU_GUID@@PAPAX@Z$2 100257a0 f   DBLog.obj
 0001:000247ab       __ehhandler$?CreateInstance@?$CComCreator@V?$CComAggObject@VCTSDatalink@@@ATL@@@ATL@@SGJPAXABU_GUID@@PAPAX@Z 100257ab f   DBLog.obj
 0001:000247c0       __unwindfunclet$??_G?$CComObjectCached@VCComClassFactory@ATL@@@ATL@@UAEPAXI@Z$0 100257c0 f   DBLog.obj
 0001:000247c8       __unwindfunclet$??_G?$CComObjectCached@VCComClassFactory@ATL@@@ATL@@UAEPAXI@Z$1 100257c8 f   DBLog.obj
 0001:000247d3       __unwindfunclet$??_G?$CComObjectCached@VCComClassFactory@ATL@@@ATL@@UAEPAXI@Z$2 100257d3 f   DBLog.obj
 0001:000247de       __unwindfunclet$??_G?$CComObjectCached@VCComClassFactory@ATL@@@ATL@@UAEPAXI@Z$3 100257de f   DBLog.obj
 0001:000247e6       __ehhandler$??_G?$CComObjectCached@VCComClassFactory@ATL@@@ATL@@UAEPAXI@Z 100257e6 f   DBLog.obj
 0001:000247f0       __unwindfunclet$?UpdateRegistryFromResourceD@CAtlModule@ATL@@QAGJPBDHPAU_ATL_REGMAP_ENTRY@2@@Z$0 100257f0 f   DBLog.obj
 0001:000247f8       __ehhandler$?UpdateRegistryFromResourceD@CAtlModule@ATL@@QAGJPBDHPAU_ATL_REGMAP_ENTRY@2@@Z 100257f8 f   DBLog.obj
 0001:00024810       __unwindfunclet$?GetTI@CComTypeInfoHolder@ATL@@QAEJK@Z$0 10025810 f   DBLog.obj
 0001:00024818       __unwindfunclet$?GetTI@CComTypeInfoHolder@ATL@@QAEJK@Z$1 10025818 f   DBLog.obj
 0001:00024820       __unwindfunclet$?GetTI@CComTypeInfoHolder@ATL@@QAEJK@Z$5 10025820 f   DBLog.obj
 0001:00024828       __unwindfunclet$?GetTI@CComTypeInfoHolder@ATL@@QAEJK@Z$2 10025828 f   DBLog.obj
 0001:00024830       __unwindfunclet$?GetTI@CComTypeInfoHolder@ATL@@QAEJK@Z$6 10025830 f   DBLog.obj
 0001:00024838       __unwindfunclet$?GetTI@CComTypeInfoHolder@ATL@@QAEJK@Z$3 10025838 f   DBLog.obj
 0001:00024840       __unwindfunclet$?GetTI@CComTypeInfoHolder@ATL@@QAEJK@Z$7 10025840 f   DBLog.obj
 0001:00024848       __unwindfunclet$?GetTI@CComTypeInfoHolder@ATL@@QAEJK@Z$4 10025848 f   DBLog.obj
 0001:00024850       __unwindfunclet$?GetTI@CComTypeInfoHolder@ATL@@QAEJK@Z$8 10025850 f   DBLog.obj
 0001:00024858       __unwindfunclet$?GetTI@CComTypeInfoHolder@ATL@@QAEJK@Z$9 10025858 f   DBLog.obj
 0001:00024860       __unwindfunclet$?GetTI@CComTypeInfoHolder@ATL@@QAEJK@Z$10 10025860 f   DBLog.obj
 0001:00024868       __ehhandler$?GetTI@CComTypeInfoHolder@ATL@@QAEJK@Z 10025868 f   DBLog.obj
 0001:00024880       __unwindfunclet$?CreateInstance@?$CComCreator@V?$CComObjectCached@VCComClassFactory@ATL@@@ATL@@@ATL@@SGJPAXABU_GUID@@PAPAX@Z$2 10025880 f   DBLog.obj
 0001:0002488b       __ehhandler$?CreateInstance@?$CComCreator@V?$CComObjectCached@VCComClassFactory@ATL@@@ATL@@@ATL@@SGJPAXABU_GUID@@PAPAX@Z 1002588b f   DBLog.obj
 0001:000248a0       __unwindfunclet$?Open@Connection15@@QAEJV_bstr_t@@00J@Z$0 100258a0 f   DBLog.obj
 0001:000248a8       __unwindfunclet$?Open@Connection15@@QAEJV_bstr_t@@00J@Z$1 100258a8 f   DBLog.obj
 0001:000248b0       __unwindfunclet$?Open@Connection15@@QAEJV_bstr_t@@00J@Z$2 100258b0 f   DBLog.obj
 0001:000248b8       __ehhandler$?Open@Connection15@@QAEJV_bstr_t@@00J@Z 100258b8 f   DBLog.obj
 0001:000248d0       __unwindfunclet$??0?$CComObject@VCTSDBLog@@@ATL@@QAE@PAX@Z$4 100258d0 f   DBLog.obj
 0001:000248d8       __unwindfunclet$??0?$CComObject@VCTSDBLog@@@ATL@@QAE@PAX@Z$3 100258d8 f   DBLog.obj
 0001:000248e3       __unwindfunclet$??0?$CComObject@VCTSDBLog@@@ATL@@QAE@PAX@Z$1 100258e3 f   DBLog.obj
 0001:000248ee       __unwindfunclet$??0?$CComObject@VCTSDBLog@@@ATL@@QAE@PAX@Z$2 100258ee f   DBLog.obj
 0001:000248f9       __unwindfunclet$??0?$CComObject@VCTSDBLog@@@ATL@@QAE@PAX@Z$0 100258f9 f   DBLog.obj
 0001:00024901       __ehhandler$??0?$CComObject@VCTSDBLog@@@ATL@@QAE@PAX@Z 10025901 f   DBLog.obj
 0001:00024910       __unwindfunclet$?GetValString@PropertyObject@TS@@QAE?AV_bstr_t@@V3@J@Z$0 10025910 f   DBLog.obj
 0001:00024918       __unwindfunclet$?GetValString@PropertyObject@TS@@QAE?AV_bstr_t@@V3@J@Z$2 10025918 f   DBLog.obj
 0001:00024923       __unwindfunclet$?GetValString@PropertyObject@TS@@QAE?AV_bstr_t@@V3@J@Z$1 10025923 f   DBLog.obj
 0001:0002493c       __ehhandler$?GetValString@PropertyObject@TS@@QAE?AV_bstr_t@@V3@J@Z 1002593c f   DBLog.obj
 0001:00024950       __unwindfunclet$?AttachObject@IInstrSession@SM@@QAEJV_bstr_t@@PAUIUnknown@@0F@Z$0 10025950 f   DBLog.obj
 0001:00024950       __unwindfunclet$?SetValString@PropertyObject@TS@@QAEJV_bstr_t@@J0@Z$0 10025950 f   DBLog.obj
 0001:00024958       __unwindfunclet$?SetValString@PropertyObject@TS@@QAEJV_bstr_t@@J0@Z$1 10025958 f   DBLog.obj
 0001:00024958       __unwindfunclet$?AttachObject@IInstrSession@SM@@QAEJV_bstr_t@@PAUIUnknown@@0F@Z$1 10025958 f   DBLog.obj
 0001:00024960       __ehhandler$?AttachObject@IInstrSession@SM@@QAEJV_bstr_t@@PAUIUnknown@@0F@Z 10025960 f   DBLog.obj
 0001:00024960       __ehhandler$?SetValString@PropertyObject@TS@@QAEJV_bstr_t@@J0@Z 10025960 f   DBLog.obj
 0001:00024970       __unwindfunclet$?GetValVariant@PropertyObject@TS@@QAE?AV_variant_t@@V_bstr_t@@J@Z$0 10025970 f   DBLog.obj
 0001:00024978       __unwindfunclet$?GetValVariant@PropertyObject@TS@@QAE?AV_variant_t@@V_bstr_t@@J@Z$1 10025978 f   DBLog.obj
 0001:00024991       __ehhandler$?GetValVariant@PropertyObject@TS@@QAE?AV_variant_t@@V_bstr_t@@J@Z 10025991 f   DBLog.obj
 0001:000249a0       __unwindfunclet$?Exists@PropertyObject@TS@@QAEFV_bstr_t@@J@Z$0 100259a0 f   DBLog.obj
 0001:000249a0       __unwindfunclet$?PutCommandText@Command15@@QAEXV_bstr_t@@@Z$0 100259a0 f   DBLog.obj
 0001:000249a0       __unwindfunclet$?DetachData@IInstrSession@SM@@QAEJV_bstr_t@@@Z$0 100259a0 f   DBLog.obj
 0001:000249a0       __unwindfunclet$?SetPropertyObject@PropertyObject@TS@@QAEJV_bstr_t@@JPAU12@@Z$0 100259a0 f   DBLog.obj
 0001:000249a0       __unwindfunclet$?SetValVariant@PropertyObject@TS@@QAEJV_bstr_t@@JABV_variant_t@@@Z$0 100259a0 f   DBLog.obj
 0001:000249a0       __unwindfunclet$?HasSameName@Statement@@QAE_NV_bstr_t@@@Z$0 100259a0 f   DBLog.obj
 0001:000249a0       __unwindfunclet$?GetFlags@PropertyObject@TS@@QAEJV_bstr_t@@J@Z$0 100259a0 f   DBLog.obj
 0001:000249a0       __unwindfunclet$?SetValNumber@PropertyObject@TS@@QAEJV_bstr_t@@JN@Z$0 100259a0 f   DBLog.obj
 0001:000249a0       __unwindfunclet$?GetNumSubProperties@PropertyObject@TS@@QAEJV_bstr_t@@@Z$0 100259a0 f   DBLog.obj
 0001:000249a0       __unwindfunclet$?GetValNumber@PropertyObject@TS@@QAENV_bstr_t@@J@Z$0 100259a0 f   DBLog.obj
 0001:000249a0       __unwindfunclet$?Find@Recordset15@@QAEJV_bstr_t@@JW4SearchDirectionEnum@@ABV_variant_t@@@Z$0 100259a0 f   DBLog.obj
 0001:000249a0       __unwindfunclet$?GetDimensions@PropertyObject@TS@@QAEJV_bstr_t@@JPAPA_W1PAJPAW4PropertyValueTypes@2@@Z$0 100259a0 f   DBLog.obj
 0001:000249a0       __unwindfunclet$?DeleteSubProperty@PropertyObject@TS@@QAEJV_bstr_t@@J@Z$0 100259a0 f   DBLog.obj
 0001:000249a0       __unwindfunclet$?GetDateTimeValue@CDbColumn@@AAEXV_bstr_t@@AAV_variant_t@@@Z$0 100259a0 f   DBLog.obj
 0001:000249a0       __unwindfunclet$?PutConnectionString@Connection15@@QAEXV_bstr_t@@@Z$0 100259a0 f   DBLog.obj
 0001:000249a0       __unwindfunclet$?SetValIDispatch@PropertyObject@TS@@QAEJV_bstr_t@@JPAUIDispatch@@@Z$0 100259a0 f   DBLog.obj
 0001:000249a0       __unwindfunclet$?GetValBoolean@PropertyObject@TS@@QAEFV_bstr_t@@J@Z$0 100259a0 f   DBLog.obj
 0001:000249a0       __unwindfunclet$?FindFile@IEngine@TS@@QAEFV_bstr_t@@PAPA_WPAFW4FindFilePromptOptions@2@W4FindFileSearchListOptions@2@FABV_variant_t@@@Z$0 100259a0 f   DBLog.obj
 0001:000249a0       __unwindfunclet$?PutText@Expression@TS@@QAEXV_bstr_t@@@Z$0 100259a0 f   DBLog.obj
 0001:000249a8       __ehhandler$?PutText@Expression@TS@@QAEXV_bstr_t@@@Z 100259a8 f   DBLog.obj
 0001:000249a8       __ehhandler$?PutConnectionString@Connection15@@QAEXV_bstr_t@@@Z 100259a8 f   DBLog.obj
 0001:000249a8       __ehhandler$?FindFile@IEngine@TS@@QAEFV_bstr_t@@PAPA_WPAFW4FindFilePromptOptions@2@W4FindFileSearchListOptions@2@FABV_variant_t@@@Z 100259a8 f   DBLog.obj
 0001:000249a8       __ehhandler$?GetDimensions@PropertyObject@TS@@QAEJV_bstr_t@@JPAPA_W1PAJPAW4PropertyValueTypes@2@@Z 100259a8 f   DBLog.obj
 0001:000249a8       __ehhandler$?Find@Recordset15@@QAEJV_bstr_t@@JW4SearchDirectionEnum@@ABV_variant_t@@@Z 100259a8 f   DBLog.obj
 0001:000249a8       __ehhandler$?Exists@PropertyObject@TS@@QAEFV_bstr_t@@J@Z 100259a8 f   DBLog.obj
 0001:000249a8       __ehhandler$?SetValNumber@PropertyObject@TS@@QAEJV_bstr_t@@JN@Z 100259a8 f   DBLog.obj
 0001:000249a8       __ehhandler$?GetValNumber@PropertyObject@TS@@QAENV_bstr_t@@J@Z 100259a8 f   DBLog.obj
 0001:000249a8       __ehhandler$?GetValBoolean@PropertyObject@TS@@QAEFV_bstr_t@@J@Z 100259a8 f   DBLog.obj
 0001:000249a8       __ehhandler$?GetFlags@PropertyObject@TS@@QAEJV_bstr_t@@J@Z 100259a8 f   DBLog.obj
 0001:000249a8       __ehhandler$?SetValIDispatch@PropertyObject@TS@@QAEJV_bstr_t@@JPAUIDispatch@@@Z 100259a8 f   DBLog.obj
 0001:000249a8       __ehhandler$?GetDateTimeValue@CDbColumn@@AAEXV_bstr_t@@AAV_variant_t@@@Z 100259a8 f   DBLog.obj
 0001:000249a8       __ehhandler$?HasSameName@Statement@@QAE_NV_bstr_t@@@Z 100259a8 f   DBLog.obj
 0001:000249a8       __ehhandler$?SetValVariant@PropertyObject@TS@@QAEJV_bstr_t@@JABV_variant_t@@@Z 100259a8 f   DBLog.obj
 0001:000249a8       __ehhandler$?PutCommandText@Command15@@QAEXV_bstr_t@@@Z 100259a8 f   DBLog.obj
 0001:000249a8       __ehhandler$?DeleteSubProperty@PropertyObject@TS@@QAEJV_bstr_t@@J@Z 100259a8 f   DBLog.obj
 0001:000249a8       __ehhandler$?DetachData@IInstrSession@SM@@QAEJV_bstr_t@@@Z 100259a8 f   DBLog.obj
 0001:000249a8       __ehhandler$?SetPropertyObject@PropertyObject@TS@@QAEJV_bstr_t@@JPAU12@@Z 100259a8 f   DBLog.obj
 0001:000249a8       __ehhandler$?GetNumSubProperties@PropertyObject@TS@@QAEJV_bstr_t@@@Z 100259a8 f   DBLog.obj
 0001:000249c0       __unwindfunclet$?GetArrayIndex@PropertyObject@TS@@QAE?AV_bstr_t@@V3@JJ@Z$0 100259c0 f   DBLog.obj
 0001:000249c0       __unwindfunclet$?GetNthSubPropertyName@PropertyObject@TS@@QAE?AV_bstr_t@@V3@JJ@Z$0 100259c0 f   DBLog.obj
 0001:000249c8       __unwindfunclet$?GetNthSubPropertyName@PropertyObject@TS@@QAE?AV_bstr_t@@V3@JJ@Z$2 100259c8 f   DBLog.obj
 0001:000249c8       __unwindfunclet$?GetArrayIndex@PropertyObject@TS@@QAE?AV_bstr_t@@V3@JJ@Z$2 100259c8 f   DBLog.obj
 0001:000249d3       __unwindfunclet$?GetNthSubPropertyName@PropertyObject@TS@@QAE?AV_bstr_t@@V3@JJ@Z$1 100259d3 f   DBLog.obj
 0001:000249d3       __unwindfunclet$?GetArrayIndex@PropertyObject@TS@@QAE?AV_bstr_t@@V3@JJ@Z$1 100259d3 f   DBLog.obj
 0001:000249ec       __ehhandler$?GetArrayIndex@PropertyObject@TS@@QAE?AV_bstr_t@@V3@JJ@Z 100259ec f   DBLog.obj
 0001:000249ec       __ehhandler$?GetNthSubPropertyName@PropertyObject@TS@@QAE?AV_bstr_t@@V3@JJ@Z 100259ec f   DBLog.obj
 0001:00024a00       __unwindfunclet$?NewSubProperty@PropertyObject@TS@@QAEJV_bstr_t@@W4PropertyValueTypes@2@F0J@Z$0 10025a00 f   DBLog.obj
 0001:00024a08       __unwindfunclet$?NewSubProperty@PropertyObject@TS@@QAEJV_bstr_t@@W4PropertyValueTypes@2@F0J@Z$1 10025a08 f   DBLog.obj
 0001:00024a10       __ehhandler$?NewSubProperty@PropertyObject@TS@@QAEJV_bstr_t@@W4PropertyValueTypes@2@F0J@Z 10025a10 f   DBLog.obj
 0001:00024a20       __unwindfunclet$?CreateParameter@Command15@@QAE?AV?$_com_ptr_t@V?$_com_IIID@U_Parameter@@$1?_GUID_0000150c_0000_0010_8000_00aa006d2ea4@@3U__s_GUID@@B@@@@V_bstr_t@@W4DataTypeEnum@@W4ParameterDirectionEnum@@JABV_variant_t@@@Z$0 10025a20 f   DBLog.obj
 0001:00024a20       __unwindfunclet$?GetInstrSession@IInstrSessionMgr@SM@@QAE?AV?$_com_ptr_t@V?$_com_IIID@UIInstrSession@SM@@$1?_GUID_8ab74eec_6c57_11d3_8de1_006097053485@@3U__s_GUID@@B@@@@V_bstr_t@@F@Z$0 10025a20 f   DBLog.obj
 0001:00024a20       __unwindfunclet$?TSRenamed_GetObject@IInstrSession@SM@@QAE?AV?$_com_ptr_t@V?$_com_IIID@UIUnknown@@$1?_GUID_00000000_0000_0000_c000_000000000046@@3U__s_GUID@@B@@@@V_bstr_t@@@Z$0 10025a20 f   DBLog.obj
 0001:00024a20       __unwindfunclet$?GetValIDispatch@PropertyObject@TS@@QAE?AV?$_com_ptr_t@V?$_com_IIID@UIDispatch@@$1?_GUID_00020400_0000_0000_c000_000000000046@@3U__s_GUID@@B@@@@V_bstr_t@@J@Z$0 10025a20 f   DBLog.obj
 0001:00024a20       __unwindfunclet$?GetPropertyObject@PropertyObject@TS@@QAE?AV?$_com_ptr_t@V?$_com_IIID@UPropertyObject@TS@@$1?_GUID_8d8769a0_09c0_11d1_93bd_0020af68e893@@3U__s_GUID@@B@@@@V_bstr_t@@J@Z$0 10025a20 f   DBLog.obj
 0001:00024a20       __unwindfunclet$?Evaluate@PropertyObject@TS@@QAE?AV?$_com_ptr_t@V?$_com_IIID@UPropertyObject@TS@@$1?_GUID_8d8769a0_09c0_11d1_93bd_0020af68e893@@3U__s_GUID@@B@@@@V_bstr_t@@@Z$0 10025a20 f   DBLog.obj
 0001:00024a20       __unwindfunclet$?EvaluateEx@PropertyObject@TS@@QAE?AV?$_com_ptr_t@V?$_com_IIID@UPropertyObject@TS@@$1?_GUID_8d8769a0_09c0_11d1_93bd_0020af68e893@@3U__s_GUID@@B@@@@V_bstr_t@@J@Z$0 10025a20 f   DBLog.obj
 0001:00024a20       __unwindfunclet$?Clone@PropertyObject@TS@@QAE?AV?$_com_ptr_t@V?$_com_IIID@UPropertyObject@TS@@$1?_GUID_8d8769a0_09c0_11d1_93bd_0020af68e893@@3U__s_GUID@@B@@@@V_bstr_t@@J@Z$0 10025a20 f   DBLog.obj
 0001:00024a28       __unwindfunclet$?CreateParameter@Command15@@QAE?AV?$_com_ptr_t@V?$_com_IIID@U_Parameter@@$1?_GUID_0000150c_0000_0010_8000_00aa006d2ea4@@3U__s_GUID@@B@@@@V_bstr_t@@W4DataTypeEnum@@W4ParameterDirectionEnum@@JABV_variant_t@@@Z$1 10025a28 f   DBLog.obj
 0001:00024a28       __unwindfunclet$?GetValIDispatch@PropertyObject@TS@@QAE?AV?$_com_ptr_t@V?$_com_IIID@UIDispatch@@$1?_GUID_00020400_0000_0000_c000_000000000046@@3U__s_GUID@@B@@@@V_bstr_t@@J@Z$1 10025a28 f   DBLog.obj
 0001:00024a28       __unwindfunclet$?EvaluateEx@PropertyObject@TS@@QAE?AV?$_com_ptr_t@V?$_com_IIID@UPropertyObject@TS@@$1?_GUID_8d8769a0_09c0_11d1_93bd_0020af68e893@@3U__s_GUID@@B@@@@V_bstr_t@@J@Z$1 10025a28 f   DBLog.obj
 0001:00024a28       __unwindfunclet$?TSRenamed_GetObject@IInstrSession@SM@@QAE?AV?$_com_ptr_t@V?$_com_IIID@UIUnknown@@$1?_GUID_00000000_0000_0000_c000_000000000046@@3U__s_GUID@@B@@@@V_bstr_t@@@Z$1 10025a28 f   DBLog.obj
 0001:00024a28       __unwindfunclet$?GetInstrSession@IInstrSessionMgr@SM@@QAE?AV?$_com_ptr_t@V?$_com_IIID@UIInstrSession@SM@@$1?_GUID_8ab74eec_6c57_11d3_8de1_006097053485@@3U__s_GUID@@B@@@@V_bstr_t@@F@Z$1 10025a28 f   DBLog.obj
 0001:00024a28       __unwindfunclet$?GetPropertyObject@PropertyObject@TS@@QAE?AV?$_com_ptr_t@V?$_com_IIID@UPropertyObject@TS@@$1?_GUID_8d8769a0_09c0_11d1_93bd_0020af68e893@@3U__s_GUID@@B@@@@V_bstr_t@@J@Z$1 10025a28 f   DBLog.obj
 0001:00024a28       __unwindfunclet$?Clone@PropertyObject@TS@@QAE?AV?$_com_ptr_t@V?$_com_IIID@UPropertyObject@TS@@$1?_GUID_8d8769a0_09c0_11d1_93bd_0020af68e893@@3U__s_GUID@@B@@@@V_bstr_t@@J@Z$1 10025a28 f   DBLog.obj
 0001:00024a28       __unwindfunclet$?Evaluate@PropertyObject@TS@@QAE?AV?$_com_ptr_t@V?$_com_IIID@UPropertyObject@TS@@$1?_GUID_8d8769a0_09c0_11d1_93bd_0020af68e893@@3U__s_GUID@@B@@@@V_bstr_t@@@Z$1 10025a28 f   DBLog.obj
 0001:00024a41       __ehhandler$?CreateParameter@Command15@@QAE?AV?$_com_ptr_t@V?$_com_IIID@U_Parameter@@$1?_GUID_0000150c_0000_0010_8000_00aa006d2ea4@@3U__s_GUID@@B@@@@V_bstr_t@@W4DataTypeEnum@@W4ParameterDirectionEnum@@JABV_variant_t@@@Z 10025a41 f   DBLog.obj
 0001:00024a41       __ehhandler$?GetValIDispatch@PropertyObject@TS@@QAE?AV?$_com_ptr_t@V?$_com_IIID@UIDispatch@@$1?_GUID_00020400_0000_0000_c000_000000000046@@3U__s_GUID@@B@@@@V_bstr_t@@J@Z 10025a41 f   DBLog.obj
 0001:00024a41       __ehhandler$?GetPropertyObject@PropertyObject@TS@@QAE?AV?$_com_ptr_t@V?$_com_IIID@UPropertyObject@TS@@$1?_GUID_8d8769a0_09c0_11d1_93bd_0020af68e893@@3U__s_GUID@@B@@@@V_bstr_t@@J@Z 10025a41 f   DBLog.obj
 0001:00024a41       __ehhandler$?Evaluate@PropertyObject@TS@@QAE?AV?$_com_ptr_t@V?$_com_IIID@UPropertyObject@TS@@$1?_GUID_8d8769a0_09c0_11d1_93bd_0020af68e893@@3U__s_GUID@@B@@@@V_bstr_t@@@Z 10025a41 f   DBLog.obj
 0001:00024a41       __ehhandler$?GetInstrSession@IInstrSessionMgr@SM@@QAE?AV?$_com_ptr_t@V?$_com_IIID@UIInstrSession@SM@@$1?_GUID_8ab74eec_6c57_11d3_8de1_006097053485@@3U__s_GUID@@B@@@@V_bstr_t@@F@Z 10025a41 f   DBLog.obj
 0001:00024a41       __ehhandler$?TSRenamed_GetObject@IInstrSession@SM@@QAE?AV?$_com_ptr_t@V?$_com_IIID@UIUnknown@@$1?_GUID_00000000_0000_0000_c000_000000000046@@3U__s_GUID@@B@@@@V_bstr_t@@@Z 10025a41 f   DBLog.obj
 0001:00024a41       __ehhandler$?EvaluateEx@PropertyObject@TS@@QAE?AV?$_com_ptr_t@V?$_com_IIID@UPropertyObject@TS@@$1?_GUID_8d8769a0_09c0_11d1_93bd_0020af68e893@@3U__s_GUID@@B@@@@V_bstr_t@@J@Z 10025a41 f   DBLog.obj
 0001:00024a41       __ehhandler$?Clone@PropertyObject@TS@@QAE?AV?$_com_ptr_t@V?$_com_IIID@UPropertyObject@TS@@$1?_GUID_8d8769a0_09c0_11d1_93bd_0020af68e893@@3U__s_GUID@@B@@@@V_bstr_t@@J@Z 10025a41 f   DBLog.obj
 0001:00024a50       __unwindfunclet$?GetFormattedValue@PropertyObject@TS@@QAE?AV_bstr_t@@V3@J0F0@Z$0 10025a50 f   DBLog.obj
 0001:00024a58       __unwindfunclet$?GetFormattedValue@PropertyObject@TS@@QAE?AV_bstr_t@@V3@J0F0@Z$1 10025a58 f   DBLog.obj
 0001:00024a60       __unwindfunclet$?GetFormattedValue@PropertyObject@TS@@QAE?AV_bstr_t@@V3@J0F0@Z$2 10025a60 f   DBLog.obj
 0001:00024a68       __unwindfunclet$?GetFormattedValue@PropertyObject@TS@@QAE?AV_bstr_t@@V3@J0F0@Z$4 10025a68 f   DBLog.obj
 0001:00024a73       __unwindfunclet$?GetFormattedValue@PropertyObject@TS@@QAE?AV_bstr_t@@V3@J0F0@Z$3 10025a73 f   DBLog.obj
 0001:00024a8c       __ehhandler$?GetFormattedValue@PropertyObject@TS@@QAE?AV_bstr_t@@V3@J0F0@Z 10025a8c f   DBLog.obj
 0001:00024aa0       __unwindfunclet$?GetResourceString@IEngine@TS@@QAE?AV_bstr_t@@V3@0ABV_variant_t@@PAUtagVARIANT@@@Z$0 10025aa0 f   DBLog.obj
 0001:00024aa8       __unwindfunclet$?GetResourceString@IEngine@TS@@QAE?AV_bstr_t@@V3@0ABV_variant_t@@PAUtagVARIANT@@@Z$1 10025aa8 f   DBLog.obj
 0001:00024ab0       __unwindfunclet$?GetResourceString@IEngine@TS@@QAE?AV_bstr_t@@V3@0ABV_variant_t@@PAUtagVARIANT@@@Z$3 10025ab0 f   DBLog.obj
 0001:00024abb       __unwindfunclet$?GetResourceString@IEngine@TS@@QAE?AV_bstr_t@@V3@0ABV_variant_t@@PAUtagVARIANT@@@Z$2 10025abb f   DBLog.obj
 0001:00024ad4       __ehhandler$?GetResourceString@IEngine@TS@@QAE?AV_bstr_t@@V3@0ABV_variant_t@@PAUtagVARIANT@@@Z 10025ad4 f   DBLog.obj
 0001:00024ae0       __unwindfunclet$?PostUIMessage@Thread@TS@@QAEJW4UIMessageCodes@2@NV_bstr_t@@F@Z$0 10025ae0 f   DBLog.obj
 0001:00024ae8       __ehhandler$?PostUIMessage@Thread@TS@@QAEJW4UIMessageCodes@2@NV_bstr_t@@F@Z 10025ae8 f   DBLog.obj
 0001:00024b00       __ehhandler$?CreateInstance@?$CComCreator@V?$CComObject@VCTSDBLog@@@ATL@@@ATL@@SGJPAXABU_GUID@@PAPAX@Z 10025b00 f   DBLog.obj
 0001:00024b10       __unwindfunclet$??0?$CComAggObject@VCTSDBLog@@@ATL@@QAE@PAX@Z$5 10025b10 f   DBLog.obj
 0001:00024b18       __unwindfunclet$??0?$CComAggObject@VCTSDBLog@@@ATL@@QAE@PAX@Z$4 10025b18 f   DBLog.obj
 0001:00024b23       __unwindfunclet$??0?$CComAggObject@VCTSDBLog@@@ATL@@QAE@PAX@Z$2 10025b23 f   DBLog.obj
 0001:00024b2e       __unwindfunclet$??0?$CComAggObject@VCTSDBLog@@@ATL@@QAE@PAX@Z$3 10025b2e f   DBLog.obj
 0001:00024b39       __unwindfunclet$??0?$CComAggObject@VCTSDBLog@@@ATL@@QAE@PAX@Z$1 10025b39 f   DBLog.obj
 0001:00024b41       __unwindfunclet$??0?$CComAggObject@VCTSDBLog@@@ATL@@QAE@PAX@Z$0 10025b41 f   DBLog.obj
 0001:00024b4c       __ehhandler$??0?$CComAggObject@VCTSDBLog@@@ATL@@QAE@PAX@Z 10025b4c f   DBLog.obj
 0001:00024b60       __unwindfunclet$??1?$CComAggObject@VCTSDBLog@@@ATL@@UAE@XZ$0 10025b60 f   DBLog.obj
 0001:00024b6b       __unwindfunclet$??1?$CComAggObject@VCTSDBLog@@@ATL@@UAE@XZ$1 10025b6b f   DBLog.obj
 0001:00024b73       __unwindfunclet$??1?$CComAggObject@VCTSDBLog@@@ATL@@UAE@XZ$2 10025b73 f   DBLog.obj
 0001:00024b7e       __unwindfunclet$??1?$CComAggObject@VCTSDBLog@@@ATL@@UAE@XZ$3 10025b7e f   DBLog.obj
 0001:00024b89       __unwindfunclet$??1?$CComAggObject@VCTSDBLog@@@ATL@@UAE@XZ$4 10025b89 f   DBLog.obj
 0001:00024b94       __unwindfunclet$??1?$CComAggObject@VCTSDBLog@@@ATL@@UAE@XZ$5 10025b94 f   DBLog.obj
 0001:00024b9c       __ehhandler$??1?$CComAggObject@VCTSDBLog@@@ATL@@UAE@XZ 10025b9c f   DBLog.obj
 0001:00024bb0       __unwindfunclet$?CreateInstance@?$CComCreator@V?$CComAggObject@VCTSDBLog@@@ATL@@@ATL@@SGJPAXABU_GUID@@PAPAX@Z$2 10025bb0 f   DBLog.obj
 0001:00024bbb       __ehhandler$?CreateInstance@?$CComCreator@V?$CComAggObject@VCTSDBLog@@@ATL@@@ATL@@SGJPAXABU_GUID@@PAPAX@Z 10025bbb f   DBLog.obj
 0001:00024bd0       __unwindfunclet$??__E_Module@@YAXXZ$1 10025bd0 f   DBLog.obj
 0001:00024bda       __unwindfunclet$??__E_Module@@YAXXZ$0 10025bda f   DBLog.obj
 0001:00024be4       __ehhandler$??__E_Module@@YAXXZ 10025be4 f   DBLog.obj
 0001:00024bf0       __unwindfunclet$??__FtheApp@@YAXXZ$0 10025bf0 f   DBLog.obj
 0001:00024bf0       __unwindfunclet$??__EtheApp@@YAXXZ$0 10025bf0 f   DBLog.obj
 0001:00024bfa       __ehhandler$??__FtheApp@@YAXXZ 10025bfa f   DBLog.obj
 0001:00024bfa       __ehhandler$??__EtheApp@@YAXXZ 10025bfa f   DBLog.obj
 0001:00024c10       __unwindfunclet$??__F_Module@@YAXXZ$0 10025c10 f   DBLog.obj
 0001:00024c1a       __unwindfunclet$??__F_Module@@YAXXZ$1 10025c1a f   DBLog.obj
 0001:00024c24       __ehhandler$??__F_Module@@YAXXZ 10025c24 f   DBLog.obj
 0001:00024c30       __unwindfunclet$?GetTerminationMonitorStatus@LoggingInfo@@QAE_NXZ$0 10025c30 f   DBLogUtil.obj
 0001:00024c38       __ehhandler$?GetTerminationMonitorStatus@LoggingInfo@@QAE_NXZ 10025c38 f   DBLogUtil.obj
 0001:00024c50       __unwindfunclet$?InitTerminationMonitor@LoggingInfo@@QAEXXZ$0 10025c50 f   DBLogUtil.obj
 0001:00024c58       __unwindfunclet$?InitTerminationMonitor@LoggingInfo@@QAEXXZ$1 10025c58 f   DBLogUtil.obj
 0001:00024c60       __ehhandler$?InitTerminationMonitor@LoggingInfo@@QAEXXZ 10025c60 f   DBLogUtil.obj
 0001:00024c70       __unwindfunclet$?Initialize@LoggingInfo@@QAEXAAV?$_com_ptr_t@V?$_com_IIID@USequenceContext@TS@@$1?_GUID_6427d0e0_e410_11d0_93b4_0020af68e893@@3U__s_GUID@@B@@@@W4LoggingInfoTypes@1@_NAA_N2@Z$0 10025c70 f   DBLogUtil.obj
 0001:00024c78       __unwindfunclet$?Initialize@LoggingInfo@@QAEXAAV?$_com_ptr_t@V?$_com_IIID@USequenceContext@TS@@$1?_GUID_6427d0e0_e410_11d0_93b4_0020af68e893@@3U__s_GUID@@B@@@@W4LoggingInfoTypes@1@_NAA_N2@Z$17 10025c78 f   DBLogUtil.obj
 0001:00024c80       __unwindfunclet$?Initialize@LoggingInfo@@QAEXAAV?$_com_ptr_t@V?$_com_IIID@USequenceContext@TS@@$1?_GUID_6427d0e0_e410_11d0_93b4_0020af68e893@@3U__s_GUID@@B@@@@W4LoggingInfoTypes@1@_NAA_N2@Z$18 10025c80 f   DBLogUtil.obj
 0001:00024c88       __unwindfunclet$?Initialize@LoggingInfo@@QAEXAAV?$_com_ptr_t@V?$_com_IIID@USequenceContext@TS@@$1?_GUID_6427d0e0_e410_11d0_93b4_0020af68e893@@3U__s_GUID@@B@@@@W4LoggingInfoTypes@1@_NAA_N2@Z$19 10025c88 f   DBLogUtil.obj
 0001:00024c90       __unwindfunclet$?Initialize@LoggingInfo@@QAEXAAV?$_com_ptr_t@V?$_com_IIID@USequenceContext@TS@@$1?_GUID_6427d0e0_e410_11d0_93b4_0020af68e893@@3U__s_GUID@@B@@@@W4LoggingInfoTypes@1@_NAA_N2@Z$20 10025c90 f   DBLogUtil.obj
 0001:00024c98       __unwindfunclet$?Initialize@LoggingInfo@@QAEXAAV?$_com_ptr_t@V?$_com_IIID@USequenceContext@TS@@$1?_GUID_6427d0e0_e410_11d0_93b4_0020af68e893@@3U__s_GUID@@B@@@@W4LoggingInfoTypes@1@_NAA_N2@Z$21 10025c98 f   DBLogUtil.obj
 0001:00024ca0       __unwindfunclet$?Initialize@LoggingInfo@@QAEXAAV?$_com_ptr_t@V?$_com_IIID@USequenceContext@TS@@$1?_GUID_6427d0e0_e410_11d0_93b4_0020af68e893@@3U__s_GUID@@B@@@@W4LoggingInfoTypes@1@_NAA_N2@Z$22 10025ca0 f   DBLogUtil.obj
 0001:00024ca8       __unwindfunclet$?Initialize@LoggingInfo@@QAEXAAV?$_com_ptr_t@V?$_com_IIID@USequenceContext@TS@@$1?_GUID_6427d0e0_e410_11d0_93b4_0020af68e893@@3U__s_GUID@@B@@@@W4LoggingInfoTypes@1@_NAA_N2@Z$23 10025ca8 f   DBLogUtil.obj
 0001:00024cb0       __unwindfunclet$?Initialize@LoggingInfo@@QAEXAAV?$_com_ptr_t@V?$_com_IIID@USequenceContext@TS@@$1?_GUID_6427d0e0_e410_11d0_93b4_0020af68e893@@3U__s_GUID@@B@@@@W4LoggingInfoTypes@1@_NAA_N2@Z$24 10025cb0 f   DBLogUtil.obj
 0001:00024cb8       __unwindfunclet$?Initialize@LoggingInfo@@QAEXAAV?$_com_ptr_t@V?$_com_IIID@USequenceContext@TS@@$1?_GUID_6427d0e0_e410_11d0_93b4_0020af68e893@@3U__s_GUID@@B@@@@W4LoggingInfoTypes@1@_NAA_N2@Z$25 10025cb8 f   DBLogUtil.obj
 0001:00024cc0       __unwindfunclet$?Initialize@LoggingInfo@@QAEXAAV?$_com_ptr_t@V?$_com_IIID@USequenceContext@TS@@$1?_GUID_6427d0e0_e410_11d0_93b4_0020af68e893@@3U__s_GUID@@B@@@@W4LoggingInfoTypes@1@_NAA_N2@Z$26 10025cc0 f   DBLogUtil.obj
 0001:00024cc8       __unwindfunclet$?Initialize@LoggingInfo@@QAEXAAV?$_com_ptr_t@V?$_com_IIID@USequenceContext@TS@@$1?_GUID_6427d0e0_e410_11d0_93b4_0020af68e893@@3U__s_GUID@@B@@@@W4LoggingInfoTypes@1@_NAA_N2@Z$27 10025cc8 f   DBLogUtil.obj
 0001:00024cd0       __unwindfunclet$?Initialize@LoggingInfo@@QAEXAAV?$_com_ptr_t@V?$_com_IIID@USequenceContext@TS@@$1?_GUID_6427d0e0_e410_11d0_93b4_0020af68e893@@3U__s_GUID@@B@@@@W4LoggingInfoTypes@1@_NAA_N2@Z$28 10025cd0 f   DBLogUtil.obj
 0001:00024cd8       __unwindfunclet$?Initialize@LoggingInfo@@QAEXAAV?$_com_ptr_t@V?$_com_IIID@USequenceContext@TS@@$1?_GUID_6427d0e0_e410_11d0_93b4_0020af68e893@@3U__s_GUID@@B@@@@W4LoggingInfoTypes@1@_NAA_N2@Z$29 10025cd8 f   DBLogUtil.obj
 0001:00024ce0       __unwindfunclet$?Initialize@LoggingInfo@@QAEXAAV?$_com_ptr_t@V?$_com_IIID@USequenceContext@TS@@$1?_GUID_6427d0e0_e410_11d0_93b4_0020af68e893@@3U__s_GUID@@B@@@@W4LoggingInfoTypes@1@_NAA_N2@Z$30 10025ce0 f   DBLogUtil.obj
 0001:00024ce8       __unwindfunclet$?Initialize@LoggingInfo@@QAEXAAV?$_com_ptr_t@V?$_com_IIID@USequenceContext@TS@@$1?_GUID_6427d0e0_e410_11d0_93b4_0020af68e893@@3U__s_GUID@@B@@@@W4LoggingInfoTypes@1@_NAA_N2@Z$31 10025ce8 f   DBLogUtil.obj
 0001:00024cf0       __unwindfunclet$?Initialize@LoggingInfo@@QAEXAAV?$_com_ptr_t@V?$_com_IIID@USequenceContext@TS@@$1?_GUID_6427d0e0_e410_11d0_93b4_0020af68e893@@3U__s_GUID@@B@@@@W4LoggingInfoTypes@1@_NAA_N2@Z$32 10025cf0 f   DBLogUtil.obj
 0001:00024cf8       __unwindfunclet$?Initialize@LoggingInfo@@QAEXAAV?$_com_ptr_t@V?$_com_IIID@USequenceContext@TS@@$1?_GUID_6427d0e0_e410_11d0_93b4_0020af68e893@@3U__s_GUID@@B@@@@W4LoggingInfoTypes@1@_NAA_N2@Z$33 10025cf8 f   DBLogUtil.obj
 0001:00024d00       __unwindfunclet$?Initialize@LoggingInfo@@QAEXAAV?$_com_ptr_t@V?$_com_IIID@USequenceContext@TS@@$1?_GUID_6427d0e0_e410_11d0_93b4_0020af68e893@@3U__s_GUID@@B@@@@W4LoggingInfoTypes@1@_NAA_N2@Z$34 10025d00 f   DBLogUtil.obj
 0001:00024d08       __unwindfunclet$?Initialize@LoggingInfo@@QAEXAAV?$_com_ptr_t@V?$_com_IIID@USequenceContext@TS@@$1?_GUID_6427d0e0_e410_11d0_93b4_0020af68e893@@3U__s_GUID@@B@@@@W4LoggingInfoTypes@1@_NAA_N2@Z$35 10025d08 f   DBLogUtil.obj
 0001:00024d10       __unwindfunclet$?Initialize@LoggingInfo@@QAEXAAV?$_com_ptr_t@V?$_com_IIID@USequenceContext@TS@@$1?_GUID_6427d0e0_e410_11d0_93b4_0020af68e893@@3U__s_GUID@@B@@@@W4LoggingInfoTypes@1@_NAA_N2@Z$36 10025d10 f   DBLogUtil.obj
 0001:00024d18       __unwindfunclet$?Initialize@LoggingInfo@@QAEXAAV?$_com_ptr_t@V?$_com_IIID@USequenceContext@TS@@$1?_GUID_6427d0e0_e410_11d0_93b4_0020af68e893@@3U__s_GUID@@B@@@@W4LoggingInfoTypes@1@_NAA_N2@Z$9 10025d18 f   DBLogUtil.obj
 0001:00024d20       __unwindfunclet$?Initialize@LoggingInfo@@QAEXAAV?$_com_ptr_t@V?$_com_IIID@USequenceContext@TS@@$1?_GUID_6427d0e0_e410_11d0_93b4_0020af68e893@@3U__s_GUID@@B@@@@W4LoggingInfoTypes@1@_NAA_N2@Z$10 10025d20 f   DBLogUtil.obj
 0001:00024d28       __unwindfunclet$?Initialize@LoggingInfo@@QAEXAAV?$_com_ptr_t@V?$_com_IIID@USequenceContext@TS@@$1?_GUID_6427d0e0_e410_11d0_93b4_0020af68e893@@3U__s_GUID@@B@@@@W4LoggingInfoTypes@1@_NAA_N2@Z$11 10025d28 f   DBLogUtil.obj
 0001:00024d30       __unwindfunclet$?Initialize@LoggingInfo@@QAEXAAV?$_com_ptr_t@V?$_com_IIID@USequenceContext@TS@@$1?_GUID_6427d0e0_e410_11d0_93b4_0020af68e893@@3U__s_GUID@@B@@@@W4LoggingInfoTypes@1@_NAA_N2@Z$12 10025d30 f   DBLogUtil.obj
 0001:00024d38       __unwindfunclet$?Initialize@LoggingInfo@@QAEXAAV?$_com_ptr_t@V?$_com_IIID@USequenceContext@TS@@$1?_GUID_6427d0e0_e410_11d0_93b4_0020af68e893@@3U__s_GUID@@B@@@@W4LoggingInfoTypes@1@_NAA_N2@Z$13 10025d38 f   DBLogUtil.obj
 0001:00024d40       __unwindfunclet$?Initialize@LoggingInfo@@QAEXAAV?$_com_ptr_t@V?$_com_IIID@USequenceContext@TS@@$1?_GUID_6427d0e0_e410_11d0_93b4_0020af68e893@@3U__s_GUID@@B@@@@W4LoggingInfoTypes@1@_NAA_N2@Z$14 10025d40 f   DBLogUtil.obj
 0001:00024d48       __unwindfunclet$?Initialize@LoggingInfo@@QAEXAAV?$_com_ptr_t@V?$_com_IIID@USequenceContext@TS@@$1?_GUID_6427d0e0_e410_11d0_93b4_0020af68e893@@3U__s_GUID@@B@@@@W4LoggingInfoTypes@1@_NAA_N2@Z$15 10025d48 f   DBLogUtil.obj
 0001:00024d50       __unwindfunclet$?Initialize@LoggingInfo@@QAEXAAV?$_com_ptr_t@V?$_com_IIID@USequenceContext@TS@@$1?_GUID_6427d0e0_e410_11d0_93b4_0020af68e893@@3U__s_GUID@@B@@@@W4LoggingInfoTypes@1@_NAA_N2@Z$16 10025d50 f   DBLogUtil.obj
 0001:00024d58       __unwindfunclet$?Initialize@LoggingInfo@@QAEXAAV?$_com_ptr_t@V?$_com_IIID@USequenceContext@TS@@$1?_GUID_6427d0e0_e410_11d0_93b4_0020af68e893@@3U__s_GUID@@B@@@@W4LoggingInfoTypes@1@_NAA_N2@Z$1 10025d58 f   DBLogUtil.obj
 0001:00024d60       __unwindfunclet$?Initialize@LoggingInfo@@QAEXAAV?$_com_ptr_t@V?$_com_IIID@USequenceContext@TS@@$1?_GUID_6427d0e0_e410_11d0_93b4_0020af68e893@@3U__s_GUID@@B@@@@W4LoggingInfoTypes@1@_NAA_N2@Z$2 10025d60 f   DBLogUtil.obj
 0001:00024d68       __unwindfunclet$?Initialize@LoggingInfo@@QAEXAAV?$_com_ptr_t@V?$_com_IIID@USequenceContext@TS@@$1?_GUID_6427d0e0_e410_11d0_93b4_0020af68e893@@3U__s_GUID@@B@@@@W4LoggingInfoTypes@1@_NAA_N2@Z$3 10025d68 f   DBLogUtil.obj
 0001:00024d70       __unwindfunclet$?Initialize@LoggingInfo@@QAEXAAV?$_com_ptr_t@V?$_com_IIID@USequenceContext@TS@@$1?_GUID_6427d0e0_e410_11d0_93b4_0020af68e893@@3U__s_GUID@@B@@@@W4LoggingInfoTypes@1@_NAA_N2@Z$4 10025d70 f   DBLogUtil.obj
 0001:00024d78       __unwindfunclet$?Initialize@LoggingInfo@@QAEXAAV?$_com_ptr_t@V?$_com_IIID@USequenceContext@TS@@$1?_GUID_6427d0e0_e410_11d0_93b4_0020af68e893@@3U__s_GUID@@B@@@@W4LoggingInfoTypes@1@_NAA_N2@Z$5 10025d78 f   DBLogUtil.obj
 0001:00024d80       __unwindfunclet$?Initialize@LoggingInfo@@QAEXAAV?$_com_ptr_t@V?$_com_IIID@USequenceContext@TS@@$1?_GUID_6427d0e0_e410_11d0_93b4_0020af68e893@@3U__s_GUID@@B@@@@W4LoggingInfoTypes@1@_NAA_N2@Z$6 10025d80 f   DBLogUtil.obj
 0001:00024d88       __unwindfunclet$?Initialize@LoggingInfo@@QAEXAAV?$_com_ptr_t@V?$_com_IIID@USequenceContext@TS@@$1?_GUID_6427d0e0_e410_11d0_93b4_0020af68e893@@3U__s_GUID@@B@@@@W4LoggingInfoTypes@1@_NAA_N2@Z$7 10025d88 f   DBLogUtil.obj
 0001:00024d90       __unwindfunclet$?Initialize@LoggingInfo@@QAEXAAV?$_com_ptr_t@V?$_com_IIID@USequenceContext@TS@@$1?_GUID_6427d0e0_e410_11d0_93b4_0020af68e893@@3U__s_GUID@@B@@@@W4LoggingInfoTypes@1@_NAA_N2@Z$8 10025d90 f   DBLogUtil.obj
 0001:00024d98       __ehhandler$?Initialize@LoggingInfo@@QAEXAAV?$_com_ptr_t@V?$_com_IIID@USequenceContext@TS@@$1?_GUID_6427d0e0_e410_11d0_93b4_0020af68e893@@3U__s_GUID@@B@@@@W4LoggingInfoTypes@1@_NAA_N2@Z 10025d98 f   DBLogUtil.obj
 0001:00024db0       __unwindfunclet$??1LoggingInfo@@QAE@XZ$0 10025db0 f   DBLogUtil.obj
 0001:00024db8       __unwindfunclet$??1LoggingInfo@@QAE@XZ$1 10025db8 f   DBLogUtil.obj
 0001:00024dc3       __unwindfunclet$??1LoggingInfo@@QAE@XZ$2 10025dc3 f   DBLogUtil.obj
 0001:00024dce       __unwindfunclet$??1LoggingInfo@@QAE@XZ$3 10025dce f   DBLogUtil.obj
 0001:00024dd9       __unwindfunclet$??1LoggingInfo@@QAE@XZ$4 10025dd9 f   DBLogUtil.obj
 0001:00024de4       __unwindfunclet$??1LoggingInfo@@QAE@XZ$5 10025de4 f   DBLogUtil.obj
 0001:00024def       __unwindfunclet$??1LoggingInfo@@QAE@XZ$6 10025def f   DBLogUtil.obj
 0001:00024dfa       __unwindfunclet$??1LoggingInfo@@QAE@XZ$7 10025dfa f   DBLogUtil.obj
 0001:00024e05       __unwindfunclet$??1LoggingInfo@@QAE@XZ$8 10025e05 f   DBLogUtil.obj
 0001:00024e10       __unwindfunclet$??1LoggingInfo@@QAE@XZ$9 10025e10 f   DBLogUtil.obj
 0001:00024e1b       __unwindfunclet$??1LoggingInfo@@QAE@XZ$10 10025e1b f   DBLogUtil.obj
 0001:00024e26       __unwindfunclet$??1LoggingInfo@@QAE@XZ$11 10025e26 f   DBLogUtil.obj
 0001:00024e31       __unwindfunclet$??1LoggingInfo@@QAE@XZ$12 10025e31 f   DBLogUtil.obj
 0001:00024e3c       __unwindfunclet$??1LoggingInfo@@QAE@XZ$13 10025e3c f   DBLogUtil.obj
 0001:00024e47       __unwindfunclet$??1LoggingInfo@@QAE@XZ$14 10025e47 f   DBLogUtil.obj
 0001:00024e52       __unwindfunclet$??1LoggingInfo@@QAE@XZ$15 10025e52 f   DBLogUtil.obj
 0001:00024e5d       __unwindfunclet$??1LoggingInfo@@QAE@XZ$16 10025e5d f   DBLogUtil.obj
 0001:00024e68       __unwindfunclet$??1LoggingInfo@@QAE@XZ$17 10025e68 f   DBLogUtil.obj
 0001:00024e73       __unwindfunclet$??1LoggingInfo@@QAE@XZ$18 10025e73 f   DBLogUtil.obj
 0001:00024e7e       __unwindfunclet$??1LoggingInfo@@QAE@XZ$19 10025e7e f   DBLogUtil.obj
 0001:00024e89       __unwindfunclet$??1LoggingInfo@@QAE@XZ$20 10025e89 f   DBLogUtil.obj
 0001:00024e94       __unwindfunclet$??1LoggingInfo@@QAE@XZ$21 10025e94 f   DBLogUtil.obj
 0001:00024e9f       __unwindfunclet$??1LoggingInfo@@QAE@XZ$22 10025e9f f   DBLogUtil.obj
 0001:00024eaa       __unwindfunclet$??1LoggingInfo@@QAE@XZ$23 10025eaa f   DBLogUtil.obj
 0001:00024eb5       __unwindfunclet$??1LoggingInfo@@QAE@XZ$24 10025eb5 f   DBLogUtil.obj
 0001:00024ebd       __unwindfunclet$??1LoggingInfo@@QAE@XZ$25 10025ebd f   DBLogUtil.obj
 0001:00024ec5       __ehhandler$??1LoggingInfo@@QAE@XZ 10025ec5 f   DBLogUtil.obj
 0001:00024ed0       __unwindfunclet$?GetDBOptionResultFilter@LoggingInfo@@QAE_NXZ$2 10025ed0 f   DBLogUtil.obj
 0001:00024ed8       __unwindfunclet$?GetDBOptionResultFilter@LoggingInfo@@QAE_NXZ$3 10025ed8 f   DBLogUtil.obj
 0001:00024ee0       __unwindfunclet$?GetDBOptionResultFilter@LoggingInfo@@QAE_NXZ$4 10025ee0 f   DBLogUtil.obj
 0001:00024ee8       __unwindfunclet$?GetDBOptionResultFilter@LoggingInfo@@QAE_NXZ$5 10025ee8 f   DBLogUtil.obj
 0001:00024ef0       __unwindfunclet$?GetDBOptionResultFilter@LoggingInfo@@QAE_NXZ$6 10025ef0 f   DBLogUtil.obj
 0001:00024ef8       __unwindfunclet$?GetDBOptionResultFilter@LoggingInfo@@QAE_NXZ$7 10025ef8 f   DBLogUtil.obj
 0001:00024f00       __unwindfunclet$?GetDBOptionResultFilter@LoggingInfo@@QAE_NXZ$8 10025f00 f   DBLogUtil.obj
 0001:00024f08       __unwindfunclet$?GetDBOptionResultFilter@LoggingInfo@@QAE_NXZ$9 10025f08 f   DBLogUtil.obj
 0001:00024f10       __unwindfunclet$?GetDBOptionResultFilter@LoggingInfo@@QAE_NXZ$11 10025f10 f   DBLogUtil.obj
 0001:00024f18       __ehhandler$?GetDBOptionResultFilter@LoggingInfo@@QAE_NXZ 10025f18 f   DBLogUtil.obj
 0001:00024f30       __unwindfunclet$?GetDBOptionIncludeLimits@LoggingInfo@@QAE_NXZ$0 10025f30 f   DBLogUtil.obj
 0001:00024f30       __unwindfunclet$?GetDBOptionShowProgress@LoggingInfo@@QAE_NXZ$0 10025f30 f   DBLogUtil.obj
 0001:00024f30       __unwindfunclet$?GetDBOptionIncludeMeasurements@LoggingInfo@@QAE_NXZ$0 10025f30 f   DBLogUtil.obj
 0001:00024f30       __unwindfunclet$?GetDBOptionIncludeAdditionalResults@LoggingInfo@@QAE_NXZ$0 10025f30 f   DBLogUtil.obj
 0001:00024f38       __unwindfunclet$?GetDBOptionIncludeLimits@LoggingInfo@@QAE_NXZ$1 10025f38 f   DBLogUtil.obj
 0001:00024f38       __unwindfunclet$?GetDBOptionShowProgress@LoggingInfo@@QAE_NXZ$1 10025f38 f   DBLogUtil.obj
 0001:00024f38       __unwindfunclet$?GetDBOptionIncludeMeasurements@LoggingInfo@@QAE_NXZ$1 10025f38 f   DBLogUtil.obj
 0001:00024f38       __unwindfunclet$?GetDBOptionIncludeAdditionalResults@LoggingInfo@@QAE_NXZ$1 10025f38 f   DBLogUtil.obj
 0001:00024f40       __unwindfunclet$?GetDBOptionIncludeLimits@LoggingInfo@@QAE_NXZ$2 10025f40 f   DBLogUtil.obj
 0001:00024f40       __unwindfunclet$?GetDBOptionIncludeMeasurements@LoggingInfo@@QAE_NXZ$2 10025f40 f   DBLogUtil.obj
 0001:00024f40       __unwindfunclet$?GetDBOptionShowProgress@LoggingInfo@@QAE_NXZ$2 10025f40 f   DBLogUtil.obj
 0001:00024f40       __unwindfunclet$?GetDBOptionIncludeAdditionalResults@LoggingInfo@@QAE_NXZ$2 10025f40 f   DBLogUtil.obj
 0001:00024f48       __ehhandler$?GetDBOptionIncludeMeasurements@LoggingInfo@@QAE_NXZ 10025f48 f   DBLogUtil.obj
 0001:00024f48       __ehhandler$?GetDBOptionShowProgress@LoggingInfo@@QAE_NXZ 10025f48 f   DBLogUtil.obj
 0001:00024f48       __ehhandler$?GetDBOptionIncludeAdditionalResults@LoggingInfo@@QAE_NXZ 10025f48 f   DBLogUtil.obj
 0001:00024f48       __ehhandler$?GetDBOptionIncludeLimits@LoggingInfo@@QAE_NXZ 10025f48 f   DBLogUtil.obj
 0001:00024f60       __unwindfunclet$?SetUUT@LoggingInfo@@QAEXAAV?$_com_ptr_t@V?$_com_IIID@UPropertyObject@TS@@$1?_GUID_8d8769a0_09c0_11d1_93bd_0020af68e893@@3U__s_GUID@@B@@@@@Z$0 10025f60 f   DBLogUtil.obj
 0001:00024f60       __unwindfunclet$?SetDBOptions@LoggingInfo@@QAEXAAV?$_com_ptr_t@V?$_com_IIID@UPropertyObject@TS@@$1?_GUID_8d8769a0_09c0_11d1_93bd_0020af68e893@@3U__s_GUID@@B@@@@@Z$0 10025f60 f   DBLogUtil.obj
 0001:00024f60       __unwindfunclet$?SetStartTime@LoggingInfo@@QAEXAAV?$_com_ptr_t@V?$_com_IIID@UPropertyObject@TS@@$1?_GUID_8d8769a0_09c0_11d1_93bd_0020af68e893@@3U__s_GUID@@B@@@@@Z$0 10025f60 f   DBLogUtil.obj
 0001:00024f60       __unwindfunclet$?SetStartDate@LoggingInfo@@QAEXAAV?$_com_ptr_t@V?$_com_IIID@UPropertyObject@TS@@$1?_GUID_8d8769a0_09c0_11d1_93bd_0020af68e893@@3U__s_GUID@@B@@@@@Z$0 10025f60 f   DBLogUtil.obj
 0001:00024f60       __unwindfunclet$?SetStationInfo@LoggingInfo@@QAEXAAV?$_com_ptr_t@V?$_com_IIID@UPropertyObject@TS@@$1?_GUID_8d8769a0_09c0_11d1_93bd_0020af68e893@@3U__s_GUID@@B@@@@@Z$0 10025f60 f   DBLogUtil.obj
 0001:00024f60       __unwindfunclet$?SetUUTResult@LoggingInfo@@QAEXAAV?$_com_ptr_t@V?$_com_IIID@UPropertyObject@TS@@$1?_GUID_8d8769a0_09c0_11d1_93bd_0020af68e893@@3U__s_GUID@@B@@@@@Z$0 10025f60 f   DBLogUtil.obj
 0001:00024f68       __ehhandler$?SetStartTime@LoggingInfo@@QAEXAAV?$_com_ptr_t@V?$_com_IIID@UPropertyObject@TS@@$1?_GUID_8d8769a0_09c0_11d1_93bd_0020af68e893@@3U__s_GUID@@B@@@@@Z 10025f68 f   DBLogUtil.obj
 0001:00024f68       __ehhandler$?SetStartDate@LoggingInfo@@QAEXAAV?$_com_ptr_t@V?$_com_IIID@UPropertyObject@TS@@$1?_GUID_8d8769a0_09c0_11d1_93bd_0020af68e893@@3U__s_GUID@@B@@@@@Z 10025f68 f   DBLogUtil.obj
 0001:00024f68       __ehhandler$?SetStationInfo@LoggingInfo@@QAEXAAV?$_com_ptr_t@V?$_com_IIID@UPropertyObject@TS@@$1?_GUID_8d8769a0_09c0_11d1_93bd_0020af68e893@@3U__s_GUID@@B@@@@@Z 10025f68 f   DBLogUtil.obj
 0001:00024f68       __ehhandler$?SetUUTResult@LoggingInfo@@QAEXAAV?$_com_ptr_t@V?$_com_IIID@UPropertyObject@TS@@$1?_GUID_8d8769a0_09c0_11d1_93bd_0020af68e893@@3U__s_GUID@@B@@@@@Z 10025f68 f   DBLogUtil.obj
 0001:00024f68       __ehhandler$?SetUUT@LoggingInfo@@QAEXAAV?$_com_ptr_t@V?$_com_IIID@UPropertyObject@TS@@$1?_GUID_8d8769a0_09c0_11d1_93bd_0020af68e893@@3U__s_GUID@@B@@@@@Z 10025f68 f   DBLogUtil.obj
 0001:00024f68       __ehhandler$?SetDBOptions@LoggingInfo@@QAEXAAV?$_com_ptr_t@V?$_com_IIID@UPropertyObject@TS@@$1?_GUID_8d8769a0_09c0_11d1_93bd_0020af68e893@@3U__s_GUID@@B@@@@@Z 10025f68 f   DBLogUtil.obj
 0001:00024f80       __unwindfunclet$?GetExecutionOrder@LoggingInfo@@QAEHXZ$0 10025f80 f   DBLogUtil.obj
 0001:00024f88       __unwindfunclet$?GetExecutionOrder@LoggingInfo@@QAEHXZ$1 10025f88 f   DBLogUtil.obj
 0001:00024f90       __unwindfunclet$?GetExecutionOrder@LoggingInfo@@QAEHXZ$2 10025f90 f   DBLogUtil.obj
 0001:00024f98       __unwindfunclet$?GetExecutionOrder@LoggingInfo@@QAEHXZ$4 10025f98 f   DBLogUtil.obj
 0001:00024fa3       __unwindfunclet$?GetExecutionOrder@LoggingInfo@@QAEHXZ$3 10025fa3 f   DBLogUtil.obj
 0001:00024fab       __ehhandler$?GetExecutionOrder@LoggingInfo@@QAEHXZ 10025fab f   DBLogUtil.obj
 0001:00024fc0       __unwindfunclet$?SetPropCategory@LoggingInfo@@QAEXW4PropertyCategory@@@Z$0 10025fc0 f   DBLogUtil.obj
 0001:00024fc0       __unwindfunclet$?SetExecutionOrder@LoggingInfo@@QAEXH@Z$0 10025fc0 f   DBLogUtil.obj
 0001:00024fc0       __unwindfunclet$?SetPropertyOrder@LoggingInfo@@QAEXH@Z$0 10025fc0 f   DBLogUtil.obj
 0001:00024fc8       __unwindfunclet$?SetExecutionOrder@LoggingInfo@@QAEXH@Z$1 10025fc8 f   DBLogUtil.obj
 0001:00024fc8       __unwindfunclet$?SetPropertyOrder@LoggingInfo@@QAEXH@Z$1 10025fc8 f   DBLogUtil.obj
 0001:00024fc8       __unwindfunclet$?SetPropCategory@LoggingInfo@@QAEXW4PropertyCategory@@@Z$1 10025fc8 f   DBLogUtil.obj
 0001:00024fd0       __unwindfunclet$?SetPropCategory@LoggingInfo@@QAEXW4PropertyCategory@@@Z$2 10025fd0 f   DBLogUtil.obj
 0001:00024fd0       __unwindfunclet$?SetPropertyOrder@LoggingInfo@@QAEXH@Z$2 10025fd0 f   DBLogUtil.obj
 0001:00024fd0       __unwindfunclet$?SetExecutionOrder@LoggingInfo@@QAEXH@Z$2 10025fd0 f   DBLogUtil.obj
 0001:00024fd8       __unwindfunclet$?SetPropCategory@LoggingInfo@@QAEXW4PropertyCategory@@@Z$3 10025fd8 f   DBLogUtil.obj
 0001:00024fd8       __unwindfunclet$?SetPropertyOrder@LoggingInfo@@QAEXH@Z$3 10025fd8 f   DBLogUtil.obj
 0001:00024fd8       __unwindfunclet$?SetExecutionOrder@LoggingInfo@@QAEXH@Z$3 10025fd8 f   DBLogUtil.obj
 0001:00024fe0       __ehhandler$?SetPropertyOrder@LoggingInfo@@QAEXH@Z 10025fe0 f   DBLogUtil.obj
 0001:00024fe0       __ehhandler$?SetPropCategory@LoggingInfo@@QAEXW4PropertyCategory@@@Z 10025fe0 f   DBLogUtil.obj
 0001:00024fe0       __ehhandler$?SetExecutionOrder@LoggingInfo@@QAEXH@Z 10025fe0 f   DBLogUtil.obj
 0001:00024ff0       __unwindfunclet$?GetRootExecutionOrder@LoggingInfo@@QAEHXZ$0 10025ff0 f   DBLogUtil.obj
 0001:00024ff8       __unwindfunclet$?GetRootExecutionOrder@LoggingInfo@@QAEHXZ$1 10025ff8 f   DBLogUtil.obj
 0001:00025000       __unwindfunclet$?GetRootExecutionOrder@LoggingInfo@@QAEHXZ$2 10026000 f   DBLogUtil.obj
 0001:00025008       __unwindfunclet$?GetRootExecutionOrder@LoggingInfo@@QAEHXZ$3 10026008 f   DBLogUtil.obj
 0001:00025010       __unwindfunclet$?GetRootExecutionOrder@LoggingInfo@@QAEHXZ$4 10026010 f   DBLogUtil.obj
 0001:00025018       __unwindfunclet$?GetRootExecutionOrder@LoggingInfo@@QAEHXZ$6 10026018 f   DBLogUtil.obj
 0001:00025023       __unwindfunclet$?GetRootExecutionOrder@LoggingInfo@@QAEHXZ$5 10026023 f   DBLogUtil.obj
 0001:0002502b       __ehhandler$?GetRootExecutionOrder@LoggingInfo@@QAEHXZ 1002602b f   DBLogUtil.obj
 0001:00025040       __unwindfunclet$?SetRootExecutionOrder@LoggingInfo@@QAEXH@Z$0 10026040 f   DBLogUtil.obj
 0001:00025048       __unwindfunclet$?SetRootExecutionOrder@LoggingInfo@@QAEXH@Z$1 10026048 f   DBLogUtil.obj
 0001:00025050       __unwindfunclet$?SetRootExecutionOrder@LoggingInfo@@QAEXH@Z$2 10026050 f   DBLogUtil.obj
 0001:00025058       __unwindfunclet$?SetRootExecutionOrder@LoggingInfo@@QAEXH@Z$3 10026058 f   DBLogUtil.obj
 0001:00025060       __unwindfunclet$?SetRootExecutionOrder@LoggingInfo@@QAEXH@Z$4 10026060 f   DBLogUtil.obj
 0001:00025068       __unwindfunclet$?SetRootExecutionOrder@LoggingInfo@@QAEXH@Z$5 10026068 f   DBLogUtil.obj
 0001:00025070       __ehhandler$?SetRootExecutionOrder@LoggingInfo@@QAEXH@Z 10026070 f   DBLogUtil.obj
 0001:00025080       __unwindfunclet$?GetStepResult@LoggingInfo@@QAEAAV?$_com_ptr_t@V?$_com_IIID@UPropertyObject@TS@@$1?_GUID_8d8769a0_09c0_11d1_93bd_0020af68e893@@3U__s_GUID@@B@@@@XZ$0 10026080 f   DBLogUtil.obj
 0001:00025080       __unwindfunclet$?GetPropData@LoggingInfo@@QAEAAV?$_com_ptr_t@V?$_com_IIID@UPropertyObject@TS@@$1?_GUID_8d8769a0_09c0_11d1_93bd_0020af68e893@@3U__s_GUID@@B@@@@XZ$0 10026080 f   DBLogUtil.obj
 0001:00025088       __unwindfunclet$?GetPropData@LoggingInfo@@QAEAAV?$_com_ptr_t@V?$_com_IIID@UPropertyObject@TS@@$1?_GUID_8d8769a0_09c0_11d1_93bd_0020af68e893@@3U__s_GUID@@B@@@@XZ$1 10026088 f   DBLogUtil.obj
 0001:00025088       __unwindfunclet$?GetStepResult@LoggingInfo@@QAEAAV?$_com_ptr_t@V?$_com_IIID@UPropertyObject@TS@@$1?_GUID_8d8769a0_09c0_11d1_93bd_0020af68e893@@3U__s_GUID@@B@@@@XZ$1 10026088 f   DBLogUtil.obj
 0001:00025090       __ehhandler$?GetPropData@LoggingInfo@@QAEAAV?$_com_ptr_t@V?$_com_IIID@UPropertyObject@TS@@$1?_GUID_8d8769a0_09c0_11d1_93bd_0020af68e893@@3U__s_GUID@@B@@@@XZ 10026090 f   DBLogUtil.obj
 0001:00025090       __ehhandler$?GetStepResult@LoggingInfo@@QAEAAV?$_com_ptr_t@V?$_com_IIID@UPropertyObject@TS@@$1?_GUID_8d8769a0_09c0_11d1_93bd_0020af68e893@@3U__s_GUID@@B@@@@XZ 10026090 f   DBLogUtil.obj
 0001:000250a0       __unwindfunclet$?SetStepResult@LoggingInfo@@QAEXV?$_com_ptr_t@V?$_com_IIID@UPropertyObject@TS@@$1?_GUID_8d8769a0_09c0_11d1_93bd_0020af68e893@@3U__s_GUID@@B@@@@@Z$0 100260a0 f   DBLogUtil.obj
 0001:000250a8       __unwindfunclet$?SetStepResult@LoggingInfo@@QAEXV?$_com_ptr_t@V?$_com_IIID@UPropertyObject@TS@@$1?_GUID_8d8769a0_09c0_11d1_93bd_0020af68e893@@3U__s_GUID@@B@@@@@Z$1 100260a8 f   DBLogUtil.obj
 0001:000250b0       __unwindfunclet$?SetStepResult@LoggingInfo@@QAEXV?$_com_ptr_t@V?$_com_IIID@UPropertyObject@TS@@$1?_GUID_8d8769a0_09c0_11d1_93bd_0020af68e893@@3U__s_GUID@@B@@@@@Z$2 100260b0 f   DBLogUtil.obj
 0001:000250b8       __ehhandler$?SetStepResult@LoggingInfo@@QAEXV?$_com_ptr_t@V?$_com_IIID@UPropertyObject@TS@@$1?_GUID_8d8769a0_09c0_11d1_93bd_0020af68e893@@3U__s_GUID@@B@@@@@Z 100260b8 f   DBLogUtil.obj
 0001:000250d0       __unwindfunclet$?GetPropPath@LoggingInfo@@QAE?AV_bstr_t@@XZ$0 100260d0 f   DBLogUtil.obj
 0001:000250d8       __unwindfunclet$?GetPropPath@LoggingInfo@@QAE?AV_bstr_t@@XZ$1 100260d8 f   DBLogUtil.obj
 0001:000250e0       __unwindfunclet$?GetPropPath@LoggingInfo@@QAE?AV_bstr_t@@XZ$2 100260e0 f   DBLogUtil.obj
 0001:000250e8       __unwindfunclet$?GetPropPath@LoggingInfo@@QAE?AV_bstr_t@@XZ$3 100260e8 f   DBLogUtil.obj
 0001:000250f0       __unwindfunclet$?GetPropPath@LoggingInfo@@QAE?AV_bstr_t@@XZ$4 100260f0 f   DBLogUtil.obj
 0001:000250f8       __unwindfunclet$?GetPropPath@LoggingInfo@@QAE?AV_bstr_t@@XZ$5 100260f8 f   DBLogUtil.obj
 0001:00025100       __unwindfunclet$?GetPropPath@LoggingInfo@@QAE?AV_bstr_t@@XZ$6 10026100 f   DBLogUtil.obj
 0001:00025108       __unwindfunclet$?GetPropPath@LoggingInfo@@QAE?AV_bstr_t@@XZ$7 10026108 f   DBLogUtil.obj
 0001:00025110       __unwindfunclet$?GetPropPath@LoggingInfo@@QAE?AV_bstr_t@@XZ$8 10026110 f   DBLogUtil.obj
 0001:00025118       __unwindfunclet$?GetPropPath@LoggingInfo@@QAE?AV_bstr_t@@XZ$9 10026118 f   DBLogUtil.obj
 0001:00025131       __ehhandler$?GetPropPath@LoggingInfo@@QAE?AV_bstr_t@@XZ 10026131 f   DBLogUtil.obj
 0001:00025140       __unwindfunclet$?SetPropPath@LoggingInfo@@QAEXV_bstr_t@@@Z$0 10026140 f   DBLogUtil.obj
 0001:00025148       __unwindfunclet$?SetPropPath@LoggingInfo@@QAEXV_bstr_t@@@Z$1 10026148 f   DBLogUtil.obj
 0001:00025150       __unwindfunclet$?SetPropPath@LoggingInfo@@QAEXV_bstr_t@@@Z$2 10026150 f   DBLogUtil.obj
 0001:00025158       __unwindfunclet$?SetPropPath@LoggingInfo@@QAEXV_bstr_t@@@Z$3 10026158 f   DBLogUtil.obj
 0001:00025160       __unwindfunclet$?SetPropPath@LoggingInfo@@QAEXV_bstr_t@@@Z$4 10026160 f   DBLogUtil.obj
 0001:00025168       __unwindfunclet$?SetPropPath@LoggingInfo@@QAEXV_bstr_t@@@Z$5 10026168 f   DBLogUtil.obj
 0001:00025170       __unwindfunclet$?SetPropPath@LoggingInfo@@QAEXV_bstr_t@@@Z$6 10026170 f   DBLogUtil.obj
 0001:00025178       __ehhandler$?SetPropPath@LoggingInfo@@QAEXV_bstr_t@@@Z 10026178 f   DBLogUtil.obj
 0001:00025190       __unwindfunclet$?GetTSDBLogResString@@YA?AV_bstr_t@@V?$_com_ptr_t@V?$_com_IIID@UIEngine@TS@@$1?_GUID_b2794ef5_c0b6_11d0_939c_0020af68e893@@3U__s_GUID@@B@@@@PBD@Z$0 10026190 f   DBLogUtil.obj
 0001:00025198       __unwindfunclet$?GetTSDBLogResString@@YA?AV_bstr_t@@V?$_com_ptr_t@V?$_com_IIID@UIEngine@TS@@$1?_GUID_b2794ef5_c0b6_11d0_939c_0020af68e893@@3U__s_GUID@@B@@@@PBD@Z$1 10026198 f   DBLogUtil.obj
 0001:000251a0       __unwindfunclet$?GetTSDBLogResString@@YA?AV_bstr_t@@V?$_com_ptr_t@V?$_com_IIID@UIEngine@TS@@$1?_GUID_b2794ef5_c0b6_11d0_939c_0020af68e893@@3U__s_GUID@@B@@@@PBD@Z$5 100261a0 f   DBLogUtil.obj
 0001:000251ab       __unwindfunclet$?GetTSDBLogResString@@YA?AV_bstr_t@@V?$_com_ptr_t@V?$_com_IIID@UIEngine@TS@@$1?_GUID_b2794ef5_c0b6_11d0_939c_0020af68e893@@3U__s_GUID@@B@@@@PBD@Z$2 100261ab f   DBLogUtil.obj
 0001:000251b3       __unwindfunclet$?GetTSDBLogResString@@YA?AV_bstr_t@@V?$_com_ptr_t@V?$_com_IIID@UIEngine@TS@@$1?_GUID_b2794ef5_c0b6_11d0_939c_0020af68e893@@3U__s_GUID@@B@@@@PBD@Z$6 100261b3 f   DBLogUtil.obj
 0001:000251be       __unwindfunclet$?GetTSDBLogResString@@YA?AV_bstr_t@@V?$_com_ptr_t@V?$_com_IIID@UIEngine@TS@@$1?_GUID_b2794ef5_c0b6_11d0_939c_0020af68e893@@3U__s_GUID@@B@@@@PBD@Z$3 100261be f   DBLogUtil.obj
 0001:000251c6       __unwindfunclet$?GetTSDBLogResString@@YA?AV_bstr_t@@V?$_com_ptr_t@V?$_com_IIID@UIEngine@TS@@$1?_GUID_b2794ef5_c0b6_11d0_939c_0020af68e893@@3U__s_GUID@@B@@@@PBD@Z$4 100261c6 f   DBLogUtil.obj
 0001:000251df       __ehhandler$?GetTSDBLogResString@@YA?AV_bstr_t@@V?$_com_ptr_t@V?$_com_IIID@UIEngine@TS@@$1?_GUID_b2794ef5_c0b6_11d0_939c_0020af68e893@@3U__s_GUID@@B@@@@PBD@Z 100261df f   DBLogUtil.obj
 0001:000251f0       __unwindfunclet$?PrefixTSDBLogErrorString@@YA?AV_bstr_t@@V?$_com_ptr_t@V?$_com_IIID@UIEngine@TS@@$1?_GUID_b2794ef5_c0b6_11d0_939c_0020af68e893@@3U__s_GUID@@B@@@@V1@H@Z$0 100261f0 f   DBLogUtil.obj
 0001:000251f8       __unwindfunclet$?PrefixTSDBLogErrorString@@YA?AV_bstr_t@@V?$_com_ptr_t@V?$_com_IIID@UIEngine@TS@@$1?_GUID_b2794ef5_c0b6_11d0_939c_0020af68e893@@3U__s_GUID@@B@@@@V1@H@Z$1 100261f8 f   DBLogUtil.obj
 0001:00025200       __unwindfunclet$?PrefixTSDBLogErrorString@@YA?AV_bstr_t@@V?$_com_ptr_t@V?$_com_IIID@UIEngine@TS@@$1?_GUID_b2794ef5_c0b6_11d0_939c_0020af68e893@@3U__s_GUID@@B@@@@V1@H@Z$2 10026200 f   DBLogUtil.obj
 0001:00025219       __unwindfunclet$?PrefixTSDBLogErrorString@@YA?AV_bstr_t@@V?$_com_ptr_t@V?$_com_IIID@UIEngine@TS@@$1?_GUID_b2794ef5_c0b6_11d0_939c_0020af68e893@@3U__s_GUID@@B@@@@V1@H@Z$3 10026219 f   DBLogUtil.obj
 0001:00025221       __unwindfunclet$?PrefixTSDBLogErrorString@@YA?AV_bstr_t@@V?$_com_ptr_t@V?$_com_IIID@UIEngine@TS@@$1?_GUID_b2794ef5_c0b6_11d0_939c_0020af68e893@@3U__s_GUID@@B@@@@V1@H@Z$4 10026221 f   DBLogUtil.obj
 0001:00025229       __unwindfunclet$?PrefixTSDBLogErrorString@@YA?AV_bstr_t@@V?$_com_ptr_t@V?$_com_IIID@UIEngine@TS@@$1?_GUID_b2794ef5_c0b6_11d0_939c_0020af68e893@@3U__s_GUID@@B@@@@V1@H@Z$5 10026229 f   DBLogUtil.obj
 0001:00025231       __unwindfunclet$?PrefixTSDBLogErrorString@@YA?AV_bstr_t@@V?$_com_ptr_t@V?$_com_IIID@UIEngine@TS@@$1?_GUID_b2794ef5_c0b6_11d0_939c_0020af68e893@@3U__s_GUID@@B@@@@V1@H@Z$6 10026231 f   DBLogUtil.obj
 0001:00025239       __ehhandler$?PrefixTSDBLogErrorString@@YA?AV_bstr_t@@V?$_com_ptr_t@V?$_com_IIID@UIEngine@TS@@$1?_GUID_b2794ef5_c0b6_11d0_939c_0020af68e893@@3U__s_GUID@@B@@@@V1@H@Z 10026239 f   DBLogUtil.obj
 0001:00025250       __unwindfunclet$?SetErrorInfoForException@@YAJABU_GUID@@JPBD1@Z$2 10026250 f   DBLogUtil.obj
 0001:0002525b       __unwindfunclet$?SetErrorInfoForException@@YAJABU_GUID@@JPBD1@Z$0 1002625b f   DBLogUtil.obj
 0001:00025263       __unwindfunclet$?SetErrorInfoForException@@YAJABU_GUID@@JPBD1@Z$3 10026263 f   DBLogUtil.obj
 0001:0002526e       __unwindfunclet$?SetErrorInfoForException@@YAJABU_GUID@@JPBD1@Z$1 1002626e f   DBLogUtil.obj
 0001:00025276       __ehhandler$?SetErrorInfoForException@@YAJABU_GUID@@JPBD1@Z 10026276 f   DBLogUtil.obj
 0001:00025280       __unwindfunclet$?GetTextForAdoErrors@@YA?AV_bstr_t@@V?$_com_ptr_t@V?$_com_IIID@U_Connection@@$1?_GUID_00001550_0000_0010_8000_00aa006d2ea4@@3U__s_GUID@@B@@@@V1@@Z$0 10026280 f   DBLogUtil.obj
 0001:00025288       __unwindfunclet$?GetTextForAdoErrors@@YA?AV_bstr_t@@V?$_com_ptr_t@V?$_com_IIID@U_Connection@@$1?_GUID_00001550_0000_0010_8000_00aa006d2ea4@@3U__s_GUID@@B@@@@V1@@Z$1 10026288 f   DBLogUtil.obj
 0001:00025290       __unwindfunclet$?GetTextForAdoErrors@@YA?AV_bstr_t@@V?$_com_ptr_t@V?$_com_IIID@U_Connection@@$1?_GUID_00001550_0000_0010_8000_00aa006d2ea4@@3U__s_GUID@@B@@@@V1@@Z$2 10026290 f   DBLogUtil.obj
 0001:000252af       __unwindfunclet$?GetTextForAdoErrors@@YA?AV_bstr_t@@V?$_com_ptr_t@V?$_com_IIID@U_Connection@@$1?_GUID_00001550_0000_0010_8000_00aa006d2ea4@@3U__s_GUID@@B@@@@V1@@Z$3 100262af f   DBLogUtil.obj
 0001:000252ba       __unwindfunclet$?GetTextForAdoErrors@@YA?AV_bstr_t@@V?$_com_ptr_t@V?$_com_IIID@U_Connection@@$1?_GUID_00001550_0000_0010_8000_00aa006d2ea4@@3U__s_GUID@@B@@@@V1@@Z$4 100262ba f   DBLogUtil.obj
 0001:000252c5       __unwindfunclet$?GetTextForAdoErrors@@YA?AV_bstr_t@@V?$_com_ptr_t@V?$_com_IIID@U_Connection@@$1?_GUID_00001550_0000_0010_8000_00aa006d2ea4@@3U__s_GUID@@B@@@@V1@@Z$5 100262c5 f   DBLogUtil.obj
 0001:000252d0       __unwindfunclet$?GetTextForAdoErrors@@YA?AV_bstr_t@@V?$_com_ptr_t@V?$_com_IIID@U_Connection@@$1?_GUID_00001550_0000_0010_8000_00aa006d2ea4@@3U__s_GUID@@B@@@@V1@@Z$6 100262d0 f   DBLogUtil.obj
 0001:000252db       __unwindfunclet$?GetTextForAdoErrors@@YA?AV_bstr_t@@V?$_com_ptr_t@V?$_com_IIID@U_Connection@@$1?_GUID_00001550_0000_0010_8000_00aa006d2ea4@@3U__s_GUID@@B@@@@V1@@Z$7 100262db f   DBLogUtil.obj
 0001:000252e6       __unwindfunclet$?GetTextForAdoErrors@@YA?AV_bstr_t@@V?$_com_ptr_t@V?$_com_IIID@U_Connection@@$1?_GUID_00001550_0000_0010_8000_00aa006d2ea4@@3U__s_GUID@@B@@@@V1@@Z$8 100262e6 f   DBLogUtil.obj
 0001:000252f1       __unwindfunclet$?GetTextForAdoErrors@@YA?AV_bstr_t@@V?$_com_ptr_t@V?$_com_IIID@U_Connection@@$1?_GUID_00001550_0000_0010_8000_00aa006d2ea4@@3U__s_GUID@@B@@@@V1@@Z$9 100262f1 f   DBLogUtil.obj
 0001:000252fc       __unwindfunclet$?GetTextForAdoErrors@@YA?AV_bstr_t@@V?$_com_ptr_t@V?$_com_IIID@U_Connection@@$1?_GUID_00001550_0000_0010_8000_00aa006d2ea4@@3U__s_GUID@@B@@@@V1@@Z$10 100262fc f   DBLogUtil.obj
 0001:00025307       __unwindfunclet$?GetTextForAdoErrors@@YA?AV_bstr_t@@V?$_com_ptr_t@V?$_com_IIID@U_Connection@@$1?_GUID_00001550_0000_0010_8000_00aa006d2ea4@@3U__s_GUID@@B@@@@V1@@Z$11 10026307 f   DBLogUtil.obj
 0001:00025312       __unwindfunclet$?GetTextForAdoErrors@@YA?AV_bstr_t@@V?$_com_ptr_t@V?$_com_IIID@U_Connection@@$1?_GUID_00001550_0000_0010_8000_00aa006d2ea4@@3U__s_GUID@@B@@@@V1@@Z$12 10026312 f   DBLogUtil.obj
 0001:0002531d       __unwindfunclet$?GetTextForAdoErrors@@YA?AV_bstr_t@@V?$_com_ptr_t@V?$_com_IIID@U_Connection@@$1?_GUID_00001550_0000_0010_8000_00aa006d2ea4@@3U__s_GUID@@B@@@@V1@@Z$13 1002631d f   DBLogUtil.obj
 0001:00025328       __unwindfunclet$?GetTextForAdoErrors@@YA?AV_bstr_t@@V?$_com_ptr_t@V?$_com_IIID@U_Connection@@$1?_GUID_00001550_0000_0010_8000_00aa006d2ea4@@3U__s_GUID@@B@@@@V1@@Z$14 10026328 f   DBLogUtil.obj
 0001:00025333       __unwindfunclet$?GetTextForAdoErrors@@YA?AV_bstr_t@@V?$_com_ptr_t@V?$_com_IIID@U_Connection@@$1?_GUID_00001550_0000_0010_8000_00aa006d2ea4@@3U__s_GUID@@B@@@@V1@@Z$15 10026333 f   DBLogUtil.obj
 0001:0002533e       __unwindfunclet$?GetTextForAdoErrors@@YA?AV_bstr_t@@V?$_com_ptr_t@V?$_com_IIID@U_Connection@@$1?_GUID_00001550_0000_0010_8000_00aa006d2ea4@@3U__s_GUID@@B@@@@V1@@Z$16 1002633e f   DBLogUtil.obj
 0001:00025349       __unwindfunclet$?GetTextForAdoErrors@@YA?AV_bstr_t@@V?$_com_ptr_t@V?$_com_IIID@U_Connection@@$1?_GUID_00001550_0000_0010_8000_00aa006d2ea4@@3U__s_GUID@@B@@@@V1@@Z$17 10026349 f   DBLogUtil.obj
 0001:00025354       __unwindfunclet$?GetTextForAdoErrors@@YA?AV_bstr_t@@V?$_com_ptr_t@V?$_com_IIID@U_Connection@@$1?_GUID_00001550_0000_0010_8000_00aa006d2ea4@@3U__s_GUID@@B@@@@V1@@Z$18 10026354 f   DBLogUtil.obj
 0001:0002535f       __unwindfunclet$?GetTextForAdoErrors@@YA?AV_bstr_t@@V?$_com_ptr_t@V?$_com_IIID@U_Connection@@$1?_GUID_00001550_0000_0010_8000_00aa006d2ea4@@3U__s_GUID@@B@@@@V1@@Z$19 1002635f f   DBLogUtil.obj
 0001:0002536a       __unwindfunclet$?GetTextForAdoErrors@@YA?AV_bstr_t@@V?$_com_ptr_t@V?$_com_IIID@U_Connection@@$1?_GUID_00001550_0000_0010_8000_00aa006d2ea4@@3U__s_GUID@@B@@@@V1@@Z$20 1002636a f   DBLogUtil.obj
 0001:00025375       __unwindfunclet$?GetTextForAdoErrors@@YA?AV_bstr_t@@V?$_com_ptr_t@V?$_com_IIID@U_Connection@@$1?_GUID_00001550_0000_0010_8000_00aa006d2ea4@@3U__s_GUID@@B@@@@V1@@Z$21 10026375 f   DBLogUtil.obj
 0001:00025380       __unwindfunclet$?GetTextForAdoErrors@@YA?AV_bstr_t@@V?$_com_ptr_t@V?$_com_IIID@U_Connection@@$1?_GUID_00001550_0000_0010_8000_00aa006d2ea4@@3U__s_GUID@@B@@@@V1@@Z$22 10026380 f   DBLogUtil.obj
 0001:0002538b       __unwindfunclet$?GetTextForAdoErrors@@YA?AV_bstr_t@@V?$_com_ptr_t@V?$_com_IIID@U_Connection@@$1?_GUID_00001550_0000_0010_8000_00aa006d2ea4@@3U__s_GUID@@B@@@@V1@@Z$31 1002638b f   DBLogUtil.obj
 0001:00025399       __unwindfunclet$?GetTextForAdoErrors@@YA?AV_bstr_t@@V?$_com_ptr_t@V?$_com_IIID@U_Connection@@$1?_GUID_00001550_0000_0010_8000_00aa006d2ea4@@3U__s_GUID@@B@@@@V1@@Z$23 10026399 f   DBLogUtil.obj
 0001:000253a4       __unwindfunclet$?GetTextForAdoErrors@@YA?AV_bstr_t@@V?$_com_ptr_t@V?$_com_IIID@U_Connection@@$1?_GUID_00001550_0000_0010_8000_00aa006d2ea4@@3U__s_GUID@@B@@@@V1@@Z$32 100263a4 f   DBLogUtil.obj
 0001:000253b2       __unwindfunclet$?GetTextForAdoErrors@@YA?AV_bstr_t@@V?$_com_ptr_t@V?$_com_IIID@U_Connection@@$1?_GUID_00001550_0000_0010_8000_00aa006d2ea4@@3U__s_GUID@@B@@@@V1@@Z$24 100263b2 f   DBLogUtil.obj
 0001:000253bd       __unwindfunclet$?GetTextForAdoErrors@@YA?AV_bstr_t@@V?$_com_ptr_t@V?$_com_IIID@U_Connection@@$1?_GUID_00001550_0000_0010_8000_00aa006d2ea4@@3U__s_GUID@@B@@@@V1@@Z$33 100263bd f   DBLogUtil.obj
 0001:000253cb       __unwindfunclet$?GetTextForAdoErrors@@YA?AV_bstr_t@@V?$_com_ptr_t@V?$_com_IIID@U_Connection@@$1?_GUID_00001550_0000_0010_8000_00aa006d2ea4@@3U__s_GUID@@B@@@@V1@@Z$25 100263cb f   DBLogUtil.obj
 0001:000253d6       __unwindfunclet$?GetTextForAdoErrors@@YA?AV_bstr_t@@V?$_com_ptr_t@V?$_com_IIID@U_Connection@@$1?_GUID_00001550_0000_0010_8000_00aa006d2ea4@@3U__s_GUID@@B@@@@V1@@Z$34 100263d6 f   DBLogUtil.obj
 0001:000253e4       __unwindfunclet$?GetTextForAdoErrors@@YA?AV_bstr_t@@V?$_com_ptr_t@V?$_com_IIID@U_Connection@@$1?_GUID_00001550_0000_0010_8000_00aa006d2ea4@@3U__s_GUID@@B@@@@V1@@Z$26 100263e4 f   DBLogUtil.obj
 0001:000253ef       __unwindfunclet$?GetTextForAdoErrors@@YA?AV_bstr_t@@V?$_com_ptr_t@V?$_com_IIID@U_Connection@@$1?_GUID_00001550_0000_0010_8000_00aa006d2ea4@@3U__s_GUID@@B@@@@V1@@Z$35 100263ef f   DBLogUtil.obj
 0001:000253fd       __unwindfunclet$?GetTextForAdoErrors@@YA?AV_bstr_t@@V?$_com_ptr_t@V?$_com_IIID@U_Connection@@$1?_GUID_00001550_0000_0010_8000_00aa006d2ea4@@3U__s_GUID@@B@@@@V1@@Z$27 100263fd f   DBLogUtil.obj
 0001:00025408       __unwindfunclet$?GetTextForAdoErrors@@YA?AV_bstr_t@@V?$_com_ptr_t@V?$_com_IIID@U_Connection@@$1?_GUID_00001550_0000_0010_8000_00aa006d2ea4@@3U__s_GUID@@B@@@@V1@@Z$36 10026408 f   DBLogUtil.obj
 0001:00025416       __unwindfunclet$?GetTextForAdoErrors@@YA?AV_bstr_t@@V?$_com_ptr_t@V?$_com_IIID@U_Connection@@$1?_GUID_00001550_0000_0010_8000_00aa006d2ea4@@3U__s_GUID@@B@@@@V1@@Z$28 10026416 f   DBLogUtil.obj
 0001:00025421       __unwindfunclet$?GetTextForAdoErrors@@YA?AV_bstr_t@@V?$_com_ptr_t@V?$_com_IIID@U_Connection@@$1?_GUID_00001550_0000_0010_8000_00aa006d2ea4@@3U__s_GUID@@B@@@@V1@@Z$37 10026421 f   DBLogUtil.obj
 0001:0002542f       __unwindfunclet$?GetTextForAdoErrors@@YA?AV_bstr_t@@V?$_com_ptr_t@V?$_com_IIID@U_Connection@@$1?_GUID_00001550_0000_0010_8000_00aa006d2ea4@@3U__s_GUID@@B@@@@V1@@Z$29 1002642f f   DBLogUtil.obj
 0001:0002543a       __unwindfunclet$?GetTextForAdoErrors@@YA?AV_bstr_t@@V?$_com_ptr_t@V?$_com_IIID@U_Connection@@$1?_GUID_00001550_0000_0010_8000_00aa006d2ea4@@3U__s_GUID@@B@@@@V1@@Z$38 1002643a f   DBLogUtil.obj
 0001:00025448       __unwindfunclet$?GetTextForAdoErrors@@YA?AV_bstr_t@@V?$_com_ptr_t@V?$_com_IIID@U_Connection@@$1?_GUID_00001550_0000_0010_8000_00aa006d2ea4@@3U__s_GUID@@B@@@@V1@@Z$30 10026448 f   DBLogUtil.obj
 0001:00025453       __ehhandler$?GetTextForAdoErrors@@YA?AV_bstr_t@@V?$_com_ptr_t@V?$_com_IIID@U_Connection@@$1?_GUID_00001550_0000_0010_8000_00aa006d2ea4@@3U__s_GUID@@B@@@@V1@@Z 10026453 f   DBLogUtil.obj
 0001:00025460       __unwindfunclet$??0LoggingInfo@@QAE@AAV?$_com_ptr_t@V?$_com_IIID@USequenceContext@TS@@$1?_GUID_6427d0e0_e410_11d0_93b4_0020af68e893@@3U__s_GUID@@B@@@@_N@Z$0 10026460 f   DBLogUtil.obj
 0001:00025460       __unwindfunclet$??0LoggingInfo@@QAE@AAV?$_com_ptr_t@V?$_com_IIID@USequenceContext@TS@@$1?_GUID_6427d0e0_e410_11d0_93b4_0020af68e893@@3U__s_GUID@@B@@@@W4LoggingInfoTypes@0@_NAA_N2@Z$0 10026460 f   DBLogUtil.obj
 0001:00025468       __unwindfunclet$??0LoggingInfo@@QAE@AAV?$_com_ptr_t@V?$_com_IIID@USequenceContext@TS@@$1?_GUID_6427d0e0_e410_11d0_93b4_0020af68e893@@3U__s_GUID@@B@@@@W4LoggingInfoTypes@0@_NAA_N2@Z$1 10026468 f   DBLogUtil.obj
 0001:00025468       __unwindfunclet$??0LoggingInfo@@QAE@AAV?$_com_ptr_t@V?$_com_IIID@USequenceContext@TS@@$1?_GUID_6427d0e0_e410_11d0_93b4_0020af68e893@@3U__s_GUID@@B@@@@_N@Z$1 10026468 f   DBLogUtil.obj
 0001:00025473       __unwindfunclet$??0LoggingInfo@@QAE@AAV?$_com_ptr_t@V?$_com_IIID@USequenceContext@TS@@$1?_GUID_6427d0e0_e410_11d0_93b4_0020af68e893@@3U__s_GUID@@B@@@@W4LoggingInfoTypes@0@_NAA_N2@Z$2 10026473 f   DBLogUtil.obj
 0001:00025473       __unwindfunclet$??0LoggingInfo@@QAE@AAV?$_com_ptr_t@V?$_com_IIID@USequenceContext@TS@@$1?_GUID_6427d0e0_e410_11d0_93b4_0020af68e893@@3U__s_GUID@@B@@@@_N@Z$2 10026473 f   DBLogUtil.obj
 0001:0002547e       __unwindfunclet$??0LoggingInfo@@QAE@AAV?$_com_ptr_t@V?$_com_IIID@USequenceContext@TS@@$1?_GUID_6427d0e0_e410_11d0_93b4_0020af68e893@@3U__s_GUID@@B@@@@_N@Z$3 1002647e f   DBLogUtil.obj
 0001:0002547e       __unwindfunclet$??0LoggingInfo@@QAE@AAV?$_com_ptr_t@V?$_com_IIID@USequenceContext@TS@@$1?_GUID_6427d0e0_e410_11d0_93b4_0020af68e893@@3U__s_GUID@@B@@@@W4LoggingInfoTypes@0@_NAA_N2@Z$3 1002647e f   DBLogUtil.obj
 0001:00025489       __unwindfunclet$??0LoggingInfo@@QAE@AAV?$_com_ptr_t@V?$_com_IIID@USequenceContext@TS@@$1?_GUID_6427d0e0_e410_11d0_93b4_0020af68e893@@3U__s_GUID@@B@@@@_N@Z$4 10026489 f   DBLogUtil.obj
 0001:00025489       __unwindfunclet$??0LoggingInfo@@QAE@AAV?$_com_ptr_t@V?$_com_IIID@USequenceContext@TS@@$1?_GUID_6427d0e0_e410_11d0_93b4_0020af68e893@@3U__s_GUID@@B@@@@W4LoggingInfoTypes@0@_NAA_N2@Z$4 10026489 f   DBLogUtil.obj
 0001:00025494       __unwindfunclet$??0LoggingInfo@@QAE@AAV?$_com_ptr_t@V?$_com_IIID@USequenceContext@TS@@$1?_GUID_6427d0e0_e410_11d0_93b4_0020af68e893@@3U__s_GUID@@B@@@@_N@Z$5 10026494 f   DBLogUtil.obj
 0001:00025494       __unwindfunclet$??0LoggingInfo@@QAE@AAV?$_com_ptr_t@V?$_com_IIID@USequenceContext@TS@@$1?_GUID_6427d0e0_e410_11d0_93b4_0020af68e893@@3U__s_GUID@@B@@@@W4LoggingInfoTypes@0@_NAA_N2@Z$5 10026494 f   DBLogUtil.obj
 0001:0002549f       __unwindfunclet$??0LoggingInfo@@QAE@AAV?$_com_ptr_t@V?$_com_IIID@USequenceContext@TS@@$1?_GUID_6427d0e0_e410_11d0_93b4_0020af68e893@@3U__s_GUID@@B@@@@_N@Z$6 1002649f f   DBLogUtil.obj
 0001:0002549f       __unwindfunclet$??0LoggingInfo@@QAE@AAV?$_com_ptr_t@V?$_com_IIID@USequenceContext@TS@@$1?_GUID_6427d0e0_e410_11d0_93b4_0020af68e893@@3U__s_GUID@@B@@@@W4LoggingInfoTypes@0@_NAA_N2@Z$6 1002649f f   DBLogUtil.obj
 0001:000254aa       __unwindfunclet$??0LoggingInfo@@QAE@AAV?$_com_ptr_t@V?$_com_IIID@USequenceContext@TS@@$1?_GUID_6427d0e0_e410_11d0_93b4_0020af68e893@@3U__s_GUID@@B@@@@W4LoggingInfoTypes@0@_NAA_N2@Z$7 100264aa f   DBLogUtil.obj
 0001:000254aa       __unwindfunclet$??0LoggingInfo@@QAE@AAV?$_com_ptr_t@V?$_com_IIID@USequenceContext@TS@@$1?_GUID_6427d0e0_e410_11d0_93b4_0020af68e893@@3U__s_GUID@@B@@@@_N@Z$7 100264aa f   DBLogUtil.obj
 0001:000254b5       __unwindfunclet$??0LoggingInfo@@QAE@AAV?$_com_ptr_t@V?$_com_IIID@USequenceContext@TS@@$1?_GUID_6427d0e0_e410_11d0_93b4_0020af68e893@@3U__s_GUID@@B@@@@W4LoggingInfoTypes@0@_NAA_N2@Z$8 100264b5 f   DBLogUtil.obj
 0001:000254b5       __unwindfunclet$??0LoggingInfo@@QAE@AAV?$_com_ptr_t@V?$_com_IIID@USequenceContext@TS@@$1?_GUID_6427d0e0_e410_11d0_93b4_0020af68e893@@3U__s_GUID@@B@@@@_N@Z$8 100264b5 f   DBLogUtil.obj
 0001:000254c0       __unwindfunclet$??0LoggingInfo@@QAE@AAV?$_com_ptr_t@V?$_com_IIID@USequenceContext@TS@@$1?_GUID_6427d0e0_e410_11d0_93b4_0020af68e893@@3U__s_GUID@@B@@@@W4LoggingInfoTypes@0@_NAA_N2@Z$9 100264c0 f   DBLogUtil.obj
 0001:000254c0       __unwindfunclet$??0LoggingInfo@@QAE@AAV?$_com_ptr_t@V?$_com_IIID@USequenceContext@TS@@$1?_GUID_6427d0e0_e410_11d0_93b4_0020af68e893@@3U__s_GUID@@B@@@@_N@Z$9 100264c0 f   DBLogUtil.obj
 0001:000254cb       __unwindfunclet$??0LoggingInfo@@QAE@AAV?$_com_ptr_t@V?$_com_IIID@USequenceContext@TS@@$1?_GUID_6427d0e0_e410_11d0_93b4_0020af68e893@@3U__s_GUID@@B@@@@W4LoggingInfoTypes@0@_NAA_N2@Z$10 100264cb f   DBLogUtil.obj
 0001:000254cb       __unwindfunclet$??0LoggingInfo@@QAE@AAV?$_com_ptr_t@V?$_com_IIID@USequenceContext@TS@@$1?_GUID_6427d0e0_e410_11d0_93b4_0020af68e893@@3U__s_GUID@@B@@@@_N@Z$10 100264cb f   DBLogUtil.obj
 0001:000254d6       __unwindfunclet$??0LoggingInfo@@QAE@AAV?$_com_ptr_t@V?$_com_IIID@USequenceContext@TS@@$1?_GUID_6427d0e0_e410_11d0_93b4_0020af68e893@@3U__s_GUID@@B@@@@W4LoggingInfoTypes@0@_NAA_N2@Z$11 100264d6 f   DBLogUtil.obj
 0001:000254d6       __unwindfunclet$??0LoggingInfo@@QAE@AAV?$_com_ptr_t@V?$_com_IIID@USequenceContext@TS@@$1?_GUID_6427d0e0_e410_11d0_93b4_0020af68e893@@3U__s_GUID@@B@@@@_N@Z$11 100264d6 f   DBLogUtil.obj
 0001:000254e1       __unwindfunclet$??0LoggingInfo@@QAE@AAV?$_com_ptr_t@V?$_com_IIID@USequenceContext@TS@@$1?_GUID_6427d0e0_e410_11d0_93b4_0020af68e893@@3U__s_GUID@@B@@@@W4LoggingInfoTypes@0@_NAA_N2@Z$12 100264e1 f   DBLogUtil.obj
 0001:000254e1       __unwindfunclet$??0LoggingInfo@@QAE@AAV?$_com_ptr_t@V?$_com_IIID@USequenceContext@TS@@$1?_GUID_6427d0e0_e410_11d0_93b4_0020af68e893@@3U__s_GUID@@B@@@@_N@Z$12 100264e1 f   DBLogUtil.obj
 0001:000254ec       __unwindfunclet$??0LoggingInfo@@QAE@AAV?$_com_ptr_t@V?$_com_IIID@USequenceContext@TS@@$1?_GUID_6427d0e0_e410_11d0_93b4_0020af68e893@@3U__s_GUID@@B@@@@_N@Z$13 100264ec f   DBLogUtil.obj
 0001:000254ec       __unwindfunclet$??0LoggingInfo@@QAE@AAV?$_com_ptr_t@V?$_com_IIID@USequenceContext@TS@@$1?_GUID_6427d0e0_e410_11d0_93b4_0020af68e893@@3U__s_GUID@@B@@@@W4LoggingInfoTypes@0@_NAA_N2@Z$13 100264ec f   DBLogUtil.obj
 0001:000254f7       __unwindfunclet$??0LoggingInfo@@QAE@AAV?$_com_ptr_t@V?$_com_IIID@USequenceContext@TS@@$1?_GUID_6427d0e0_e410_11d0_93b4_0020af68e893@@3U__s_GUID@@B@@@@W4LoggingInfoTypes@0@_NAA_N2@Z$14 100264f7 f   DBLogUtil.obj
 0001:000254f7       __unwindfunclet$??0LoggingInfo@@QAE@AAV?$_com_ptr_t@V?$_com_IIID@USequenceContext@TS@@$1?_GUID_6427d0e0_e410_11d0_93b4_0020af68e893@@3U__s_GUID@@B@@@@_N@Z$14 100264f7 f   DBLogUtil.obj
 0001:00025502       __unwindfunclet$??0LoggingInfo@@QAE@AAV?$_com_ptr_t@V?$_com_IIID@USequenceContext@TS@@$1?_GUID_6427d0e0_e410_11d0_93b4_0020af68e893@@3U__s_GUID@@B@@@@W4LoggingInfoTypes@0@_NAA_N2@Z$15 10026502 f   DBLogUtil.obj
 0001:00025502       __unwindfunclet$??0LoggingInfo@@QAE@AAV?$_com_ptr_t@V?$_com_IIID@USequenceContext@TS@@$1?_GUID_6427d0e0_e410_11d0_93b4_0020af68e893@@3U__s_GUID@@B@@@@_N@Z$15 10026502 f   DBLogUtil.obj
 0001:0002550d       __unwindfunclet$??0LoggingInfo@@QAE@AAV?$_com_ptr_t@V?$_com_IIID@USequenceContext@TS@@$1?_GUID_6427d0e0_e410_11d0_93b4_0020af68e893@@3U__s_GUID@@B@@@@W4LoggingInfoTypes@0@_NAA_N2@Z$16 1002650d f   DBLogUtil.obj
 0001:0002550d       __unwindfunclet$??0LoggingInfo@@QAE@AAV?$_com_ptr_t@V?$_com_IIID@USequenceContext@TS@@$1?_GUID_6427d0e0_e410_11d0_93b4_0020af68e893@@3U__s_GUID@@B@@@@_N@Z$16 1002650d f   DBLogUtil.obj
 0001:00025518       __unwindfunclet$??0LoggingInfo@@QAE@AAV?$_com_ptr_t@V?$_com_IIID@USequenceContext@TS@@$1?_GUID_6427d0e0_e410_11d0_93b4_0020af68e893@@3U__s_GUID@@B@@@@_N@Z$17 10026518 f   DBLogUtil.obj
 0001:00025518       __unwindfunclet$??0LoggingInfo@@QAE@AAV?$_com_ptr_t@V?$_com_IIID@USequenceContext@TS@@$1?_GUID_6427d0e0_e410_11d0_93b4_0020af68e893@@3U__s_GUID@@B@@@@W4LoggingInfoTypes@0@_NAA_N2@Z$17 10026518 f   DBLogUtil.obj
 0001:00025523       __unwindfunclet$??0LoggingInfo@@QAE@AAV?$_com_ptr_t@V?$_com_IIID@USequenceContext@TS@@$1?_GUID_6427d0e0_e410_11d0_93b4_0020af68e893@@3U__s_GUID@@B@@@@W4LoggingInfoTypes@0@_NAA_N2@Z$18 10026523 f   DBLogUtil.obj
 0001:00025523       __unwindfunclet$??0LoggingInfo@@QAE@AAV?$_com_ptr_t@V?$_com_IIID@USequenceContext@TS@@$1?_GUID_6427d0e0_e410_11d0_93b4_0020af68e893@@3U__s_GUID@@B@@@@_N@Z$18 10026523 f   DBLogUtil.obj
 0001:0002552e       __unwindfunclet$??0LoggingInfo@@QAE@AAV?$_com_ptr_t@V?$_com_IIID@USequenceContext@TS@@$1?_GUID_6427d0e0_e410_11d0_93b4_0020af68e893@@3U__s_GUID@@B@@@@W4LoggingInfoTypes@0@_NAA_N2@Z$19 1002652e f   DBLogUtil.obj
 0001:0002552e       __unwindfunclet$??0LoggingInfo@@QAE@AAV?$_com_ptr_t@V?$_com_IIID@USequenceContext@TS@@$1?_GUID_6427d0e0_e410_11d0_93b4_0020af68e893@@3U__s_GUID@@B@@@@_N@Z$19 1002652e f   DBLogUtil.obj
 0001:00025539       __unwindfunclet$??0LoggingInfo@@QAE@AAV?$_com_ptr_t@V?$_com_IIID@USequenceContext@TS@@$1?_GUID_6427d0e0_e410_11d0_93b4_0020af68e893@@3U__s_GUID@@B@@@@_N@Z$20 10026539 f   DBLogUtil.obj
 0001:00025539       __unwindfunclet$??0LoggingInfo@@QAE@AAV?$_com_ptr_t@V?$_com_IIID@USequenceContext@TS@@$1?_GUID_6427d0e0_e410_11d0_93b4_0020af68e893@@3U__s_GUID@@B@@@@W4LoggingInfoTypes@0@_NAA_N2@Z$20 10026539 f   DBLogUtil.obj
 0001:00025544       __unwindfunclet$??0LoggingInfo@@QAE@AAV?$_com_ptr_t@V?$_com_IIID@USequenceContext@TS@@$1?_GUID_6427d0e0_e410_11d0_93b4_0020af68e893@@3U__s_GUID@@B@@@@W4LoggingInfoTypes@0@_NAA_N2@Z$21 10026544 f   DBLogUtil.obj
 0001:00025544       __unwindfunclet$??0LoggingInfo@@QAE@AAV?$_com_ptr_t@V?$_com_IIID@USequenceContext@TS@@$1?_GUID_6427d0e0_e410_11d0_93b4_0020af68e893@@3U__s_GUID@@B@@@@_N@Z$21 10026544 f   DBLogUtil.obj
 0001:0002554f       __unwindfunclet$??0LoggingInfo@@QAE@AAV?$_com_ptr_t@V?$_com_IIID@USequenceContext@TS@@$1?_GUID_6427d0e0_e410_11d0_93b4_0020af68e893@@3U__s_GUID@@B@@@@_N@Z$22 1002654f f   DBLogUtil.obj
 0001:0002554f       __unwindfunclet$??0LoggingInfo@@QAE@AAV?$_com_ptr_t@V?$_com_IIID@USequenceContext@TS@@$1?_GUID_6427d0e0_e410_11d0_93b4_0020af68e893@@3U__s_GUID@@B@@@@W4LoggingInfoTypes@0@_NAA_N2@Z$22 1002654f f   DBLogUtil.obj
 0001:0002555a       __unwindfunclet$??0LoggingInfo@@QAE@AAV?$_com_ptr_t@V?$_com_IIID@USequenceContext@TS@@$1?_GUID_6427d0e0_e410_11d0_93b4_0020af68e893@@3U__s_GUID@@B@@@@_N@Z$23 1002655a f   DBLogUtil.obj
 0001:0002555a       __unwindfunclet$??0LoggingInfo@@QAE@AAV?$_com_ptr_t@V?$_com_IIID@USequenceContext@TS@@$1?_GUID_6427d0e0_e410_11d0_93b4_0020af68e893@@3U__s_GUID@@B@@@@W4LoggingInfoTypes@0@_NAA_N2@Z$23 1002655a f   DBLogUtil.obj
 0001:00025565       __ehhandler$??0LoggingInfo@@QAE@AAV?$_com_ptr_t@V?$_com_IIID@USequenceContext@TS@@$1?_GUID_6427d0e0_e410_11d0_93b4_0020af68e893@@3U__s_GUID@@B@@@@W4LoggingInfoTypes@0@_NAA_N2@Z 10026565 f   DBLogUtil.obj
 0001:00025565       __ehhandler$??0LoggingInfo@@QAE@AAV?$_com_ptr_t@V?$_com_IIID@USequenceContext@TS@@$1?_GUID_6427d0e0_e410_11d0_93b4_0020af68e893@@3U__s_GUID@@B@@@@_N@Z 10026565 f   DBLogUtil.obj
 0001:00025570       __unwindfunclet$?SetResultProperty@LoggingInfo@@QAEXV?$_com_ptr_t@V?$_com_IIID@UPropertyObject@TS@@$1?_GUID_8d8769a0_09c0_11d1_93bd_0020af68e893@@3U__s_GUID@@B@@@@@Z$0 10026570 f   DBLogUtil.obj
 0001:00025578       __unwindfunclet$?SetResultProperty@LoggingInfo@@QAEXV?$_com_ptr_t@V?$_com_IIID@UPropertyObject@TS@@$1?_GUID_8d8769a0_09c0_11d1_93bd_0020af68e893@@3U__s_GUID@@B@@@@@Z$1 10026578 f   DBLogUtil.obj
 0001:00025580       __unwindfunclet$?SetResultProperty@LoggingInfo@@QAEXV?$_com_ptr_t@V?$_com_IIID@UPropertyObject@TS@@$1?_GUID_8d8769a0_09c0_11d1_93bd_0020af68e893@@3U__s_GUID@@B@@@@@Z$2 10026580 f   DBLogUtil.obj
 0001:00025588       __unwindfunclet$?SetResultProperty@LoggingInfo@@QAEXV?$_com_ptr_t@V?$_com_IIID@UPropertyObject@TS@@$1?_GUID_8d8769a0_09c0_11d1_93bd_0020af68e893@@3U__s_GUID@@B@@@@@Z$3 10026588 f   DBLogUtil.obj
 0001:00025590       __unwindfunclet$?SetResultProperty@LoggingInfo@@QAEXV?$_com_ptr_t@V?$_com_IIID@UPropertyObject@TS@@$1?_GUID_8d8769a0_09c0_11d1_93bd_0020af68e893@@3U__s_GUID@@B@@@@@Z$4 10026590 f   DBLogUtil.obj
 0001:00025598       __unwindfunclet$?SetResultProperty@LoggingInfo@@QAEXV?$_com_ptr_t@V?$_com_IIID@UPropertyObject@TS@@$1?_GUID_8d8769a0_09c0_11d1_93bd_0020af68e893@@3U__s_GUID@@B@@@@@Z$5 10026598 f   DBLogUtil.obj
 0001:000255a0       __unwindfunclet$?SetResultProperty@LoggingInfo@@QAEXV?$_com_ptr_t@V?$_com_IIID@UPropertyObject@TS@@$1?_GUID_8d8769a0_09c0_11d1_93bd_0020af68e893@@3U__s_GUID@@B@@@@@Z$6 100265a0 f   DBLogUtil.obj
 0001:000255a8       __unwindfunclet$?SetResultProperty@LoggingInfo@@QAEXV?$_com_ptr_t@V?$_com_IIID@UPropertyObject@TS@@$1?_GUID_8d8769a0_09c0_11d1_93bd_0020af68e893@@3U__s_GUID@@B@@@@@Z$7 100265a8 f   DBLogUtil.obj
 0001:000255b0       __unwindfunclet$?SetResultProperty@LoggingInfo@@QAEXV?$_com_ptr_t@V?$_com_IIID@UPropertyObject@TS@@$1?_GUID_8d8769a0_09c0_11d1_93bd_0020af68e893@@3U__s_GUID@@B@@@@@Z$8 100265b0 f   DBLogUtil.obj
 0001:000255b8       __unwindfunclet$?SetResultProperty@LoggingInfo@@QAEXV?$_com_ptr_t@V?$_com_IIID@UPropertyObject@TS@@$1?_GUID_8d8769a0_09c0_11d1_93bd_0020af68e893@@3U__s_GUID@@B@@@@@Z$9 100265b8 f   DBLogUtil.obj
 0001:000255c0       __unwindfunclet$?SetResultProperty@LoggingInfo@@QAEXV?$_com_ptr_t@V?$_com_IIID@UPropertyObject@TS@@$1?_GUID_8d8769a0_09c0_11d1_93bd_0020af68e893@@3U__s_GUID@@B@@@@@Z$10 100265c0 f   DBLogUtil.obj
 0001:000255c8       __unwindfunclet$?SetResultProperty@LoggingInfo@@QAEXV?$_com_ptr_t@V?$_com_IIID@UPropertyObject@TS@@$1?_GUID_8d8769a0_09c0_11d1_93bd_0020af68e893@@3U__s_GUID@@B@@@@@Z$11 100265c8 f   DBLogUtil.obj
 0001:000255d0       __unwindfunclet$?SetResultProperty@LoggingInfo@@QAEXV?$_com_ptr_t@V?$_com_IIID@UPropertyObject@TS@@$1?_GUID_8d8769a0_09c0_11d1_93bd_0020af68e893@@3U__s_GUID@@B@@@@@Z$12 100265d0 f   DBLogUtil.obj
 0001:000255d8       __unwindfunclet$?SetResultProperty@LoggingInfo@@QAEXV?$_com_ptr_t@V?$_com_IIID@UPropertyObject@TS@@$1?_GUID_8d8769a0_09c0_11d1_93bd_0020af68e893@@3U__s_GUID@@B@@@@@Z$13 100265d8 f   DBLogUtil.obj
 0001:000255e0       __unwindfunclet$?SetResultProperty@LoggingInfo@@QAEXV?$_com_ptr_t@V?$_com_IIID@UPropertyObject@TS@@$1?_GUID_8d8769a0_09c0_11d1_93bd_0020af68e893@@3U__s_GUID@@B@@@@@Z$14 100265e0 f   DBLogUtil.obj
 0001:000255e8       __unwindfunclet$?SetResultProperty@LoggingInfo@@QAEXV?$_com_ptr_t@V?$_com_IIID@UPropertyObject@TS@@$1?_GUID_8d8769a0_09c0_11d1_93bd_0020af68e893@@3U__s_GUID@@B@@@@@Z$15 100265e8 f   DBLogUtil.obj
 0001:000255f0       __unwindfunclet$?SetResultProperty@LoggingInfo@@QAEXV?$_com_ptr_t@V?$_com_IIID@UPropertyObject@TS@@$1?_GUID_8d8769a0_09c0_11d1_93bd_0020af68e893@@3U__s_GUID@@B@@@@@Z$16 100265f0 f   DBLogUtil.obj
 0001:000255f8       __unwindfunclet$?SetResultProperty@LoggingInfo@@QAEXV?$_com_ptr_t@V?$_com_IIID@UPropertyObject@TS@@$1?_GUID_8d8769a0_09c0_11d1_93bd_0020af68e893@@3U__s_GUID@@B@@@@@Z$17 100265f8 f   DBLogUtil.obj
 0001:00025600       __unwindfunclet$?SetResultProperty@LoggingInfo@@QAEXV?$_com_ptr_t@V?$_com_IIID@UPropertyObject@TS@@$1?_GUID_8d8769a0_09c0_11d1_93bd_0020af68e893@@3U__s_GUID@@B@@@@@Z$18 10026600 f   DBLogUtil.obj
 0001:00025619       __unwindfunclet$?SetResultProperty@LoggingInfo@@QAEXV?$_com_ptr_t@V?$_com_IIID@UPropertyObject@TS@@$1?_GUID_8d8769a0_09c0_11d1_93bd_0020af68e893@@3U__s_GUID@@B@@@@@Z$19 10026619 f   DBLogUtil.obj
 0001:00025632       __unwindfunclet$?SetResultProperty@LoggingInfo@@QAEXV?$_com_ptr_t@V?$_com_IIID@UPropertyObject@TS@@$1?_GUID_8d8769a0_09c0_11d1_93bd_0020af68e893@@3U__s_GUID@@B@@@@@Z$20 10026632 f   DBLogUtil.obj
 0001:0002564b       __unwindfunclet$?SetResultProperty@LoggingInfo@@QAEXV?$_com_ptr_t@V?$_com_IIID@UPropertyObject@TS@@$1?_GUID_8d8769a0_09c0_11d1_93bd_0020af68e893@@3U__s_GUID@@B@@@@@Z$21 1002664b f   DBLogUtil.obj
 0001:00025653       __unwindfunclet$?SetResultProperty@LoggingInfo@@QAEXV?$_com_ptr_t@V?$_com_IIID@UPropertyObject@TS@@$1?_GUID_8d8769a0_09c0_11d1_93bd_0020af68e893@@3U__s_GUID@@B@@@@@Z$22 10026653 f   DBLogUtil.obj
 0001:0002565b       __unwindfunclet$?SetResultProperty@LoggingInfo@@QAEXV?$_com_ptr_t@V?$_com_IIID@UPropertyObject@TS@@$1?_GUID_8d8769a0_09c0_11d1_93bd_0020af68e893@@3U__s_GUID@@B@@@@@Z$23 1002665b f   DBLogUtil.obj
 0001:00025674       __unwindfunclet$?SetResultProperty@LoggingInfo@@QAEXV?$_com_ptr_t@V?$_com_IIID@UPropertyObject@TS@@$1?_GUID_8d8769a0_09c0_11d1_93bd_0020af68e893@@3U__s_GUID@@B@@@@@Z$24 10026674 f   DBLogUtil.obj
 0001:0002568d       __unwindfunclet$?SetResultProperty@LoggingInfo@@QAEXV?$_com_ptr_t@V?$_com_IIID@UPropertyObject@TS@@$1?_GUID_8d8769a0_09c0_11d1_93bd_0020af68e893@@3U__s_GUID@@B@@@@@Z$25 1002668d f   DBLogUtil.obj
 0001:000256a6       __unwindfunclet$?SetResultProperty@LoggingInfo@@QAEXV?$_com_ptr_t@V?$_com_IIID@UPropertyObject@TS@@$1?_GUID_8d8769a0_09c0_11d1_93bd_0020af68e893@@3U__s_GUID@@B@@@@@Z$26 100266a6 f   DBLogUtil.obj
 0001:000256ae       __unwindfunclet$?SetResultProperty@LoggingInfo@@QAEXV?$_com_ptr_t@V?$_com_IIID@UPropertyObject@TS@@$1?_GUID_8d8769a0_09c0_11d1_93bd_0020af68e893@@3U__s_GUID@@B@@@@@Z$27 100266ae f   DBLogUtil.obj
 0001:000256b6       __unwindfunclet$?SetResultProperty@LoggingInfo@@QAEXV?$_com_ptr_t@V?$_com_IIID@UPropertyObject@TS@@$1?_GUID_8d8769a0_09c0_11d1_93bd_0020af68e893@@3U__s_GUID@@B@@@@@Z$28 100266b6 f   DBLogUtil.obj
 0001:000256be       __unwindfunclet$?SetResultProperty@LoggingInfo@@QAEXV?$_com_ptr_t@V?$_com_IIID@UPropertyObject@TS@@$1?_GUID_8d8769a0_09c0_11d1_93bd_0020af68e893@@3U__s_GUID@@B@@@@@Z$29 100266be f   DBLogUtil.obj
 0001:000256c6       __unwindfunclet$?SetResultProperty@LoggingInfo@@QAEXV?$_com_ptr_t@V?$_com_IIID@UPropertyObject@TS@@$1?_GUID_8d8769a0_09c0_11d1_93bd_0020af68e893@@3U__s_GUID@@B@@@@@Z$30 100266c6 f   DBLogUtil.obj
 0001:000256ce       __unwindfunclet$?SetResultProperty@LoggingInfo@@QAEXV?$_com_ptr_t@V?$_com_IIID@UPropertyObject@TS@@$1?_GUID_8d8769a0_09c0_11d1_93bd_0020af68e893@@3U__s_GUID@@B@@@@@Z$31 100266ce f   DBLogUtil.obj
 0001:000256e7       __unwindfunclet$?SetResultProperty@LoggingInfo@@QAEXV?$_com_ptr_t@V?$_com_IIID@UPropertyObject@TS@@$1?_GUID_8d8769a0_09c0_11d1_93bd_0020af68e893@@3U__s_GUID@@B@@@@@Z$32 100266e7 f   DBLogUtil.obj
 0001:00025705       __unwindfunclet$?SetResultProperty@LoggingInfo@@QAEXV?$_com_ptr_t@V?$_com_IIID@UPropertyObject@TS@@$1?_GUID_8d8769a0_09c0_11d1_93bd_0020af68e893@@3U__s_GUID@@B@@@@@Z$33 10026705 f   DBLogUtil.obj
 0001:0002570d       __unwindfunclet$?SetResultProperty@LoggingInfo@@QAEXV?$_com_ptr_t@V?$_com_IIID@UPropertyObject@TS@@$1?_GUID_8d8769a0_09c0_11d1_93bd_0020af68e893@@3U__s_GUID@@B@@@@@Z$34 1002670d f   DBLogUtil.obj
 0001:00025715       __unwindfunclet$?SetResultProperty@LoggingInfo@@QAEXV?$_com_ptr_t@V?$_com_IIID@UPropertyObject@TS@@$1?_GUID_8d8769a0_09c0_11d1_93bd_0020af68e893@@3U__s_GUID@@B@@@@@Z$35 10026715 f   DBLogUtil.obj
 0001:0002571d       __unwindfunclet$?SetResultProperty@LoggingInfo@@QAEXV?$_com_ptr_t@V?$_com_IIID@UPropertyObject@TS@@$1?_GUID_8d8769a0_09c0_11d1_93bd_0020af68e893@@3U__s_GUID@@B@@@@@Z$36 1002671d f   DBLogUtil.obj
 0001:0002573b       __unwindfunclet$?SetResultProperty@LoggingInfo@@QAEXV?$_com_ptr_t@V?$_com_IIID@UPropertyObject@TS@@$1?_GUID_8d8769a0_09c0_11d1_93bd_0020af68e893@@3U__s_GUID@@B@@@@@Z$37 1002673b f   DBLogUtil.obj
 0001:00025759       __unwindfunclet$?SetResultProperty@LoggingInfo@@QAEXV?$_com_ptr_t@V?$_com_IIID@UPropertyObject@TS@@$1?_GUID_8d8769a0_09c0_11d1_93bd_0020af68e893@@3U__s_GUID@@B@@@@@Z$38 10026759 f   DBLogUtil.obj
 0001:00025761       __unwindfunclet$?SetResultProperty@LoggingInfo@@QAEXV?$_com_ptr_t@V?$_com_IIID@UPropertyObject@TS@@$1?_GUID_8d8769a0_09c0_11d1_93bd_0020af68e893@@3U__s_GUID@@B@@@@@Z$39 10026761 f   DBLogUtil.obj
 0001:00025769       __ehhandler$?SetResultProperty@LoggingInfo@@QAEXV?$_com_ptr_t@V?$_com_IIID@UPropertyObject@TS@@$1?_GUID_8d8769a0_09c0_11d1_93bd_0020af68e893@@3U__s_GUID@@B@@@@@Z 10026769 f   DBLogUtil.obj
 0001:00025780       __unwindfunclet$?ClearPropertyInfo@LoggingInfo@@QAEXXZ$0 10026780 f   DBLogUtil.obj
 0001:00025788       __unwindfunclet$?ClearPropertyInfo@LoggingInfo@@QAEXXZ$2 10026788 f   DBLogUtil.obj
 0001:00025793       __unwindfunclet$?ClearPropertyInfo@LoggingInfo@@QAEXXZ$1 10026793 f   DBLogUtil.obj
 0001:0002579b       __ehhandler$?ClearPropertyInfo@LoggingInfo@@QAEXXZ 1002679b f   DBLogUtil.obj
 0001:000257b0       __unwindfunclet$?FormatToVariant@@YAHKPAD0AAV_variant_t@@@Z$6 100267b0 f   format.obj
 0001:000257b8       __ehhandler$?FormatToVariant@@YAHKPAD0AAV_variant_t@@@Z 100267b8 f   format.obj
 0001:000257d0       __unwindfunclet$?WaitInMessageLoop@@YAKPAXPAUIDispatch@@KPAH@Z$0 100267d0 f   Mutex.obj
 0001:000257d8       __unwindfunclet$?WaitInMessageLoop@@YAKPAXPAUIDispatch@@KPAH@Z$1 100267d8 f   Mutex.obj
 0001:000257e0       __unwindfunclet$?WaitInMessageLoop@@YAKPAXPAUIDispatch@@KPAH@Z$2 100267e0 f   Mutex.obj
 0001:000257e8       __unwindfunclet$?WaitInMessageLoop@@YAKPAXPAUIDispatch@@KPAH@Z$3 100267e8 f   Mutex.obj
 0001:000257f0       __unwindfunclet$?WaitInMessageLoop@@YAKPAXPAUIDispatch@@KPAH@Z$4 100267f0 f   Mutex.obj
 0001:000257f8       __unwindfunclet$?WaitInMessageLoop@@YAKPAXPAUIDispatch@@KPAH@Z$5 100267f8 f   Mutex.obj
 0001:00025800       __ehhandler$?WaitInMessageLoop@@YAKPAXPAUIDispatch@@KPAH@Z 10026800 f   Mutex.obj
 0001:00025810       __unwindfunclet$?Initialize@CMutex@@QAEXV_bstr_t@@_NAAUIDispatch@@AAV2@PAJ@Z$0 10026810 f   Mutex.obj
 0001:00025818       __unwindfunclet$?Initialize@CMutex@@QAEXV_bstr_t@@_NAAUIDispatch@@AAV2@PAJ@Z$1 10026818 f   Mutex.obj
 0001:00025820       __unwindfunclet$?Initialize@CMutex@@QAEXV_bstr_t@@_NAAUIDispatch@@AAV2@PAJ@Z$6 10026820 f   Mutex.obj
 0001:0002582b       __unwindfunclet$?Initialize@CMutex@@QAEXV_bstr_t@@_NAAUIDispatch@@AAV2@PAJ@Z$2 1002682b f   Mutex.obj
 0001:00025833       __unwindfunclet$?Initialize@CMutex@@QAEXV_bstr_t@@_NAAUIDispatch@@AAV2@PAJ@Z$7 10026833 f   Mutex.obj
 0001:0002583e       __unwindfunclet$?Initialize@CMutex@@QAEXV_bstr_t@@_NAAUIDispatch@@AAV2@PAJ@Z$3 1002683e f   Mutex.obj
 0001:00025846       __unwindfunclet$?Initialize@CMutex@@QAEXV_bstr_t@@_NAAUIDispatch@@AAV2@PAJ@Z$4 10026846 f   Mutex.obj
 0001:0002584e       __unwindfunclet$?Initialize@CMutex@@QAEXV_bstr_t@@_NAAUIDispatch@@AAV2@PAJ@Z$5 1002684e f   Mutex.obj
 0001:00025856       __ehhandler$?Initialize@CMutex@@QAEXV_bstr_t@@_NAAUIDispatch@@AAV2@PAJ@Z 10026856 f   Mutex.obj
 0001:00025860       __ehhandler$?Close@Statement@@QAEXXZ 10026860 f   Statement.obj
 0001:00025870       __unwindfunclet$??1ADOLoggingObject_Command@@QAE@XZ$0 10026870 f   Statement.obj
 0001:00025870       __unwindfunclet$??1ADOLoggingObject_Recordset@@QAE@XZ$0 10026870 f   Statement.obj
 0001:0002587b       __ehhandler$??1ADOLoggingObject_Command@@QAE@XZ 1002687b f   Statement.obj
 0001:0002587b       __ehhandler$??1ADOLoggingObject_Recordset@@QAE@XZ 1002687b f   Statement.obj
 0001:00025890       __unwindfunclet$?GetLastKeyList@Statement@@QAEPAVCLastKeyList@@AAVLoggingInfo@@@Z$0 10026890 f   Statement.obj
 0001:00025898       __unwindfunclet$?GetLastKeyList@Statement@@QAEPAVCLastKeyList@@AAVLoggingInfo@@@Z$1 10026898 f   Statement.obj
 0001:000258a0       __ehhandler$?GetLastKeyList@Statement@@QAEPAVCLastKeyList@@AAVLoggingInfo@@@Z 100268a0 f   Statement.obj
 0001:000258b0       __unwindfunclet$?GetLastKeyValue@Statement@@QAE?AV_variant_t@@AAVLoggingInfo@@@Z$0 100268b0 f   Statement.obj
 0001:000258b0       __unwindfunclet$?GetKeyValueForDepth@Statement@@QAE?AV_variant_t@@AAVLoggingInfo@@H@Z$0 100268b0 f   Statement.obj
 0001:000258b8       __unwindfunclet$?GetLastKeyValue@Statement@@QAE?AV_variant_t@@AAVLoggingInfo@@@Z$1 100268b8 f   Statement.obj
 0001:000258b8       __unwindfunclet$?GetKeyValueForDepth@Statement@@QAE?AV_variant_t@@AAVLoggingInfo@@H@Z$1 100268b8 f   Statement.obj
 0001:000258d1       __ehhandler$?GetLastKeyValue@Statement@@QAE?AV_variant_t@@AAVLoggingInfo@@@Z 100268d1 f   Statement.obj
 0001:000258d1       __ehhandler$?GetKeyValueForDepth@Statement@@QAE?AV_variant_t@@AAVLoggingInfo@@H@Z 100268d1 f   Statement.obj
 0001:000258e0       __unwindfunclet$?IncExecutionOrder@LoggingInfo@@QAEXXZ$0 100268e0 f   Statement.obj
 0001:000258e0       __unwindfunclet$?GetLastKeyItem@Statement@@QAEPAVCKeyItem@@AAVLoggingInfo@@@Z$0 100268e0 f   Statement.obj
 0001:000258e8       __ehhandler$?GetLastKeyItem@Statement@@QAEPAVCKeyItem@@AAVLoggingInfo@@@Z 100268e8 f   Statement.obj
 0001:000258e8       __ehhandler$?IncExecutionOrder@LoggingInfo@@QAEXXZ 100268e8 f   Statement.obj
 0001:00025900       __unwindfunclet$?Serialize@?$CList@V?$CStringT@DV?$StrTraitMFC_DLL@DV?$ChTraitsCRT@D@ATL@@@@@ATL@@AAV12@@@UAEXAAVCArchive@@@Z$0 10026900 f   Statement.obj
 0001:00025914       __ehhandler$?Serialize@?$CList@V?$CStringT@DV?$StrTraitMFC_DLL@DV?$ChTraitsCRT@D@ATL@@@@@ATL@@AAV12@@@UAEXAAVCArchive@@@Z 10026914 f   Statement.obj
 0001:00025920       __unwindfunclet$?AppendChunk@ADOLoggingObject_Command@@UAEJAAV_bstr_t@@0@Z$0 10026920 f   Statement.obj
 0001:00025920       __unwindfunclet$?Assign@ADOLoggingObject_Command@@UAEXAAV_bstr_t@@0@Z$0 10026920 f   Statement.obj
 0001:00025920       __unwindfunclet$?Assign@ADOLoggingObject_Recordset@@UAEXAAV_bstr_t@@0@Z$0 10026920 f   Statement.obj
 0001:00025920       __unwindfunclet$?AppendChunk@ADOLoggingObject_Recordset@@UAEJAAV_bstr_t@@0@Z$0 10026920 f   Statement.obj
 0001:00025928       __unwindfunclet$?Assign@ADOLoggingObject_Command@@UAEXAAV_bstr_t@@0@Z$1 10026928 f   Statement.obj
 0001:00025928       __unwindfunclet$?Assign@ADOLoggingObject_Recordset@@UAEXAAV_bstr_t@@0@Z$1 10026928 f   Statement.obj
 0001:00025928       __unwindfunclet$?AppendChunk@ADOLoggingObject_Command@@UAEJAAV_bstr_t@@0@Z$1 10026928 f   Statement.obj
 0001:00025928       __unwindfunclet$?AppendChunk@ADOLoggingObject_Recordset@@UAEJAAV_bstr_t@@0@Z$1 10026928 f   Statement.obj
 0001:00025930       __unwindfunclet$?AppendChunk@ADOLoggingObject_Command@@UAEJAAV_bstr_t@@0@Z$2 10026930 f   Statement.obj
 0001:00025930       __unwindfunclet$?AppendChunk@ADOLoggingObject_Recordset@@UAEJAAV_bstr_t@@0@Z$2 10026930 f   Statement.obj
 0001:00025930       __unwindfunclet$?Assign@ADOLoggingObject_Recordset@@UAEXAAV_bstr_t@@0@Z$2 10026930 f   Statement.obj
 0001:00025930       __unwindfunclet$?Assign@ADOLoggingObject_Command@@UAEXAAV_bstr_t@@0@Z$2 10026930 f   Statement.obj
 0001:00025938       __unwindfunclet$?Assign@ADOLoggingObject_Command@@UAEXAAV_bstr_t@@0@Z$3 10026938 f   Statement.obj
 0001:00025938       __unwindfunclet$?AppendChunk@ADOLoggingObject_Recordset@@UAEJAAV_bstr_t@@0@Z$3 10026938 f   Statement.obj
 0001:00025938       __unwindfunclet$?Assign@ADOLoggingObject_Recordset@@UAEXAAV_bstr_t@@0@Z$3 10026938 f   Statement.obj
 0001:00025938       __unwindfunclet$?AppendChunk@ADOLoggingObject_Command@@UAEJAAV_bstr_t@@0@Z$3 10026938 f   Statement.obj
 0001:00025940       __ehhandler$?Assign@ADOLoggingObject_Command@@UAEXAAV_bstr_t@@0@Z 10026940 f   Statement.obj
 0001:00025940       __ehhandler$?Assign@ADOLoggingObject_Recordset@@UAEXAAV_bstr_t@@0@Z 10026940 f   Statement.obj
 0001:00025940       __ehhandler$?AppendChunk@ADOLoggingObject_Recordset@@UAEJAAV_bstr_t@@0@Z 10026940 f   Statement.obj
 0001:00025940       __ehhandler$?AppendChunk@ADOLoggingObject_Command@@UAEJAAV_bstr_t@@0@Z 10026940 f   Statement.obj
 0001:00025950       __unwindfunclet$??0ADOLoggingObject_Command@@QAE@V?$_com_ptr_t@V?$_com_IIID@UCommand25@@$1?_GUID_0000154e_0000_0010_8000_00aa006d2ea4@@3U__s_GUID@@B@@@@@Z$0 10026950 f   Statement.obj
 0001:00025950       __unwindfunclet$??0ADOLoggingObject_Recordset@@QAE@V?$_com_ptr_t@V?$_com_IIID@U_Recordset@@$1?_GUID_00001556_0000_0010_8000_00aa006d2ea4@@3U__s_GUID@@B@@@@@Z$0 10026950 f   Statement.obj
 0001:00025958       __unwindfunclet$??0ADOLoggingObject_Recordset@@QAE@V?$_com_ptr_t@V?$_com_IIID@U_Recordset@@$1?_GUID_00001556_0000_0010_8000_00aa006d2ea4@@3U__s_GUID@@B@@@@@Z$1 10026958 f   Statement.obj
 0001:00025958       __unwindfunclet$??0ADOLoggingObject_Command@@QAE@V?$_com_ptr_t@V?$_com_IIID@UCommand25@@$1?_GUID_0000154e_0000_0010_8000_00aa006d2ea4@@3U__s_GUID@@B@@@@@Z$1 10026958 f   Statement.obj
 0001:00025963       __ehhandler$??0ADOLoggingObject_Command@@QAE@V?$_com_ptr_t@V?$_com_IIID@UCommand25@@$1?_GUID_0000154e_0000_0010_8000_00aa006d2ea4@@3U__s_GUID@@B@@@@@Z 10026963 f   Statement.obj
 0001:00025963       __ehhandler$??0ADOLoggingObject_Recordset@@QAE@V?$_com_ptr_t@V?$_com_IIID@U_Recordset@@$1?_GUID_00001556_0000_0010_8000_00aa006d2ea4@@3U__s_GUID@@B@@@@@Z 10026963 f   Statement.obj
 0001:00025970       __unwindfunclet$?AppendChunk@ADOLoggingObject_Recordset@@UAEJAAV_bstr_t@@AAV_variant_t@@@Z$0 10026970 f   Statement.obj
 0001:00025970       __unwindfunclet$?Assign@ADOLoggingObject_Command@@UAEXAAV_bstr_t@@AAV_variant_t@@@Z$0 10026970 f   Statement.obj
 0001:00025970       __unwindfunclet$?Assign@ADOLoggingObject_Recordset@@UAEXAAV_bstr_t@@AAV_variant_t@@@Z$0 10026970 f   Statement.obj
 0001:00025970       __unwindfunclet$?GetStatus@ADOLoggingObject_Recordset@@UAEHAAV_bstr_t@@@Z$0 10026970 f   Statement.obj
 0001:00025970       __unwindfunclet$?AppendChunk@ADOLoggingObject_Command@@UAEJAAV_bstr_t@@AAV_variant_t@@@Z$0 10026970 f   Statement.obj
 0001:00025978       __unwindfunclet$?AppendChunk@ADOLoggingObject_Command@@UAEJAAV_bstr_t@@AAV_variant_t@@@Z$1 10026978 f   Statement.obj
 0001:00025978       __unwindfunclet$?GetStatus@ADOLoggingObject_Recordset@@UAEHAAV_bstr_t@@@Z$1 10026978 f   Statement.obj
 0001:00025978       __unwindfunclet$?Assign@ADOLoggingObject_Command@@UAEXAAV_bstr_t@@AAV_variant_t@@@Z$1 10026978 f   Statement.obj
 0001:00025978       __unwindfunclet$?AppendChunk@ADOLoggingObject_Recordset@@UAEJAAV_bstr_t@@AAV_variant_t@@@Z$1 10026978 f   Statement.obj
 0001:00025978       __unwindfunclet$?Assign@ADOLoggingObject_Recordset@@UAEXAAV_bstr_t@@AAV_variant_t@@@Z$1 10026978 f   Statement.obj
 0001:00025980       __unwindfunclet$?Assign@ADOLoggingObject_Recordset@@UAEXAAV_bstr_t@@AAV_variant_t@@@Z$2 10026980 f   Statement.obj
 0001:00025980       __unwindfunclet$?AppendChunk@ADOLoggingObject_Command@@UAEJAAV_bstr_t@@AAV_variant_t@@@Z$2 10026980 f   Statement.obj
 0001:00025980       __unwindfunclet$?GetStatus@ADOLoggingObject_Recordset@@UAEHAAV_bstr_t@@@Z$2 10026980 f   Statement.obj
 0001:00025980       __unwindfunclet$?AppendChunk@ADOLoggingObject_Recordset@@UAEJAAV_bstr_t@@AAV_variant_t@@@Z$2 10026980 f   Statement.obj
 0001:00025980       __unwindfunclet$?Assign@ADOLoggingObject_Command@@UAEXAAV_bstr_t@@AAV_variant_t@@@Z$2 10026980 f   Statement.obj
 0001:00025988       __ehhandler$?AppendChunk@ADOLoggingObject_Command@@UAEJAAV_bstr_t@@AAV_variant_t@@@Z 10026988 f   Statement.obj
 0001:00025988       __ehhandler$?AppendChunk@ADOLoggingObject_Recordset@@UAEJAAV_bstr_t@@AAV_variant_t@@@Z 10026988 f   Statement.obj
 0001:00025988       __ehhandler$?Assign@ADOLoggingObject_Recordset@@UAEXAAV_bstr_t@@AAV_variant_t@@@Z 10026988 f   Statement.obj
 0001:00025988       __ehhandler$?GetStatus@ADOLoggingObject_Recordset@@UAEHAAV_bstr_t@@@Z 10026988 f   Statement.obj
 0001:00025988       __ehhandler$?Assign@ADOLoggingObject_Command@@UAEXAAV_bstr_t@@AAV_variant_t@@@Z 10026988 f   Statement.obj
 0001:000259a0       __unwindfunclet$??1CLastKeyList@@QAE@XZ$0 100269a0 f   Statement.obj
 0001:000259ab       __unwindfunclet$??1CLastKeyList@@QAE@XZ$1 100269ab f   Statement.obj
 0001:000259b6       __ehhandler$??1CLastKeyList@@QAE@XZ 100269b6 f   Statement.obj
 0001:000259c0       __unwindfunclet$?PushKeyValue@Statement@@QAEXAAVLoggingInfo@@V_variant_t@@@Z$0 100269c0 f   Statement.obj
 0001:000259c8       __unwindfunclet$?PushKeyValue@Statement@@QAEXAAVLoggingInfo@@V_variant_t@@@Z$1 100269c8 f   Statement.obj
 0001:000259d0       __unwindfunclet$?PushKeyValue@Statement@@QAEXAAVLoggingInfo@@V_variant_t@@@Z$5 100269d0 f   Statement.obj
 0001:000259db       __unwindfunclet$?PushKeyValue@Statement@@QAEXAAVLoggingInfo@@V_variant_t@@@Z$2 100269db f   Statement.obj
 0001:000259e6       __unwindfunclet$?PushKeyValue@Statement@@QAEXAAVLoggingInfo@@V_variant_t@@@Z$6 100269e6 f   Statement.obj
 0001:000259f1       __unwindfunclet$?PushKeyValue@Statement@@QAEXAAVLoggingInfo@@V_variant_t@@@Z$3 100269f1 f   Statement.obj
 0001:000259f9       __unwindfunclet$?PushKeyValue@Statement@@QAEXAAVLoggingInfo@@V_variant_t@@@Z$4 100269f9 f   Statement.obj
 0001:00025a01       __ehhandler$?PushKeyValue@Statement@@QAEXAAVLoggingInfo@@V_variant_t@@@Z 10026a01 f   Statement.obj
 0001:00025a10       __unwindfunclet$?PopKeyValue@Statement@@QAEXAAVLoggingInfo@@_N@Z$0 10026a10 f   Statement.obj
 0001:00025a18       __unwindfunclet$?PopKeyValue@Statement@@QAEXAAVLoggingInfo@@_N@Z$1 10026a18 f   Statement.obj
 0001:00025a23       __ehhandler$?PopKeyValue@Statement@@QAEXAAVLoggingInfo@@_N@Z 10026a23 f   Statement.obj
 0001:00025a30       __unwindfunclet$?GetUpperBoundsString@ArrayDimensions@TS@@QAE?AV_bstr_t@@XZ$1 10026a30 f   Statement.obj
 0001:00025a30       __unwindfunclet$?GetName@PropertyObject@TS@@QAE?AV_bstr_t@@XZ$1 10026a30 f   Statement.obj
 0001:00025a30       __unwindfunclet$?GetLowerBoundsString@ArrayDimensions@TS@@QAE?AV_bstr_t@@XZ$1 10026a30 f   Statement.obj
 0001:00025a30       __unwindfunclet$?GetSource@Error@@QAE?AV_bstr_t@@XZ$1 10026a30 f   Statement.obj
 0001:00025a30       __unwindfunclet$?GetSQLState@Error@@QAE?AV_bstr_t@@XZ$1 10026a30 f   Statement.obj
 0001:00025a30       __unwindfunclet$?GetNumericFormat@PropertyObject@TS@@QAE?AV_bstr_t@@XZ$1 10026a30 f   Statement.obj
 0001:00025a30       __unwindfunclet$?GetCommandText@Command15@@QAE?AV_bstr_t@@XZ$1 10026a30 f   Statement.obj
 0001:00025a30       __unwindfunclet$?Description@_com_error@@QBE?AV_bstr_t@@XZ$1 10026a30 f   Statement.obj
 0001:00025a30       __unwindfunclet$?GetVersion@Connection15@@QAE?AV_bstr_t@@XZ$1 10026a30 f   Statement.obj
 0001:00025a30       __unwindfunclet$?GetDescription@Error@@QAE?AV_bstr_t@@XZ$1 10026a30 f   Statement.obj
 0001:00025a30       __unwindfunclet$?GetTypeName@PropertyObjectType@TS@@QAE?AV_bstr_t@@XZ$1 10026a30 f   Statement.obj
 0001:00025a30       __unwindfunclet$??H@YA?AV_bstr_t@@PBDABV0@@Z$1 10026a30 f   Statement.obj
 0001:00025a30       __unwindfunclet$?GetDisplayString@PropertyObjectType@TS@@QAE?AV_bstr_t@@XZ$1 10026a30 f   Statement.obj
 0001:00025a30       __unwindfunclet$?GetConnectionString@Connection15@@QAE?AV_bstr_t@@XZ$1 10026a30 f   Statement.obj
 0001:00025a3b       __unwindfunclet$?GetNumericFormat@PropertyObject@TS@@QAE?AV_bstr_t@@XZ$0 10026a3b f   Statement.obj
 0001:00025a3b       __unwindfunclet$?GetTypeName@PropertyObjectType@TS@@QAE?AV_bstr_t@@XZ$0 10026a3b f   Statement.obj
 0001:00025a3b       __unwindfunclet$??H@YA?AV_bstr_t@@PBDABV0@@Z$0 10026a3b f   Statement.obj
 0001:00025a3b       __unwindfunclet$?GetCommandText@Command15@@QAE?AV_bstr_t@@XZ$0 10026a3b f   Statement.obj
 0001:00025a3b       __unwindfunclet$?GetDisplayString@PropertyObjectType@TS@@QAE?AV_bstr_t@@XZ$0 10026a3b f   Statement.obj
 0001:00025a3b       __unwindfunclet$?Description@_com_error@@QBE?AV_bstr_t@@XZ$0 10026a3b f   Statement.obj
 0001:00025a3b       __unwindfunclet$?GetVersion@Connection15@@QAE?AV_bstr_t@@XZ$0 10026a3b f   Statement.obj
 0001:00025a3b       __unwindfunclet$?GetName@PropertyObject@TS@@QAE?AV_bstr_t@@XZ$0 10026a3b f   Statement.obj
 0001:00025a3b       __unwindfunclet$?GetUpperBoundsString@ArrayDimensions@TS@@QAE?AV_bstr_t@@XZ$0 10026a3b f   Statement.obj
 0001:00025a3b       __unwindfunclet$?GetConnectionString@Connection15@@QAE?AV_bstr_t@@XZ$0 10026a3b f   Statement.obj
 0001:00025a3b       __unwindfunclet$?GetDescription@Error@@QAE?AV_bstr_t@@XZ$0 10026a3b f   Statement.obj
 0001:00025a3b       __unwindfunclet$?GetLowerBoundsString@ArrayDimensions@TS@@QAE?AV_bstr_t@@XZ$0 10026a3b f   Statement.obj
 0001:00025a3b       __unwindfunclet$?GetSource@Error@@QAE?AV_bstr_t@@XZ$0 10026a3b f   Statement.obj
 0001:00025a3b       __unwindfunclet$?GetSQLState@Error@@QAE?AV_bstr_t@@XZ$0 10026a3b f   Statement.obj
 0001:00025a54       __ehhandler$?GetName@PropertyObject@TS@@QAE?AV_bstr_t@@XZ 10026a54 f   Statement.obj
 0001:00025a54       __ehhandler$?GetConnectionString@Connection15@@QAE?AV_bstr_t@@XZ 10026a54 f   Statement.obj
 0001:00025a54       __ehhandler$?GetLowerBoundsString@ArrayDimensions@TS@@QAE?AV_bstr_t@@XZ 10026a54 f   Statement.obj
 0001:00025a54       __ehhandler$?GetCommandText@Command15@@QAE?AV_bstr_t@@XZ 10026a54 f   Statement.obj
 0001:00025a54       __ehhandler$?GetDisplayString@PropertyObjectType@TS@@QAE?AV_bstr_t@@XZ 10026a54 f   Statement.obj
 0001:00025a54       __ehhandler$?Description@_com_error@@QBE?AV_bstr_t@@XZ 10026a54 f   Statement.obj
 0001:00025a54       __ehhandler$??H@YA?AV_bstr_t@@PBDABV0@@Z 10026a54 f   Statement.obj
 0001:00025a54       __ehhandler$?GetVersion@Connection15@@QAE?AV_bstr_t@@XZ 10026a54 f   Statement.obj
 0001:00025a54       __ehhandler$?GetNumericFormat@PropertyObject@TS@@QAE?AV_bstr_t@@XZ 10026a54 f   Statement.obj
 0001:00025a54       __ehhandler$?GetTypeName@PropertyObjectType@TS@@QAE?AV_bstr_t@@XZ 10026a54 f   Statement.obj
 0001:00025a54       __ehhandler$?GetSQLState@Error@@QAE?AV_bstr_t@@XZ 10026a54 f   Statement.obj
 0001:00025a54       __ehhandler$?GetUpperBoundsString@ArrayDimensions@TS@@QAE?AV_bstr_t@@XZ 10026a54 f   Statement.obj
 0001:00025a54       __ehhandler$?GetSource@Error@@QAE?AV_bstr_t@@XZ 10026a54 f   Statement.obj
 0001:00025a54       __ehhandler$?GetDescription@Error@@QAE?AV_bstr_t@@XZ 10026a54 f   Statement.obj
 0001:00025a60       __unwindfunclet$?InitForeignKeyInformation@Statement@@QAEXAAV?$_com_ptr_t@V?$_com_IIID@USequenceContext@TS@@$1?_GUID_6427d0e0_e410_11d0_93b4_0020af68e893@@3U__s_GUID@@B@@@@@Z$0 10026a60 f   Statement.obj
 0001:00025a68       __unwindfunclet$?InitForeignKeyInformation@Statement@@QAEXAAV?$_com_ptr_t@V?$_com_IIID@USequenceContext@TS@@$1?_GUID_6427d0e0_e410_11d0_93b4_0020af68e893@@3U__s_GUID@@B@@@@@Z$1 10026a68 f   Statement.obj
 0001:00025a70       __unwindfunclet$?InitForeignKeyInformation@Statement@@QAEXAAV?$_com_ptr_t@V?$_com_IIID@USequenceContext@TS@@$1?_GUID_6427d0e0_e410_11d0_93b4_0020af68e893@@3U__s_GUID@@B@@@@@Z$11 10026a70 f   Statement.obj
 0001:00025a7b       __unwindfunclet$?InitForeignKeyInformation@Statement@@QAEXAAV?$_com_ptr_t@V?$_com_IIID@USequenceContext@TS@@$1?_GUID_6427d0e0_e410_11d0_93b4_0020af68e893@@3U__s_GUID@@B@@@@@Z$2 10026a7b f   Statement.obj
 0001:00025a83       __unwindfunclet$?InitForeignKeyInformation@Statement@@QAEXAAV?$_com_ptr_t@V?$_com_IIID@USequenceContext@TS@@$1?_GUID_6427d0e0_e410_11d0_93b4_0020af68e893@@3U__s_GUID@@B@@@@@Z$3 10026a83 f   Statement.obj
 0001:00025a8b       __unwindfunclet$?InitForeignKeyInformation@Statement@@QAEXAAV?$_com_ptr_t@V?$_com_IIID@USequenceContext@TS@@$1?_GUID_6427d0e0_e410_11d0_93b4_0020af68e893@@3U__s_GUID@@B@@@@@Z$4 10026a8b f   Statement.obj
 0001:00025a93       __unwindfunclet$?InitForeignKeyInformation@Statement@@QAEXAAV?$_com_ptr_t@V?$_com_IIID@USequenceContext@TS@@$1?_GUID_6427d0e0_e410_11d0_93b4_0020af68e893@@3U__s_GUID@@B@@@@@Z$5 10026a93 f   Statement.obj
 0001:00025a9b       __unwindfunclet$?InitForeignKeyInformation@Statement@@QAEXAAV?$_com_ptr_t@V?$_com_IIID@USequenceContext@TS@@$1?_GUID_6427d0e0_e410_11d0_93b4_0020af68e893@@3U__s_GUID@@B@@@@@Z$12 10026a9b f   Statement.obj
 0001:00025aa6       __unwindfunclet$?InitForeignKeyInformation@Statement@@QAEXAAV?$_com_ptr_t@V?$_com_IIID@USequenceContext@TS@@$1?_GUID_6427d0e0_e410_11d0_93b4_0020af68e893@@3U__s_GUID@@B@@@@@Z$6 10026aa6 f   Statement.obj
 0001:00025aae       __unwindfunclet$?InitForeignKeyInformation@Statement@@QAEXAAV?$_com_ptr_t@V?$_com_IIID@USequenceContext@TS@@$1?_GUID_6427d0e0_e410_11d0_93b4_0020af68e893@@3U__s_GUID@@B@@@@@Z$7 10026aae f   Statement.obj
 0001:00025ab6       __unwindfunclet$?InitForeignKeyInformation@Statement@@QAEXAAV?$_com_ptr_t@V?$_com_IIID@USequenceContext@TS@@$1?_GUID_6427d0e0_e410_11d0_93b4_0020af68e893@@3U__s_GUID@@B@@@@@Z$8 10026ab6 f   Statement.obj
 0001:00025abe       __unwindfunclet$?InitForeignKeyInformation@Statement@@QAEXAAV?$_com_ptr_t@V?$_com_IIID@USequenceContext@TS@@$1?_GUID_6427d0e0_e410_11d0_93b4_0020af68e893@@3U__s_GUID@@B@@@@@Z$9 10026abe f   Statement.obj
 0001:00025ac6       __unwindfunclet$?InitForeignKeyInformation@Statement@@QAEXAAV?$_com_ptr_t@V?$_com_IIID@USequenceContext@TS@@$1?_GUID_6427d0e0_e410_11d0_93b4_0020af68e893@@3U__s_GUID@@B@@@@@Z$13 10026ac6 f   Statement.obj
 0001:00025ad1       __unwindfunclet$?InitForeignKeyInformation@Statement@@QAEXAAV?$_com_ptr_t@V?$_com_IIID@USequenceContext@TS@@$1?_GUID_6427d0e0_e410_11d0_93b4_0020af68e893@@3U__s_GUID@@B@@@@@Z$10 10026ad1 f   Statement.obj
 0001:00025ad9       __unwindfunclet$?InitForeignKeyInformation@Statement@@QAEXAAV?$_com_ptr_t@V?$_com_IIID@USequenceContext@TS@@$1?_GUID_6427d0e0_e410_11d0_93b4_0020af68e893@@3U__s_GUID@@B@@@@@Z$14 10026ad9 f   Statement.obj
 0001:00025ae1       __ehhandler$?InitForeignKeyInformation@Statement@@QAEXAAV?$_com_ptr_t@V?$_com_IIID@USequenceContext@TS@@$1?_GUID_6427d0e0_e410_11d0_93b4_0020af68e893@@3U__s_GUID@@B@@@@@Z 10026ae1 f   Statement.obj
 0001:00025af0       __unwindfunclet$?CreateOnTheFlyCommands@Statement@@QAEXXZ$10 10026af0 f   Statement.obj
 0001:00025af8       __unwindfunclet$?CreateOnTheFlyCommands@Statement@@QAEXXZ$11 10026af8 f   Statement.obj
 0001:00025b00       __unwindfunclet$?CreateOnTheFlyCommands@Statement@@QAEXXZ$12 10026b00 f   Statement.obj
 0001:00025b08       __unwindfunclet$?CreateOnTheFlyCommands@Statement@@QAEXXZ$13 10026b08 f   Statement.obj
 0001:00025b10       __unwindfunclet$?CreateOnTheFlyCommands@Statement@@QAEXXZ$14 10026b10 f   Statement.obj
 0001:00025b19       __unwindfunclet$?CreateOnTheFlyCommands@Statement@@QAEXXZ$15 10026b19 f   Statement.obj
 0001:00025b22       __unwindfunclet$?CreateOnTheFlyCommands@Statement@@QAEXXZ$16 10026b22 f   Statement.obj
 0001:00025b2a       __unwindfunclet$?CreateOnTheFlyCommands@Statement@@QAEXXZ$17 10026b2a f   Statement.obj
 0001:00025b32       __unwindfunclet$?CreateOnTheFlyCommands@Statement@@QAEXXZ$18 10026b32 f   Statement.obj
 0001:00025b3a       __unwindfunclet$?CreateOnTheFlyCommands@Statement@@QAEXXZ$19 10026b3a f   Statement.obj
 0001:00025b42       __unwindfunclet$?CreateOnTheFlyCommands@Statement@@QAEXXZ$20 10026b42 f   Statement.obj
 0001:00025b4a       __unwindfunclet$?CreateOnTheFlyCommands@Statement@@QAEXXZ$21 10026b4a f   Statement.obj
 0001:00025b52       __unwindfunclet$?CreateOnTheFlyCommands@Statement@@QAEXXZ$22 10026b52 f   Statement.obj
 0001:00025b5a       __unwindfunclet$?CreateOnTheFlyCommands@Statement@@QAEXXZ$23 10026b5a f   Statement.obj
 0001:00025b62       __unwindfunclet$?CreateOnTheFlyCommands@Statement@@QAEXXZ$24 10026b62 f   Statement.obj
 0001:00025b6a       __unwindfunclet$?CreateOnTheFlyCommands@Statement@@QAEXXZ$25 10026b6a f   Statement.obj
 0001:00025b72       __unwindfunclet$?CreateOnTheFlyCommands@Statement@@QAEXXZ$26 10026b72 f   Statement.obj
 0001:00025b7a       __unwindfunclet$?CreateOnTheFlyCommands@Statement@@QAEXXZ$27 10026b7a f   Statement.obj
 0001:00025b82       __unwindfunclet$?CreateOnTheFlyCommands@Statement@@QAEXXZ$28 10026b82 f   Statement.obj
 0001:00025b8a       __unwindfunclet$?CreateOnTheFlyCommands@Statement@@QAEXXZ$29 10026b8a f   Statement.obj
 0001:00025b92       __unwindfunclet$?CreateOnTheFlyCommands@Statement@@QAEXXZ$30 10026b92 f   Statement.obj
 0001:00025b9a       __unwindfunclet$?CreateOnTheFlyCommands@Statement@@QAEXXZ$31 10026b9a f   Statement.obj
 0001:00025ba2       __unwindfunclet$?CreateOnTheFlyCommands@Statement@@QAEXXZ$32 10026ba2 f   Statement.obj
 0001:00025baa       __unwindfunclet$?CreateOnTheFlyCommands@Statement@@QAEXXZ$33 10026baa f   Statement.obj
 0001:00025bb2       __unwindfunclet$?CreateOnTheFlyCommands@Statement@@QAEXXZ$34 10026bb2 f   Statement.obj
 0001:00025bba       __unwindfunclet$?CreateOnTheFlyCommands@Statement@@QAEXXZ$35 10026bba f   Statement.obj
 0001:00025bc2       __unwindfunclet$?CreateOnTheFlyCommands@Statement@@QAEXXZ$36 10026bc2 f   Statement.obj
 0001:00025bca       __unwindfunclet$?CreateOnTheFlyCommands@Statement@@QAEXXZ$37 10026bca f   Statement.obj
 0001:00025bd2       __unwindfunclet$?CreateOnTheFlyCommands@Statement@@QAEXXZ$38 10026bd2 f   Statement.obj
 0001:00025bda       __unwindfunclet$?CreateOnTheFlyCommands@Statement@@QAEXXZ$39 10026bda f   Statement.obj
 0001:00025be2       __ehhandler$?CreateOnTheFlyCommands@Statement@@QAEXXZ 10026be2 f   Statement.obj
 0001:00025bf0       __unwindfunclet$?Open@Statement@@QAEXAAV?$_com_ptr_t@V?$_com_IIID@USequenceContext@TS@@$1?_GUID_6427d0e0_e410_11d0_93b4_0020af68e893@@3U__s_GUID@@B@@@@V?$_com_ptr_t@V?$_com_IIID@U_Connection@@$1?_GUID_00001550_0000_0010_8000_00aa006d2ea4@@3U__s_GUID@@B@@@@@Z$2 10026bf0 f   Statement.obj
 0001:00025bf8       __unwindfunclet$?Open@Statement@@QAEXAAV?$_com_ptr_t@V?$_com_IIID@USequenceContext@TS@@$1?_GUID_6427d0e0_e410_11d0_93b4_0020af68e893@@3U__s_GUID@@B@@@@V?$_com_ptr_t@V?$_com_IIID@U_Connection@@$1?_GUID_00001550_0000_0010_8000_00aa006d2ea4@@3U__s_GUID@@B@@@@@Z$3 10026bf8 f   Statement.obj
 0001:00025c00       __unwindfunclet$?Open@Statement@@QAEXAAV?$_com_ptr_t@V?$_com_IIID@USequenceContext@TS@@$1?_GUID_6427d0e0_e410_11d0_93b4_0020af68e893@@3U__s_GUID@@B@@@@V?$_com_ptr_t@V?$_com_IIID@U_Connection@@$1?_GUID_00001550_0000_0010_8000_00aa006d2ea4@@3U__s_GUID@@B@@@@@Z$25 10026c00 f   Statement.obj
 0001:00025c0b       __unwindfunclet$?Open@Statement@@QAEXAAV?$_com_ptr_t@V?$_com_IIID@USequenceContext@TS@@$1?_GUID_6427d0e0_e410_11d0_93b4_0020af68e893@@3U__s_GUID@@B@@@@V?$_com_ptr_t@V?$_com_IIID@U_Connection@@$1?_GUID_00001550_0000_0010_8000_00aa006d2ea4@@3U__s_GUID@@B@@@@@Z$4 10026c0b f   Statement.obj
 0001:00025c13       __unwindfunclet$?Open@Statement@@QAEXAAV?$_com_ptr_t@V?$_com_IIID@USequenceContext@TS@@$1?_GUID_6427d0e0_e410_11d0_93b4_0020af68e893@@3U__s_GUID@@B@@@@V?$_com_ptr_t@V?$_com_IIID@U_Connection@@$1?_GUID_00001550_0000_0010_8000_00aa006d2ea4@@3U__s_GUID@@B@@@@@Z$26 10026c13 f   Statement.obj
 0001:00025c1e       __unwindfunclet$?Open@Statement@@QAEXAAV?$_com_ptr_t@V?$_com_IIID@USequenceContext@TS@@$1?_GUID_6427d0e0_e410_11d0_93b4_0020af68e893@@3U__s_GUID@@B@@@@V?$_com_ptr_t@V?$_com_IIID@U_Connection@@$1?_GUID_00001550_0000_0010_8000_00aa006d2ea4@@3U__s_GUID@@B@@@@@Z$5 10026c1e f   Statement.obj
 0001:00025c26       __unwindfunclet$?Open@Statement@@QAEXAAV?$_com_ptr_t@V?$_com_IIID@USequenceContext@TS@@$1?_GUID_6427d0e0_e410_11d0_93b4_0020af68e893@@3U__s_GUID@@B@@@@V?$_com_ptr_t@V?$_com_IIID@U_Connection@@$1?_GUID_00001550_0000_0010_8000_00aa006d2ea4@@3U__s_GUID@@B@@@@@Z$27 10026c26 f   Statement.obj
 0001:00025c31       __unwindfunclet$?Open@Statement@@QAEXAAV?$_com_ptr_t@V?$_com_IIID@USequenceContext@TS@@$1?_GUID_6427d0e0_e410_11d0_93b4_0020af68e893@@3U__s_GUID@@B@@@@V?$_com_ptr_t@V?$_com_IIID@U_Connection@@$1?_GUID_00001550_0000_0010_8000_00aa006d2ea4@@3U__s_GUID@@B@@@@@Z$6 10026c31 f   Statement.obj
 0001:00025c39       __unwindfunclet$?Open@Statement@@QAEXAAV?$_com_ptr_t@V?$_com_IIID@USequenceContext@TS@@$1?_GUID_6427d0e0_e410_11d0_93b4_0020af68e893@@3U__s_GUID@@B@@@@V?$_com_ptr_t@V?$_com_IIID@U_Connection@@$1?_GUID_00001550_0000_0010_8000_00aa006d2ea4@@3U__s_GUID@@B@@@@@Z$28 10026c39 f   Statement.obj
 0001:00025c41       __unwindfunclet$?Open@Statement@@QAEXAAV?$_com_ptr_t@V?$_com_IIID@USequenceContext@TS@@$1?_GUID_6427d0e0_e410_11d0_93b4_0020af68e893@@3U__s_GUID@@B@@@@V?$_com_ptr_t@V?$_com_IIID@U_Connection@@$1?_GUID_00001550_0000_0010_8000_00aa006d2ea4@@3U__s_GUID@@B@@@@@Z$7 10026c41 f   Statement.obj
 0001:00025c49       __unwindfunclet$?Open@Statement@@QAEXAAV?$_com_ptr_t@V?$_com_IIID@USequenceContext@TS@@$1?_GUID_6427d0e0_e410_11d0_93b4_0020af68e893@@3U__s_GUID@@B@@@@V?$_com_ptr_t@V?$_com_IIID@U_Connection@@$1?_GUID_00001550_0000_0010_8000_00aa006d2ea4@@3U__s_GUID@@B@@@@@Z$8 10026c49 f   Statement.obj
 0001:00025c51       __unwindfunclet$?Open@Statement@@QAEXAAV?$_com_ptr_t@V?$_com_IIID@USequenceContext@TS@@$1?_GUID_6427d0e0_e410_11d0_93b4_0020af68e893@@3U__s_GUID@@B@@@@V?$_com_ptr_t@V?$_com_IIID@U_Connection@@$1?_GUID_00001550_0000_0010_8000_00aa006d2ea4@@3U__s_GUID@@B@@@@@Z$9 10026c51 f   Statement.obj
 0001:00025c59       __unwindfunclet$?Open@Statement@@QAEXAAV?$_com_ptr_t@V?$_com_IIID@USequenceContext@TS@@$1?_GUID_6427d0e0_e410_11d0_93b4_0020af68e893@@3U__s_GUID@@B@@@@V?$_com_ptr_t@V?$_com_IIID@U_Connection@@$1?_GUID_00001550_0000_0010_8000_00aa006d2ea4@@3U__s_GUID@@B@@@@@Z$10 10026c59 f   Statement.obj
 0001:00025c61       __unwindfunclet$?Open@Statement@@QAEXAAV?$_com_ptr_t@V?$_com_IIID@USequenceContext@TS@@$1?_GUID_6427d0e0_e410_11d0_93b4_0020af68e893@@3U__s_GUID@@B@@@@V?$_com_ptr_t@V?$_com_IIID@U_Connection@@$1?_GUID_00001550_0000_0010_8000_00aa006d2ea4@@3U__s_GUID@@B@@@@@Z$11 10026c61 f   Statement.obj
 0001:00025c69       __unwindfunclet$?Open@Statement@@QAEXAAV?$_com_ptr_t@V?$_com_IIID@USequenceContext@TS@@$1?_GUID_6427d0e0_e410_11d0_93b4_0020af68e893@@3U__s_GUID@@B@@@@V?$_com_ptr_t@V?$_com_IIID@U_Connection@@$1?_GUID_00001550_0000_0010_8000_00aa006d2ea4@@3U__s_GUID@@B@@@@@Z$12 10026c69 f   Statement.obj
 0001:00025c71       __unwindfunclet$?Open@Statement@@QAEXAAV?$_com_ptr_t@V?$_com_IIID@USequenceContext@TS@@$1?_GUID_6427d0e0_e410_11d0_93b4_0020af68e893@@3U__s_GUID@@B@@@@V?$_com_ptr_t@V?$_com_IIID@U_Connection@@$1?_GUID_00001550_0000_0010_8000_00aa006d2ea4@@3U__s_GUID@@B@@@@@Z$13 10026c71 f   Statement.obj
 0001:00025c79       __unwindfunclet$?Open@Statement@@QAEXAAV?$_com_ptr_t@V?$_com_IIID@USequenceContext@TS@@$1?_GUID_6427d0e0_e410_11d0_93b4_0020af68e893@@3U__s_GUID@@B@@@@V?$_com_ptr_t@V?$_com_IIID@U_Connection@@$1?_GUID_00001550_0000_0010_8000_00aa006d2ea4@@3U__s_GUID@@B@@@@@Z$14 10026c79 f   Statement.obj
 0001:00025c81       __unwindfunclet$?Open@Statement@@QAEXAAV?$_com_ptr_t@V?$_com_IIID@USequenceContext@TS@@$1?_GUID_6427d0e0_e410_11d0_93b4_0020af68e893@@3U__s_GUID@@B@@@@V?$_com_ptr_t@V?$_com_IIID@U_Connection@@$1?_GUID_00001550_0000_0010_8000_00aa006d2ea4@@3U__s_GUID@@B@@@@@Z$29 10026c81 f   Statement.obj
 0001:00025c8c       __unwindfunclet$?Open@Statement@@QAEXAAV?$_com_ptr_t@V?$_com_IIID@USequenceContext@TS@@$1?_GUID_6427d0e0_e410_11d0_93b4_0020af68e893@@3U__s_GUID@@B@@@@V?$_com_ptr_t@V?$_com_IIID@U_Connection@@$1?_GUID_00001550_0000_0010_8000_00aa006d2ea4@@3U__s_GUID@@B@@@@@Z$22 10026c8c f   Statement.obj
 0001:00025c94       __unwindfunclet$?Open@Statement@@QAEXAAV?$_com_ptr_t@V?$_com_IIID@USequenceContext@TS@@$1?_GUID_6427d0e0_e410_11d0_93b4_0020af68e893@@3U__s_GUID@@B@@@@V?$_com_ptr_t@V?$_com_IIID@U_Connection@@$1?_GUID_00001550_0000_0010_8000_00aa006d2ea4@@3U__s_GUID@@B@@@@@Z$30 10026c94 f   Statement.obj
 0001:00025c9f       __unwindfunclet$?Open@Statement@@QAEXAAV?$_com_ptr_t@V?$_com_IIID@USequenceContext@TS@@$1?_GUID_6427d0e0_e410_11d0_93b4_0020af68e893@@3U__s_GUID@@B@@@@V?$_com_ptr_t@V?$_com_IIID@U_Connection@@$1?_GUID_00001550_0000_0010_8000_00aa006d2ea4@@3U__s_GUID@@B@@@@@Z$23 10026c9f f   Statement.obj
 0001:00025ca7       __unwindfunclet$?Open@Statement@@QAEXAAV?$_com_ptr_t@V?$_com_IIID@USequenceContext@TS@@$1?_GUID_6427d0e0_e410_11d0_93b4_0020af68e893@@3U__s_GUID@@B@@@@V?$_com_ptr_t@V?$_com_IIID@U_Connection@@$1?_GUID_00001550_0000_0010_8000_00aa006d2ea4@@3U__s_GUID@@B@@@@@Z$31 10026ca7 f   Statement.obj
 0001:00025cb2       __unwindfunclet$?Open@Statement@@QAEXAAV?$_com_ptr_t@V?$_com_IIID@USequenceContext@TS@@$1?_GUID_6427d0e0_e410_11d0_93b4_0020af68e893@@3U__s_GUID@@B@@@@V?$_com_ptr_t@V?$_com_IIID@U_Connection@@$1?_GUID_00001550_0000_0010_8000_00aa006d2ea4@@3U__s_GUID@@B@@@@@Z$24 10026cb2 f   Statement.obj
 0001:00025cba       __unwindfunclet$?Open@Statement@@QAEXAAV?$_com_ptr_t@V?$_com_IIID@USequenceContext@TS@@$1?_GUID_6427d0e0_e410_11d0_93b4_0020af68e893@@3U__s_GUID@@B@@@@V?$_com_ptr_t@V?$_com_IIID@U_Connection@@$1?_GUID_00001550_0000_0010_8000_00aa006d2ea4@@3U__s_GUID@@B@@@@@Z$32 10026cba f   Statement.obj
 0001:00025cc2       __unwindfunclet$?Open@Statement@@QAEXAAV?$_com_ptr_t@V?$_com_IIID@USequenceContext@TS@@$1?_GUID_6427d0e0_e410_11d0_93b4_0020af68e893@@3U__s_GUID@@B@@@@V?$_com_ptr_t@V?$_com_IIID@U_Connection@@$1?_GUID_00001550_0000_0010_8000_00aa006d2ea4@@3U__s_GUID@@B@@@@@Z$15 10026cc2 f   Statement.obj
 0001:00025cca       __unwindfunclet$?Open@Statement@@QAEXAAV?$_com_ptr_t@V?$_com_IIID@USequenceContext@TS@@$1?_GUID_6427d0e0_e410_11d0_93b4_0020af68e893@@3U__s_GUID@@B@@@@V?$_com_ptr_t@V?$_com_IIID@U_Connection@@$1?_GUID_00001550_0000_0010_8000_00aa006d2ea4@@3U__s_GUID@@B@@@@@Z$16 10026cca f   Statement.obj
 0001:00025cd2       __unwindfunclet$?Open@Statement@@QAEXAAV?$_com_ptr_t@V?$_com_IIID@USequenceContext@TS@@$1?_GUID_6427d0e0_e410_11d0_93b4_0020af68e893@@3U__s_GUID@@B@@@@V?$_com_ptr_t@V?$_com_IIID@U_Connection@@$1?_GUID_00001550_0000_0010_8000_00aa006d2ea4@@3U__s_GUID@@B@@@@@Z$17 10026cd2 f   Statement.obj
 0001:00025cda       __unwindfunclet$?Open@Statement@@QAEXAAV?$_com_ptr_t@V?$_com_IIID@USequenceContext@TS@@$1?_GUID_6427d0e0_e410_11d0_93b4_0020af68e893@@3U__s_GUID@@B@@@@V?$_com_ptr_t@V?$_com_IIID@U_Connection@@$1?_GUID_00001550_0000_0010_8000_00aa006d2ea4@@3U__s_GUID@@B@@@@@Z$18 10026cda f   Statement.obj
 0001:00025ce2       __unwindfunclet$?Open@Statement@@QAEXAAV?$_com_ptr_t@V?$_com_IIID@USequenceContext@TS@@$1?_GUID_6427d0e0_e410_11d0_93b4_0020af68e893@@3U__s_GUID@@B@@@@V?$_com_ptr_t@V?$_com_IIID@U_Connection@@$1?_GUID_00001550_0000_0010_8000_00aa006d2ea4@@3U__s_GUID@@B@@@@@Z$19 10026ce2 f   Statement.obj
 0001:00025cea       __unwindfunclet$?Open@Statement@@QAEXAAV?$_com_ptr_t@V?$_com_IIID@USequenceContext@TS@@$1?_GUID_6427d0e0_e410_11d0_93b4_0020af68e893@@3U__s_GUID@@B@@@@V?$_com_ptr_t@V?$_com_IIID@U_Connection@@$1?_GUID_00001550_0000_0010_8000_00aa006d2ea4@@3U__s_GUID@@B@@@@@Z$20 10026cea f   Statement.obj
 0001:00025cf2       __unwindfunclet$?Open@Statement@@QAEXAAV?$_com_ptr_t@V?$_com_IIID@USequenceContext@TS@@$1?_GUID_6427d0e0_e410_11d0_93b4_0020af68e893@@3U__s_GUID@@B@@@@V?$_com_ptr_t@V?$_com_IIID@U_Connection@@$1?_GUID_00001550_0000_0010_8000_00aa006d2ea4@@3U__s_GUID@@B@@@@@Z$21 10026cf2 f   Statement.obj
 0001:00025cfa       __ehhandler$?Open@Statement@@QAEXAAV?$_com_ptr_t@V?$_com_IIID@USequenceContext@TS@@$1?_GUID_6427d0e0_e410_11d0_93b4_0020af68e893@@3U__s_GUID@@B@@@@V?$_com_ptr_t@V?$_com_IIID@U_Connection@@$1?_GUID_00001550_0000_0010_8000_00aa006d2ea4@@3U__s_GUID@@B@@@@@Z 10026cfa f   Statement.obj
 0001:00025d10       __unwindfunclet$?WillLog@Statement@@QAE_NAAVLoggingInfo@@@Z$7 10026d10 f   Statement.obj
 0001:00025d18       __unwindfunclet$?WillLog@Statement@@QAE_NAAVLoggingInfo@@@Z$8 10026d18 f   Statement.obj
 0001:00025d20       __unwindfunclet$?WillLog@Statement@@QAE_NAAVLoggingInfo@@@Z$9 10026d20 f   Statement.obj
 0001:00025d28       __unwindfunclet$?WillLog@Statement@@QAE_NAAVLoggingInfo@@@Z$10 10026d28 f   Statement.obj
 0001:00025d30       __unwindfunclet$?WillLog@Statement@@QAE_NAAVLoggingInfo@@@Z$13 10026d30 f   Statement.obj
 0001:00025d38       __unwindfunclet$?WillLog@Statement@@QAE_NAAVLoggingInfo@@@Z$14 10026d38 f   Statement.obj
 0001:00025d40       __unwindfunclet$?WillLog@Statement@@QAE_NAAVLoggingInfo@@@Z$15 10026d40 f   Statement.obj
 0001:00025d48       __unwindfunclet$?WillLog@Statement@@QAE_NAAVLoggingInfo@@@Z$16 10026d48 f   Statement.obj
 0001:00025d50       __unwindfunclet$?WillLog@Statement@@QAE_NAAVLoggingInfo@@@Z$17 10026d50 f   Statement.obj
 0001:00025d58       __unwindfunclet$?WillLog@Statement@@QAE_NAAVLoggingInfo@@@Z$18 10026d58 f   Statement.obj
 0001:00025d60       __unwindfunclet$?WillLog@Statement@@QAE_NAAVLoggingInfo@@@Z$19 10026d60 f   Statement.obj
 0001:00025d68       __unwindfunclet$?WillLog@Statement@@QAE_NAAVLoggingInfo@@@Z$20 10026d68 f   Statement.obj
 0001:00025d70       __unwindfunclet$?WillLog@Statement@@QAE_NAAVLoggingInfo@@@Z$11 10026d70 f   Statement.obj
 0001:00025d78       __unwindfunclet$?WillLog@Statement@@QAE_NAAVLoggingInfo@@@Z$12 10026d78 f   Statement.obj
 0001:00025d80       __unwindfunclet$?WillLog@Statement@@QAE_NAAVLoggingInfo@@@Z$21 10026d80 f   Statement.obj
 0001:00025d88       __unwindfunclet$?WillLog@Statement@@QAE_NAAVLoggingInfo@@@Z$22 10026d88 f   Statement.obj
 0001:00025d90       __unwindfunclet$?WillLog@Statement@@QAE_NAAVLoggingInfo@@@Z$23 10026d90 f   Statement.obj
 0001:00025d98       __unwindfunclet$?WillLog@Statement@@QAE_NAAVLoggingInfo@@@Z$24 10026d98 f   Statement.obj
 0001:00025da0       __unwindfunclet$?WillLog@Statement@@QAE_NAAVLoggingInfo@@@Z$25 10026da0 f   Statement.obj
 0001:00025da8       __unwindfunclet$?WillLog@Statement@@QAE_NAAVLoggingInfo@@@Z$27 10026da8 f   Statement.obj
 0001:00025db0       __ehhandler$?WillLog@Statement@@QAE_NAAVLoggingInfo@@@Z 10026db0 f   Statement.obj
 0001:00025dc0       __unwindfunclet$?Execute@Statement@@QAEXAAVLoggingInfo@@AAJW4eProcessType@1@@Z$13 10026dc0 f   Statement.obj
 0001:00025dc8       __unwindfunclet$?Execute@Statement@@QAEXAAVLoggingInfo@@AAJW4eProcessType@1@@Z$14 10026dc8 f   Statement.obj
 0001:00025dd0       __unwindfunclet$?Execute@Statement@@QAEXAAVLoggingInfo@@AAJW4eProcessType@1@@Z$15 10026dd0 f   Statement.obj
 0001:00025dd8       __unwindfunclet$?Execute@Statement@@QAEXAAVLoggingInfo@@AAJW4eProcessType@1@@Z$16 10026dd8 f   Statement.obj
 0001:00025de0       __unwindfunclet$?Execute@Statement@@QAEXAAVLoggingInfo@@AAJW4eProcessType@1@@Z$17 10026de0 f   Statement.obj
 0001:00025de8       __unwindfunclet$?Execute@Statement@@QAEXAAVLoggingInfo@@AAJW4eProcessType@1@@Z$18 10026de8 f   Statement.obj
 0001:00025df0       __unwindfunclet$?Execute@Statement@@QAEXAAVLoggingInfo@@AAJW4eProcessType@1@@Z$19 10026df0 f   Statement.obj
 0001:00025e09       __unwindfunclet$?Execute@Statement@@QAEXAAVLoggingInfo@@AAJW4eProcessType@1@@Z$20 10026e09 f   Statement.obj
 0001:00025e22       __unwindfunclet$?Execute@Statement@@QAEXAAVLoggingInfo@@AAJW4eProcessType@1@@Z$21 10026e22 f   Statement.obj
 0001:00025e2a       __unwindfunclet$?Execute@Statement@@QAEXAAVLoggingInfo@@AAJW4eProcessType@1@@Z$22 10026e2a f   Statement.obj
 0001:00025e32       __unwindfunclet$?Execute@Statement@@QAEXAAVLoggingInfo@@AAJW4eProcessType@1@@Z$24 10026e32 f   Statement.obj
 0001:00025e3a       __unwindfunclet$?Execute@Statement@@QAEXAAVLoggingInfo@@AAJW4eProcessType@1@@Z$25 10026e3a f   Statement.obj
 0001:00025e42       __unwindfunclet$?Execute@Statement@@QAEXAAVLoggingInfo@@AAJW4eProcessType@1@@Z$26 10026e42 f   Statement.obj
 0001:00025e4a       __unwindfunclet$?Execute@Statement@@QAEXAAVLoggingInfo@@AAJW4eProcessType@1@@Z$27 10026e4a f   Statement.obj
 0001:00025e52       __unwindfunclet$?Execute@Statement@@QAEXAAVLoggingInfo@@AAJW4eProcessType@1@@Z$28 10026e52 f   Statement.obj
 0001:00025e5a       __unwindfunclet$?Execute@Statement@@QAEXAAVLoggingInfo@@AAJW4eProcessType@1@@Z$29 10026e5a f   Statement.obj
 0001:00025e62       __unwindfunclet$?Execute@Statement@@QAEXAAVLoggingInfo@@AAJW4eProcessType@1@@Z$30 10026e62 f   Statement.obj
 0001:00025e6a       __unwindfunclet$?Execute@Statement@@QAEXAAVLoggingInfo@@AAJW4eProcessType@1@@Z$31 10026e6a f   Statement.obj
 0001:00025e72       __unwindfunclet$?Execute@Statement@@QAEXAAVLoggingInfo@@AAJW4eProcessType@1@@Z$32 10026e72 f   Statement.obj
 0001:00025e7a       __unwindfunclet$?Execute@Statement@@QAEXAAVLoggingInfo@@AAJW4eProcessType@1@@Z$33 10026e7a f   Statement.obj
 0001:00025e82       __unwindfunclet$?Execute@Statement@@QAEXAAVLoggingInfo@@AAJW4eProcessType@1@@Z$34 10026e82 f   Statement.obj
 0001:00025e8a       __unwindfunclet$?Execute@Statement@@QAEXAAVLoggingInfo@@AAJW4eProcessType@1@@Z$35 10026e8a f   Statement.obj
 0001:00025e92       __unwindfunclet$?Execute@Statement@@QAEXAAVLoggingInfo@@AAJW4eProcessType@1@@Z$36 10026e92 f   Statement.obj
 0001:00025e9a       __unwindfunclet$?Execute@Statement@@QAEXAAVLoggingInfo@@AAJW4eProcessType@1@@Z$37 10026e9a f   Statement.obj
 0001:00025ea2       __unwindfunclet$?Execute@Statement@@QAEXAAVLoggingInfo@@AAJW4eProcessType@1@@Z$38 10026ea2 f   Statement.obj
 0001:00025eaa       __unwindfunclet$?Execute@Statement@@QAEXAAVLoggingInfo@@AAJW4eProcessType@1@@Z$39 10026eaa f   Statement.obj
 0001:00025eb2       __unwindfunclet$?Execute@Statement@@QAEXAAVLoggingInfo@@AAJW4eProcessType@1@@Z$40 10026eb2 f   Statement.obj
 0001:00025eba       __unwindfunclet$?Execute@Statement@@QAEXAAVLoggingInfo@@AAJW4eProcessType@1@@Z$41 10026eba f   Statement.obj
 0001:00025ec2       __unwindfunclet$?Execute@Statement@@QAEXAAVLoggingInfo@@AAJW4eProcessType@1@@Z$42 10026ec2 f   Statement.obj
 0001:00025eca       __unwindfunclet$?Execute@Statement@@QAEXAAVLoggingInfo@@AAJW4eProcessType@1@@Z$43 10026eca f   Statement.obj
 0001:00025ed2       __unwindfunclet$?Execute@Statement@@QAEXAAVLoggingInfo@@AAJW4eProcessType@1@@Z$44 10026ed2 f   Statement.obj
 0001:00025eda       __unwindfunclet$?Execute@Statement@@QAEXAAVLoggingInfo@@AAJW4eProcessType@1@@Z$45 10026eda f   Statement.obj
 0001:00025ee2       __unwindfunclet$?Execute@Statement@@QAEXAAVLoggingInfo@@AAJW4eProcessType@1@@Z$46 10026ee2 f   Statement.obj
 0001:00025eea       __unwindfunclet$?Execute@Statement@@QAEXAAVLoggingInfo@@AAJW4eProcessType@1@@Z$47 10026eea f   Statement.obj
 0001:00025ef2       __unwindfunclet$?Execute@Statement@@QAEXAAVLoggingInfo@@AAJW4eProcessType@1@@Z$48 10026ef2 f   Statement.obj
 0001:00025efa       __unwindfunclet$?Execute@Statement@@QAEXAAVLoggingInfo@@AAJW4eProcessType@1@@Z$49 10026efa f   Statement.obj
 0001:00025f02       __unwindfunclet$?Execute@Statement@@QAEXAAVLoggingInfo@@AAJW4eProcessType@1@@Z$50 10026f02 f   Statement.obj
 0001:00025f0a       __unwindfunclet$?Execute@Statement@@QAEXAAVLoggingInfo@@AAJW4eProcessType@1@@Z$51 10026f0a f   Statement.obj
 0001:00025f12       __unwindfunclet$?Execute@Statement@@QAEXAAVLoggingInfo@@AAJW4eProcessType@1@@Z$52 10026f12 f   Statement.obj
 0001:00025f1a       __unwindfunclet$?Execute@Statement@@QAEXAAVLoggingInfo@@AAJW4eProcessType@1@@Z$53 10026f1a f   Statement.obj
 0001:00025f22       __unwindfunclet$?Execute@Statement@@QAEXAAVLoggingInfo@@AAJW4eProcessType@1@@Z$54 10026f22 f   Statement.obj
 0001:00025f2a       __unwindfunclet$?Execute@Statement@@QAEXAAVLoggingInfo@@AAJW4eProcessType@1@@Z$55 10026f2a f   Statement.obj
 0001:00025f32       __unwindfunclet$?Execute@Statement@@QAEXAAVLoggingInfo@@AAJW4eProcessType@1@@Z$57 10026f32 f   Statement.obj
 0001:00025f3a       __unwindfunclet$?Execute@Statement@@QAEXAAVLoggingInfo@@AAJW4eProcessType@1@@Z$58 10026f3a f   Statement.obj
 0001:00025f42       __unwindfunclet$?Execute@Statement@@QAEXAAVLoggingInfo@@AAJW4eProcessType@1@@Z$59 10026f42 f   Statement.obj
 0001:00025f4a       __unwindfunclet$?Execute@Statement@@QAEXAAVLoggingInfo@@AAJW4eProcessType@1@@Z$60 10026f4a f   Statement.obj
 0001:00025f52       __unwindfunclet$?Execute@Statement@@QAEXAAVLoggingInfo@@AAJW4eProcessType@1@@Z$61 10026f52 f   Statement.obj
 0001:00025f5a       __unwindfunclet$?Execute@Statement@@QAEXAAVLoggingInfo@@AAJW4eProcessType@1@@Z$62 10026f5a f   Statement.obj
 0001:00025f62       __unwindfunclet$?Execute@Statement@@QAEXAAVLoggingInfo@@AAJW4eProcessType@1@@Z$64 10026f62 f   Statement.obj
 0001:00025f6a       __unwindfunclet$?Execute@Statement@@QAEXAAVLoggingInfo@@AAJW4eProcessType@1@@Z$65 10026f6a f   Statement.obj
 0001:00025f72       __unwindfunclet$?Execute@Statement@@QAEXAAVLoggingInfo@@AAJW4eProcessType@1@@Z$66 10026f72 f   Statement.obj
 0001:00025f7a       __unwindfunclet$?Execute@Statement@@QAEXAAVLoggingInfo@@AAJW4eProcessType@1@@Z$67 10026f7a f   Statement.obj
 0001:00025f82       __unwindfunclet$?Execute@Statement@@QAEXAAVLoggingInfo@@AAJW4eProcessType@1@@Z$68 10026f82 f   Statement.obj
 0001:00025f8a       __unwindfunclet$?Execute@Statement@@QAEXAAVLoggingInfo@@AAJW4eProcessType@1@@Z$69 10026f8a f   Statement.obj
 0001:00025f92       __unwindfunclet$?Execute@Statement@@QAEXAAVLoggingInfo@@AAJW4eProcessType@1@@Z$70 10026f92 f   Statement.obj
 0001:00025fab       __unwindfunclet$?Execute@Statement@@QAEXAAVLoggingInfo@@AAJW4eProcessType@1@@Z$71 10026fab f   Statement.obj
 0001:00025fb3       __unwindfunclet$?Execute@Statement@@QAEXAAVLoggingInfo@@AAJW4eProcessType@1@@Z$72 10026fb3 f   Statement.obj
 0001:00025fbb       __unwindfunclet$?Execute@Statement@@QAEXAAVLoggingInfo@@AAJW4eProcessType@1@@Z$73 10026fbb f   Statement.obj
 0001:00025fc3       __unwindfunclet$?Execute@Statement@@QAEXAAVLoggingInfo@@AAJW4eProcessType@1@@Z$74 10026fc3 f   Statement.obj
 0001:00025fcb       __unwindfunclet$?Execute@Statement@@QAEXAAVLoggingInfo@@AAJW4eProcessType@1@@Z$75 10026fcb f   Statement.obj
 0001:00025fd3       __unwindfunclet$?Execute@Statement@@QAEXAAVLoggingInfo@@AAJW4eProcessType@1@@Z$76 10026fd3 f   Statement.obj
 0001:00025fdb       __unwindfunclet$?Execute@Statement@@QAEXAAVLoggingInfo@@AAJW4eProcessType@1@@Z$77 10026fdb f   Statement.obj
 0001:00025fe3       __unwindfunclet$?Execute@Statement@@QAEXAAVLoggingInfo@@AAJW4eProcessType@1@@Z$78 10026fe3 f   Statement.obj
 0001:00025feb       __unwindfunclet$?Execute@Statement@@QAEXAAVLoggingInfo@@AAJW4eProcessType@1@@Z$79 10026feb f   Statement.obj
 0001:00025ff3       __unwindfunclet$?Execute@Statement@@QAEXAAVLoggingInfo@@AAJW4eProcessType@1@@Z$80 10026ff3 f   Statement.obj
 0001:00025ffb       __unwindfunclet$?Execute@Statement@@QAEXAAVLoggingInfo@@AAJW4eProcessType@1@@Z$81 10026ffb f   Statement.obj
 0001:00026003       __unwindfunclet$?Execute@Statement@@QAEXAAVLoggingInfo@@AAJW4eProcessType@1@@Z$83 10027003 f   Statement.obj
 0001:0002600b       __unwindfunclet$?Execute@Statement@@QAEXAAVLoggingInfo@@AAJW4eProcessType@1@@Z$84 1002700b f   Statement.obj
 0001:00026013       __unwindfunclet$?Execute@Statement@@QAEXAAVLoggingInfo@@AAJW4eProcessType@1@@Z$85 10027013 f   Statement.obj
 0001:0002601b       __unwindfunclet$?Execute@Statement@@QAEXAAVLoggingInfo@@AAJW4eProcessType@1@@Z$86 1002701b f   Statement.obj
 0001:00026023       __unwindfunclet$?Execute@Statement@@QAEXAAVLoggingInfo@@AAJW4eProcessType@1@@Z$87 10027023 f   Statement.obj
 0001:0002602b       __unwindfunclet$?Execute@Statement@@QAEXAAVLoggingInfo@@AAJW4eProcessType@1@@Z$88 1002702b f   Statement.obj
 0001:00026033       __unwindfunclet$?Execute@Statement@@QAEXAAVLoggingInfo@@AAJW4eProcessType@1@@Z$89 10027033 f   Statement.obj
 0001:0002603b       __unwindfunclet$?Execute@Statement@@QAEXAAVLoggingInfo@@AAJW4eProcessType@1@@Z$90 1002703b f   Statement.obj
 0001:00026043       __unwindfunclet$?Execute@Statement@@QAEXAAVLoggingInfo@@AAJW4eProcessType@1@@Z$91 10027043 f   Statement.obj
 0001:0002604b       __unwindfunclet$?Execute@Statement@@QAEXAAVLoggingInfo@@AAJW4eProcessType@1@@Z$92 1002704b f   Statement.obj
 0001:00026053       __unwindfunclet$?Execute@Statement@@QAEXAAVLoggingInfo@@AAJW4eProcessType@1@@Z$93 10027053 f   Statement.obj
 0001:0002605b       __unwindfunclet$?Execute@Statement@@QAEXAAVLoggingInfo@@AAJW4eProcessType@1@@Z$94 1002705b f   Statement.obj
 0001:00026063       __unwindfunclet$?Execute@Statement@@QAEXAAVLoggingInfo@@AAJW4eProcessType@1@@Z$95 10027063 f   Statement.obj
 0001:0002606b       __unwindfunclet$?Execute@Statement@@QAEXAAVLoggingInfo@@AAJW4eProcessType@1@@Z$96 1002706b f   Statement.obj
 0001:00026073       __ehhandler$?Execute@Statement@@QAEXAAVLoggingInfo@@AAJW4eProcessType@1@@Z 10027073 f   Statement.obj
 0001:00026080       __unwindfunclet$?CreateParentStubs@Statement@@QAEXAAVLoggingInfo@@@Z$0 10027080 f   Statement.obj
 0001:0002608b       __unwindfunclet$?CreateParentStubs@Statement@@QAEXAAVLoggingInfo@@@Z$1 1002708b f   Statement.obj
 0001:00026096       __unwindfunclet$?CreateParentStubs@Statement@@QAEXAAVLoggingInfo@@@Z$2 10027096 f   Statement.obj
 0001:000260a1       __unwindfunclet$?CreateParentStubs@Statement@@QAEXAAVLoggingInfo@@@Z$3 100270a1 f   Statement.obj
 0001:000260ac       __unwindfunclet$?CreateParentStubs@Statement@@QAEXAAVLoggingInfo@@@Z$4 100270ac f   Statement.obj
 0001:000260b7       __ehhandler$?CreateParentStubs@Statement@@QAEXAAVLoggingInfo@@@Z 100270b7 f   Statement.obj
 0001:000260d0       __unwindfunclet$?ExecuteForOnTheFly@Statement@@QAEXAAVLoggingInfo@@AAJ@Z$0 100270d0 f   Statement.obj
 0001:000260d8       __unwindfunclet$?ExecuteForOnTheFly@Statement@@QAEXAAVLoggingInfo@@AAJ@Z$1 100270d8 f   Statement.obj
 0001:000260e0       __unwindfunclet$?ExecuteForOnTheFly@Statement@@QAEXAAVLoggingInfo@@AAJ@Z$2 100270e0 f   Statement.obj
 0001:000260e8       __ehhandler$?ExecuteForOnTheFly@Statement@@QAEXAAVLoggingInfo@@AAJ@Z 100270e8 f   Statement.obj
 0001:00026100       __unwindfunclet$??1Statement@@QAE@XZ$2 10027100 f   Statement.obj
 0001:00026108       __unwindfunclet$??1Statement@@QAE@XZ$3 10027108 f   Statement.obj
 0001:00026113       __unwindfunclet$??1Statement@@QAE@XZ$4 10027113 f   Statement.obj
 0001:0002611e       __unwindfunclet$??1Statement@@QAE@XZ$5 1002711e f   Statement.obj
 0001:00026129       __unwindfunclet$??1Statement@@QAE@XZ$6 10027129 f   Statement.obj
 0001:00026134       __unwindfunclet$??1Statement@@QAE@XZ$7 10027134 f   Statement.obj
 0001:0002613f       __unwindfunclet$??1Statement@@QAE@XZ$8 1002713f f   Statement.obj
 0001:0002614a       __unwindfunclet$??1Statement@@QAE@XZ$9 1002714a f   Statement.obj
 0001:00026155       __unwindfunclet$??1Statement@@QAE@XZ$10 10027155 f   Statement.obj
 0001:00026160       __unwindfunclet$??1Statement@@QAE@XZ$11 10027160 f   Statement.obj
 0001:0002616b       __unwindfunclet$??1Statement@@QAE@XZ$12 1002716b f   Statement.obj
 0001:00026176       __unwindfunclet$??1Statement@@QAE@XZ$13 10027176 f   Statement.obj
 0001:00026181       __unwindfunclet$??1Statement@@QAE@XZ$14 10027181 f   Statement.obj
 0001:0002618c       __unwindfunclet$??1Statement@@QAE@XZ$15 1002718c f   Statement.obj
 0001:00026197       __unwindfunclet$??1Statement@@QAE@XZ$16 10027197 f   Statement.obj
 0001:000261a5       __unwindfunclet$??1Statement@@QAE@XZ$17 100271a5 f   Statement.obj
 0001:000261b3       __unwindfunclet$??1Statement@@QAE@XZ$18 100271b3 f   Statement.obj
 0001:000261c1       __unwindfunclet$??1Statement@@QAE@XZ$19 100271c1 f   Statement.obj
 0001:000261cf       __ehhandler$??1Statement@@QAE@XZ 100271cf f   Statement.obj
 0001:000261e0       __unwindfunclet$??0Statement@@QAE@AAV?$_com_ptr_t@V?$_com_IIID@USequenceContext@TS@@$1?_GUID_6427d0e0_e410_11d0_93b4_0020af68e893@@3U__s_GUID@@B@@@@AAV?$_com_ptr_t@V?$_com_IIID@UPropertyObject@TS@@$1?_GUID_8d8769a0_09c0_11d1_93bd_0020af68e893@@3U__s_GUID@@B@@@@PAVCTSDatalink@@@Z$4 100271e0 f   Statement.obj
 0001:000261e8       __unwindfunclet$??0Statement@@QAE@AAV?$_com_ptr_t@V?$_com_IIID@USequenceContext@TS@@$1?_GUID_6427d0e0_e410_11d0_93b4_0020af68e893@@3U__s_GUID@@B@@@@AAV?$_com_ptr_t@V?$_com_IIID@UPropertyObject@TS@@$1?_GUID_8d8769a0_09c0_11d1_93bd_0020af68e893@@3U__s_GUID@@B@@@@PAVCTSDatalink@@@Z$5 100271e8 f   Statement.obj
 0001:000261f3       __unwindfunclet$??0Statement@@QAE@AAV?$_com_ptr_t@V?$_com_IIID@USequenceContext@TS@@$1?_GUID_6427d0e0_e410_11d0_93b4_0020af68e893@@3U__s_GUID@@B@@@@AAV?$_com_ptr_t@V?$_com_IIID@UPropertyObject@TS@@$1?_GUID_8d8769a0_09c0_11d1_93bd_0020af68e893@@3U__s_GUID@@B@@@@PAVCTSDatalink@@@Z$6 100271f3 f   Statement.obj
 0001:000261fe       __unwindfunclet$??0Statement@@QAE@AAV?$_com_ptr_t@V?$_com_IIID@USequenceContext@TS@@$1?_GUID_6427d0e0_e410_11d0_93b4_0020af68e893@@3U__s_GUID@@B@@@@AAV?$_com_ptr_t@V?$_com_IIID@UPropertyObject@TS@@$1?_GUID_8d8769a0_09c0_11d1_93bd_0020af68e893@@3U__s_GUID@@B@@@@PAVCTSDatalink@@@Z$7 100271fe f   Statement.obj
 0001:00026209       __unwindfunclet$??0Statement@@QAE@AAV?$_com_ptr_t@V?$_com_IIID@USequenceContext@TS@@$1?_GUID_6427d0e0_e410_11d0_93b4_0020af68e893@@3U__s_GUID@@B@@@@AAV?$_com_ptr_t@V?$_com_IIID@UPropertyObject@TS@@$1?_GUID_8d8769a0_09c0_11d1_93bd_0020af68e893@@3U__s_GUID@@B@@@@PAVCTSDatalink@@@Z$8 10027209 f   Statement.obj
 0001:00026214       __unwindfunclet$??0Statement@@QAE@AAV?$_com_ptr_t@V?$_com_IIID@USequenceContext@TS@@$1?_GUID_6427d0e0_e410_11d0_93b4_0020af68e893@@3U__s_GUID@@B@@@@AAV?$_com_ptr_t@V?$_com_IIID@UPropertyObject@TS@@$1?_GUID_8d8769a0_09c0_11d1_93bd_0020af68e893@@3U__s_GUID@@B@@@@PAVCTSDatalink@@@Z$9 10027214 f   Statement.obj
 0001:0002621f       __unwindfunclet$??0Statement@@QAE@AAV?$_com_ptr_t@V?$_com_IIID@USequenceContext@TS@@$1?_GUID_6427d0e0_e410_11d0_93b4_0020af68e893@@3U__s_GUID@@B@@@@AAV?$_com_ptr_t@V?$_com_IIID@UPropertyObject@TS@@$1?_GUID_8d8769a0_09c0_11d1_93bd_0020af68e893@@3U__s_GUID@@B@@@@PAVCTSDatalink@@@Z$10 1002721f f   Statement.obj
 0001:0002622a       __unwindfunclet$??0Statement@@QAE@AAV?$_com_ptr_t@V?$_com_IIID@USequenceContext@TS@@$1?_GUID_6427d0e0_e410_11d0_93b4_0020af68e893@@3U__s_GUID@@B@@@@AAV?$_com_ptr_t@V?$_com_IIID@UPropertyObject@TS@@$1?_GUID_8d8769a0_09c0_11d1_93bd_0020af68e893@@3U__s_GUID@@B@@@@PAVCTSDatalink@@@Z$11 1002722a f   Statement.obj
 0001:00026235       __unwindfunclet$??0Statement@@QAE@AAV?$_com_ptr_t@V?$_com_IIID@USequenceContext@TS@@$1?_GUID_6427d0e0_e410_11d0_93b4_0020af68e893@@3U__s_GUID@@B@@@@AAV?$_com_ptr_t@V?$_com_IIID@UPropertyObject@TS@@$1?_GUID_8d8769a0_09c0_11d1_93bd_0020af68e893@@3U__s_GUID@@B@@@@PAVCTSDatalink@@@Z$12 10027235 f   Statement.obj
 0001:00026240       __unwindfunclet$??0Statement@@QAE@AAV?$_com_ptr_t@V?$_com_IIID@USequenceContext@TS@@$1?_GUID_6427d0e0_e410_11d0_93b4_0020af68e893@@3U__s_GUID@@B@@@@AAV?$_com_ptr_t@V?$_com_IIID@UPropertyObject@TS@@$1?_GUID_8d8769a0_09c0_11d1_93bd_0020af68e893@@3U__s_GUID@@B@@@@PAVCTSDatalink@@@Z$13 10027240 f   Statement.obj
 0001:0002624b       __unwindfunclet$??0Statement@@QAE@AAV?$_com_ptr_t@V?$_com_IIID@USequenceContext@TS@@$1?_GUID_6427d0e0_e410_11d0_93b4_0020af68e893@@3U__s_GUID@@B@@@@AAV?$_com_ptr_t@V?$_com_IIID@UPropertyObject@TS@@$1?_GUID_8d8769a0_09c0_11d1_93bd_0020af68e893@@3U__s_GUID@@B@@@@PAVCTSDatalink@@@Z$14 1002724b f   Statement.obj
 0001:00026256       __unwindfunclet$??0Statement@@QAE@AAV?$_com_ptr_t@V?$_com_IIID@USequenceContext@TS@@$1?_GUID_6427d0e0_e410_11d0_93b4_0020af68e893@@3U__s_GUID@@B@@@@AAV?$_com_ptr_t@V?$_com_IIID@UPropertyObject@TS@@$1?_GUID_8d8769a0_09c0_11d1_93bd_0020af68e893@@3U__s_GUID@@B@@@@PAVCTSDatalink@@@Z$15 10027256 f   Statement.obj
 0001:00026261       __unwindfunclet$??0Statement@@QAE@AAV?$_com_ptr_t@V?$_com_IIID@USequenceContext@TS@@$1?_GUID_6427d0e0_e410_11d0_93b4_0020af68e893@@3U__s_GUID@@B@@@@AAV?$_com_ptr_t@V?$_com_IIID@UPropertyObject@TS@@$1?_GUID_8d8769a0_09c0_11d1_93bd_0020af68e893@@3U__s_GUID@@B@@@@PAVCTSDatalink@@@Z$16 10027261 f   Statement.obj
 0001:0002626c       __unwindfunclet$??0Statement@@QAE@AAV?$_com_ptr_t@V?$_com_IIID@USequenceContext@TS@@$1?_GUID_6427d0e0_e410_11d0_93b4_0020af68e893@@3U__s_GUID@@B@@@@AAV?$_com_ptr_t@V?$_com_IIID@UPropertyObject@TS@@$1?_GUID_8d8769a0_09c0_11d1_93bd_0020af68e893@@3U__s_GUID@@B@@@@PAVCTSDatalink@@@Z$17 1002726c f   Statement.obj
 0001:00026277       __unwindfunclet$??0Statement@@QAE@AAV?$_com_ptr_t@V?$_com_IIID@USequenceContext@TS@@$1?_GUID_6427d0e0_e410_11d0_93b4_0020af68e893@@3U__s_GUID@@B@@@@AAV?$_com_ptr_t@V?$_com_IIID@UPropertyObject@TS@@$1?_GUID_8d8769a0_09c0_11d1_93bd_0020af68e893@@3U__s_GUID@@B@@@@PAVCTSDatalink@@@Z$18 10027277 f   Statement.obj
 0001:00026285       __unwindfunclet$??0Statement@@QAE@AAV?$_com_ptr_t@V?$_com_IIID@USequenceContext@TS@@$1?_GUID_6427d0e0_e410_11d0_93b4_0020af68e893@@3U__s_GUID@@B@@@@AAV?$_com_ptr_t@V?$_com_IIID@UPropertyObject@TS@@$1?_GUID_8d8769a0_09c0_11d1_93bd_0020af68e893@@3U__s_GUID@@B@@@@PAVCTSDatalink@@@Z$19 10027285 f   Statement.obj
 0001:00026293       __unwindfunclet$??0Statement@@QAE@AAV?$_com_ptr_t@V?$_com_IIID@USequenceContext@TS@@$1?_GUID_6427d0e0_e410_11d0_93b4_0020af68e893@@3U__s_GUID@@B@@@@AAV?$_com_ptr_t@V?$_com_IIID@UPropertyObject@TS@@$1?_GUID_8d8769a0_09c0_11d1_93bd_0020af68e893@@3U__s_GUID@@B@@@@PAVCTSDatalink@@@Z$20 10027293 f   Statement.obj
 0001:000262a1       __unwindfunclet$??0Statement@@QAE@AAV?$_com_ptr_t@V?$_com_IIID@USequenceContext@TS@@$1?_GUID_6427d0e0_e410_11d0_93b4_0020af68e893@@3U__s_GUID@@B@@@@AAV?$_com_ptr_t@V?$_com_IIID@UPropertyObject@TS@@$1?_GUID_8d8769a0_09c0_11d1_93bd_0020af68e893@@3U__s_GUID@@B@@@@PAVCTSDatalink@@@Z$21 100272a1 f   Statement.obj
 0001:000262af       __unwindfunclet$??0Statement@@QAE@AAV?$_com_ptr_t@V?$_com_IIID@USequenceContext@TS@@$1?_GUID_6427d0e0_e410_11d0_93b4_0020af68e893@@3U__s_GUID@@B@@@@AAV?$_com_ptr_t@V?$_com_IIID@UPropertyObject@TS@@$1?_GUID_8d8769a0_09c0_11d1_93bd_0020af68e893@@3U__s_GUID@@B@@@@PAVCTSDatalink@@@Z$22 100272af f   Statement.obj
 0001:000262b7       __unwindfunclet$??0Statement@@QAE@AAV?$_com_ptr_t@V?$_com_IIID@USequenceContext@TS@@$1?_GUID_6427d0e0_e410_11d0_93b4_0020af68e893@@3U__s_GUID@@B@@@@AAV?$_com_ptr_t@V?$_com_IIID@UPropertyObject@TS@@$1?_GUID_8d8769a0_09c0_11d1_93bd_0020af68e893@@3U__s_GUID@@B@@@@PAVCTSDatalink@@@Z$57 100272b7 f   Statement.obj
 0001:000262bf       __unwindfunclet$??0Statement@@QAE@AAV?$_com_ptr_t@V?$_com_IIID@USequenceContext@TS@@$1?_GUID_6427d0e0_e410_11d0_93b4_0020af68e893@@3U__s_GUID@@B@@@@AAV?$_com_ptr_t@V?$_com_IIID@UPropertyObject@TS@@$1?_GUID_8d8769a0_09c0_11d1_93bd_0020af68e893@@3U__s_GUID@@B@@@@PAVCTSDatalink@@@Z$23 100272bf f   Statement.obj
 0001:000262c7       __unwindfunclet$??0Statement@@QAE@AAV?$_com_ptr_t@V?$_com_IIID@USequenceContext@TS@@$1?_GUID_6427d0e0_e410_11d0_93b4_0020af68e893@@3U__s_GUID@@B@@@@AAV?$_com_ptr_t@V?$_com_IIID@UPropertyObject@TS@@$1?_GUID_8d8769a0_09c0_11d1_93bd_0020af68e893@@3U__s_GUID@@B@@@@PAVCTSDatalink@@@Z$24 100272c7 f   Statement.obj
 0001:000262cf       __unwindfunclet$??0Statement@@QAE@AAV?$_com_ptr_t@V?$_com_IIID@USequenceContext@TS@@$1?_GUID_6427d0e0_e410_11d0_93b4_0020af68e893@@3U__s_GUID@@B@@@@AAV?$_com_ptr_t@V?$_com_IIID@UPropertyObject@TS@@$1?_GUID_8d8769a0_09c0_11d1_93bd_0020af68e893@@3U__s_GUID@@B@@@@PAVCTSDatalink@@@Z$25 100272cf f   Statement.obj
 0001:000262d7       __unwindfunclet$??0Statement@@QAE@AAV?$_com_ptr_t@V?$_com_IIID@USequenceContext@TS@@$1?_GUID_6427d0e0_e410_11d0_93b4_0020af68e893@@3U__s_GUID@@B@@@@AAV?$_com_ptr_t@V?$_com_IIID@UPropertyObject@TS@@$1?_GUID_8d8769a0_09c0_11d1_93bd_0020af68e893@@3U__s_GUID@@B@@@@PAVCTSDatalink@@@Z$26 100272d7 f   Statement.obj
 0001:000262df       __unwindfunclet$??0Statement@@QAE@AAV?$_com_ptr_t@V?$_com_IIID@USequenceContext@TS@@$1?_GUID_6427d0e0_e410_11d0_93b4_0020af68e893@@3U__s_GUID@@B@@@@AAV?$_com_ptr_t@V?$_com_IIID@UPropertyObject@TS@@$1?_GUID_8d8769a0_09c0_11d1_93bd_0020af68e893@@3U__s_GUID@@B@@@@PAVCTSDatalink@@@Z$27 100272df f   Statement.obj
 0001:000262e7       __unwindfunclet$??0Statement@@QAE@AAV?$_com_ptr_t@V?$_com_IIID@USequenceContext@TS@@$1?_GUID_6427d0e0_e410_11d0_93b4_0020af68e893@@3U__s_GUID@@B@@@@AAV?$_com_ptr_t@V?$_com_IIID@UPropertyObject@TS@@$1?_GUID_8d8769a0_09c0_11d1_93bd_0020af68e893@@3U__s_GUID@@B@@@@PAVCTSDatalink@@@Z$28 100272e7 f   Statement.obj
 0001:000262ef       __unwindfunclet$??0Statement@@QAE@AAV?$_com_ptr_t@V?$_com_IIID@USequenceContext@TS@@$1?_GUID_6427d0e0_e410_11d0_93b4_0020af68e893@@3U__s_GUID@@B@@@@AAV?$_com_ptr_t@V?$_com_IIID@UPropertyObject@TS@@$1?_GUID_8d8769a0_09c0_11d1_93bd_0020af68e893@@3U__s_GUID@@B@@@@PAVCTSDatalink@@@Z$29 100272ef f   Statement.obj
 0001:000262f7       __unwindfunclet$??0Statement@@QAE@AAV?$_com_ptr_t@V?$_com_IIID@USequenceContext@TS@@$1?_GUID_6427d0e0_e410_11d0_93b4_0020af68e893@@3U__s_GUID@@B@@@@AAV?$_com_ptr_t@V?$_com_IIID@UPropertyObject@TS@@$1?_GUID_8d8769a0_09c0_11d1_93bd_0020af68e893@@3U__s_GUID@@B@@@@PAVCTSDatalink@@@Z$30 100272f7 f   Statement.obj
 0001:000262ff       __unwindfunclet$??0Statement@@QAE@AAV?$_com_ptr_t@V?$_com_IIID@USequenceContext@TS@@$1?_GUID_6427d0e0_e410_11d0_93b4_0020af68e893@@3U__s_GUID@@B@@@@AAV?$_com_ptr_t@V?$_com_IIID@UPropertyObject@TS@@$1?_GUID_8d8769a0_09c0_11d1_93bd_0020af68e893@@3U__s_GUID@@B@@@@PAVCTSDatalink@@@Z$31 100272ff f   Statement.obj
 0001:00026307       __unwindfunclet$??0Statement@@QAE@AAV?$_com_ptr_t@V?$_com_IIID@USequenceContext@TS@@$1?_GUID_6427d0e0_e410_11d0_93b4_0020af68e893@@3U__s_GUID@@B@@@@AAV?$_com_ptr_t@V?$_com_IIID@UPropertyObject@TS@@$1?_GUID_8d8769a0_09c0_11d1_93bd_0020af68e893@@3U__s_GUID@@B@@@@PAVCTSDatalink@@@Z$32 10027307 f   Statement.obj
 0001:0002630f       __unwindfunclet$??0Statement@@QAE@AAV?$_com_ptr_t@V?$_com_IIID@USequenceContext@TS@@$1?_GUID_6427d0e0_e410_11d0_93b4_0020af68e893@@3U__s_GUID@@B@@@@AAV?$_com_ptr_t@V?$_com_IIID@UPropertyObject@TS@@$1?_GUID_8d8769a0_09c0_11d1_93bd_0020af68e893@@3U__s_GUID@@B@@@@PAVCTSDatalink@@@Z$33 1002730f f   Statement.obj
 0001:00026317       __unwindfunclet$??0Statement@@QAE@AAV?$_com_ptr_t@V?$_com_IIID@USequenceContext@TS@@$1?_GUID_6427d0e0_e410_11d0_93b4_0020af68e893@@3U__s_GUID@@B@@@@AAV?$_com_ptr_t@V?$_com_IIID@UPropertyObject@TS@@$1?_GUID_8d8769a0_09c0_11d1_93bd_0020af68e893@@3U__s_GUID@@B@@@@PAVCTSDatalink@@@Z$34 10027317 f   Statement.obj
 0001:0002631f       __unwindfunclet$??0Statement@@QAE@AAV?$_com_ptr_t@V?$_com_IIID@USequenceContext@TS@@$1?_GUID_6427d0e0_e410_11d0_93b4_0020af68e893@@3U__s_GUID@@B@@@@AAV?$_com_ptr_t@V?$_com_IIID@UPropertyObject@TS@@$1?_GUID_8d8769a0_09c0_11d1_93bd_0020af68e893@@3U__s_GUID@@B@@@@PAVCTSDatalink@@@Z$35 1002731f f   Statement.obj
 0001:00026327       __unwindfunclet$??0Statement@@QAE@AAV?$_com_ptr_t@V?$_com_IIID@USequenceContext@TS@@$1?_GUID_6427d0e0_e410_11d0_93b4_0020af68e893@@3U__s_GUID@@B@@@@AAV?$_com_ptr_t@V?$_com_IIID@UPropertyObject@TS@@$1?_GUID_8d8769a0_09c0_11d1_93bd_0020af68e893@@3U__s_GUID@@B@@@@PAVCTSDatalink@@@Z$36 10027327 f   Statement.obj
 0001:0002632f       __unwindfunclet$??0Statement@@QAE@AAV?$_com_ptr_t@V?$_com_IIID@USequenceContext@TS@@$1?_GUID_6427d0e0_e410_11d0_93b4_0020af68e893@@3U__s_GUID@@B@@@@AAV?$_com_ptr_t@V?$_com_IIID@UPropertyObject@TS@@$1?_GUID_8d8769a0_09c0_11d1_93bd_0020af68e893@@3U__s_GUID@@B@@@@PAVCTSDatalink@@@Z$37 1002732f f   Statement.obj
 0001:00026337       __unwindfunclet$??0Statement@@QAE@AAV?$_com_ptr_t@V?$_com_IIID@USequenceContext@TS@@$1?_GUID_6427d0e0_e410_11d0_93b4_0020af68e893@@3U__s_GUID@@B@@@@AAV?$_com_ptr_t@V?$_com_IIID@UPropertyObject@TS@@$1?_GUID_8d8769a0_09c0_11d1_93bd_0020af68e893@@3U__s_GUID@@B@@@@PAVCTSDatalink@@@Z$38 10027337 f   Statement.obj
 0001:0002633f       __unwindfunclet$??0Statement@@QAE@AAV?$_com_ptr_t@V?$_com_IIID@USequenceContext@TS@@$1?_GUID_6427d0e0_e410_11d0_93b4_0020af68e893@@3U__s_GUID@@B@@@@AAV?$_com_ptr_t@V?$_com_IIID@UPropertyObject@TS@@$1?_GUID_8d8769a0_09c0_11d1_93bd_0020af68e893@@3U__s_GUID@@B@@@@PAVCTSDatalink@@@Z$39 1002733f f   Statement.obj
 0001:00026347       __unwindfunclet$??0Statement@@QAE@AAV?$_com_ptr_t@V?$_com_IIID@USequenceContext@TS@@$1?_GUID_6427d0e0_e410_11d0_93b4_0020af68e893@@3U__s_GUID@@B@@@@AAV?$_com_ptr_t@V?$_com_IIID@UPropertyObject@TS@@$1?_GUID_8d8769a0_09c0_11d1_93bd_0020af68e893@@3U__s_GUID@@B@@@@PAVCTSDatalink@@@Z$40 10027347 f   Statement.obj
 0001:0002634f       __unwindfunclet$??0Statement@@QAE@AAV?$_com_ptr_t@V?$_com_IIID@USequenceContext@TS@@$1?_GUID_6427d0e0_e410_11d0_93b4_0020af68e893@@3U__s_GUID@@B@@@@AAV?$_com_ptr_t@V?$_com_IIID@UPropertyObject@TS@@$1?_GUID_8d8769a0_09c0_11d1_93bd_0020af68e893@@3U__s_GUID@@B@@@@PAVCTSDatalink@@@Z$41 1002734f f   Statement.obj
 0001:00026357       __unwindfunclet$??0Statement@@QAE@AAV?$_com_ptr_t@V?$_com_IIID@USequenceContext@TS@@$1?_GUID_6427d0e0_e410_11d0_93b4_0020af68e893@@3U__s_GUID@@B@@@@AAV?$_com_ptr_t@V?$_com_IIID@UPropertyObject@TS@@$1?_GUID_8d8769a0_09c0_11d1_93bd_0020af68e893@@3U__s_GUID@@B@@@@PAVCTSDatalink@@@Z$42 10027357 f   Statement.obj
 0001:0002635f       __unwindfunclet$??0Statement@@QAE@AAV?$_com_ptr_t@V?$_com_IIID@USequenceContext@TS@@$1?_GUID_6427d0e0_e410_11d0_93b4_0020af68e893@@3U__s_GUID@@B@@@@AAV?$_com_ptr_t@V?$_com_IIID@UPropertyObject@TS@@$1?_GUID_8d8769a0_09c0_11d1_93bd_0020af68e893@@3U__s_GUID@@B@@@@PAVCTSDatalink@@@Z$43 1002735f f   Statement.obj
 0001:00026367       __unwindfunclet$??0Statement@@QAE@AAV?$_com_ptr_t@V?$_com_IIID@USequenceContext@TS@@$1?_GUID_6427d0e0_e410_11d0_93b4_0020af68e893@@3U__s_GUID@@B@@@@AAV?$_com_ptr_t@V?$_com_IIID@UPropertyObject@TS@@$1?_GUID_8d8769a0_09c0_11d1_93bd_0020af68e893@@3U__s_GUID@@B@@@@PAVCTSDatalink@@@Z$44 10027367 f   Statement.obj
 0001:0002636f       __unwindfunclet$??0Statement@@QAE@AAV?$_com_ptr_t@V?$_com_IIID@USequenceContext@TS@@$1?_GUID_6427d0e0_e410_11d0_93b4_0020af68e893@@3U__s_GUID@@B@@@@AAV?$_com_ptr_t@V?$_com_IIID@UPropertyObject@TS@@$1?_GUID_8d8769a0_09c0_11d1_93bd_0020af68e893@@3U__s_GUID@@B@@@@PAVCTSDatalink@@@Z$45 1002736f f   Statement.obj
 0001:00026377       __unwindfunclet$??0Statement@@QAE@AAV?$_com_ptr_t@V?$_com_IIID@USequenceContext@TS@@$1?_GUID_6427d0e0_e410_11d0_93b4_0020af68e893@@3U__s_GUID@@B@@@@AAV?$_com_ptr_t@V?$_com_IIID@UPropertyObject@TS@@$1?_GUID_8d8769a0_09c0_11d1_93bd_0020af68e893@@3U__s_GUID@@B@@@@PAVCTSDatalink@@@Z$46 10027377 f   Statement.obj
 0001:0002637f       __unwindfunclet$??0Statement@@QAE@AAV?$_com_ptr_t@V?$_com_IIID@USequenceContext@TS@@$1?_GUID_6427d0e0_e410_11d0_93b4_0020af68e893@@3U__s_GUID@@B@@@@AAV?$_com_ptr_t@V?$_com_IIID@UPropertyObject@TS@@$1?_GUID_8d8769a0_09c0_11d1_93bd_0020af68e893@@3U__s_GUID@@B@@@@PAVCTSDatalink@@@Z$47 1002737f f   Statement.obj
 0001:00026387       __unwindfunclet$??0Statement@@QAE@AAV?$_com_ptr_t@V?$_com_IIID@USequenceContext@TS@@$1?_GUID_6427d0e0_e410_11d0_93b4_0020af68e893@@3U__s_GUID@@B@@@@AAV?$_com_ptr_t@V?$_com_IIID@UPropertyObject@TS@@$1?_GUID_8d8769a0_09c0_11d1_93bd_0020af68e893@@3U__s_GUID@@B@@@@PAVCTSDatalink@@@Z$48 10027387 f   Statement.obj
 0001:00026392       __unwindfunclet$??0Statement@@QAE@AAV?$_com_ptr_t@V?$_com_IIID@USequenceContext@TS@@$1?_GUID_6427d0e0_e410_11d0_93b4_0020af68e893@@3U__s_GUID@@B@@@@AAV?$_com_ptr_t@V?$_com_IIID@UPropertyObject@TS@@$1?_GUID_8d8769a0_09c0_11d1_93bd_0020af68e893@@3U__s_GUID@@B@@@@PAVCTSDatalink@@@Z$49 10027392 f   Statement.obj
 0001:000263ab       __unwindfunclet$??0Statement@@QAE@AAV?$_com_ptr_t@V?$_com_IIID@USequenceContext@TS@@$1?_GUID_6427d0e0_e410_11d0_93b4_0020af68e893@@3U__s_GUID@@B@@@@AAV?$_com_ptr_t@V?$_com_IIID@UPropertyObject@TS@@$1?_GUID_8d8769a0_09c0_11d1_93bd_0020af68e893@@3U__s_GUID@@B@@@@PAVCTSDatalink@@@Z$58 100273ab f   Statement.obj
 0001:000263b3       __unwindfunclet$??0Statement@@QAE@AAV?$_com_ptr_t@V?$_com_IIID@USequenceContext@TS@@$1?_GUID_6427d0e0_e410_11d0_93b4_0020af68e893@@3U__s_GUID@@B@@@@AAV?$_com_ptr_t@V?$_com_IIID@UPropertyObject@TS@@$1?_GUID_8d8769a0_09c0_11d1_93bd_0020af68e893@@3U__s_GUID@@B@@@@PAVCTSDatalink@@@Z$50 100273b3 f   Statement.obj
 0001:000263bb       __unwindfunclet$??0Statement@@QAE@AAV?$_com_ptr_t@V?$_com_IIID@USequenceContext@TS@@$1?_GUID_6427d0e0_e410_11d0_93b4_0020af68e893@@3U__s_GUID@@B@@@@AAV?$_com_ptr_t@V?$_com_IIID@UPropertyObject@TS@@$1?_GUID_8d8769a0_09c0_11d1_93bd_0020af68e893@@3U__s_GUID@@B@@@@PAVCTSDatalink@@@Z$51 100273bb f   Statement.obj
 0001:000263c3       __unwindfunclet$??0Statement@@QAE@AAV?$_com_ptr_t@V?$_com_IIID@USequenceContext@TS@@$1?_GUID_6427d0e0_e410_11d0_93b4_0020af68e893@@3U__s_GUID@@B@@@@AAV?$_com_ptr_t@V?$_com_IIID@UPropertyObject@TS@@$1?_GUID_8d8769a0_09c0_11d1_93bd_0020af68e893@@3U__s_GUID@@B@@@@PAVCTSDatalink@@@Z$52 100273c3 f   Statement.obj
 0001:000263cb       __unwindfunclet$??0Statement@@QAE@AAV?$_com_ptr_t@V?$_com_IIID@USequenceContext@TS@@$1?_GUID_6427d0e0_e410_11d0_93b4_0020af68e893@@3U__s_GUID@@B@@@@AAV?$_com_ptr_t@V?$_com_IIID@UPropertyObject@TS@@$1?_GUID_8d8769a0_09c0_11d1_93bd_0020af68e893@@3U__s_GUID@@B@@@@PAVCTSDatalink@@@Z$53 100273cb f   Statement.obj
 0001:000263d3       __unwindfunclet$??0Statement@@QAE@AAV?$_com_ptr_t@V?$_com_IIID@USequenceContext@TS@@$1?_GUID_6427d0e0_e410_11d0_93b4_0020af68e893@@3U__s_GUID@@B@@@@AAV?$_com_ptr_t@V?$_com_IIID@UPropertyObject@TS@@$1?_GUID_8d8769a0_09c0_11d1_93bd_0020af68e893@@3U__s_GUID@@B@@@@PAVCTSDatalink@@@Z$54 100273d3 f   Statement.obj
 0001:000263db       __unwindfunclet$??0Statement@@QAE@AAV?$_com_ptr_t@V?$_com_IIID@USequenceContext@TS@@$1?_GUID_6427d0e0_e410_11d0_93b4_0020af68e893@@3U__s_GUID@@B@@@@AAV?$_com_ptr_t@V?$_com_IIID@UPropertyObject@TS@@$1?_GUID_8d8769a0_09c0_11d1_93bd_0020af68e893@@3U__s_GUID@@B@@@@PAVCTSDatalink@@@Z$55 100273db f   Statement.obj
 0001:000263e3       __unwindfunclet$??0Statement@@QAE@AAV?$_com_ptr_t@V?$_com_IIID@USequenceContext@TS@@$1?_GUID_6427d0e0_e410_11d0_93b4_0020af68e893@@3U__s_GUID@@B@@@@AAV?$_com_ptr_t@V?$_com_IIID@UPropertyObject@TS@@$1?_GUID_8d8769a0_09c0_11d1_93bd_0020af68e893@@3U__s_GUID@@B@@@@PAVCTSDatalink@@@Z$56 100273e3 f   Statement.obj
 0001:000263eb       __ehhandler$??0Statement@@QAE@AAV?$_com_ptr_t@V?$_com_IIID@USequenceContext@TS@@$1?_GUID_6427d0e0_e410_11d0_93b4_0020af68e893@@3U__s_GUID@@B@@@@AAV?$_com_ptr_t@V?$_com_IIID@UPropertyObject@TS@@$1?_GUID_8d8769a0_09c0_11d1_93bd_0020af68e893@@3U__s_GUID@@B@@@@PAVCTSDatalink@@@Z 100273eb f   Statement.obj
 0001:00026400       __unwindfunclet$?NewUUT@CTSDatalink@@UAGJPAUIDispatch@@00000@Z$0 10027400 f   TSDatalink.obj
 0001:0002640b       __unwindfunclet$?NewUUT@CTSDatalink@@UAGJPAUIDispatch@@00000@Z$1 1002740b f   TSDatalink.obj
 0001:00026416       __unwindfunclet$?NewUUT@CTSDatalink@@UAGJPAUIDispatch@@00000@Z$2 10027416 f   TSDatalink.obj
 0001:00026421       __unwindfunclet$?NewUUT@CTSDatalink@@UAGJPAUIDispatch@@00000@Z$3 10027421 f   TSDatalink.obj
 0001:0002642c       __unwindfunclet$?NewUUT@CTSDatalink@@UAGJPAUIDispatch@@00000@Z$4 1002742c f   TSDatalink.obj
 0001:00026437       __unwindfunclet$?NewUUT@CTSDatalink@@UAGJPAUIDispatch@@00000@Z$5 10027437 f   TSDatalink.obj
 0001:00026442       __unwindfunclet$?NewUUT@CTSDatalink@@UAGJPAUIDispatch@@00000@Z$6 10027442 f   TSDatalink.obj
 0001:0002644d       __unwindfunclet$?NewUUT@CTSDatalink@@UAGJPAUIDispatch@@00000@Z$7 1002744d f   TSDatalink.obj
 0001:00026458       __unwindfunclet$?NewUUT@CTSDatalink@@UAGJPAUIDispatch@@00000@Z$8 10027458 f   TSDatalink.obj
 0001:00026463       __ehhandler$?NewUUT@CTSDatalink@@UAGJPAUIDispatch@@00000@Z 10027463 f   TSDatalink.obj
 0001:00026470       __unwindfunclet$??1PropertyInfo@@QAE@XZ$0 10027470 f   TSDatalink.obj
 0001:00026470       __unwindfunclet$??0PropertyInfo@@QAE@AAV?$_com_ptr_t@V?$_com_IIID@UPropertyObject@TS@@$1?_GUID_8d8769a0_09c0_11d1_93bd_0020af68e893@@3U__s_GUID@@B@@@@@Z$0 10027470 f   TSDatalink.obj
 0001:00026478       __unwindfunclet$??1PropertyInfo@@QAE@XZ$1 10027478 f   TSDatalink.obj
 0001:00026478       __unwindfunclet$??0PropertyInfo@@QAE@AAV?$_com_ptr_t@V?$_com_IIID@UPropertyObject@TS@@$1?_GUID_8d8769a0_09c0_11d1_93bd_0020af68e893@@3U__s_GUID@@B@@@@@Z$1 10027478 f   TSDatalink.obj
 0001:00026483       __ehhandler$??1PropertyInfo@@QAE@XZ 10027483 f   TSDatalink.obj
 0001:00026483       __ehhandler$??0PropertyInfo@@QAE@AAV?$_com_ptr_t@V?$_com_IIID@UPropertyObject@TS@@$1?_GUID_8d8769a0_09c0_11d1_93bd_0020af68e893@@3U__s_GUID@@B@@@@@Z 10027483 f   TSDatalink.obj
 0001:00026490       __unwindfunclet$??0PropertyInfo@@QAE@AAV0@AAV?$_com_ptr_t@V?$_com_IIID@UPropertyObject@TS@@$1?_GUID_8d8769a0_09c0_11d1_93bd_0020af68e893@@3U__s_GUID@@B@@@@V_bstr_t@@@Z$0 10027490 f   TSDatalink.obj
 0001:00026498       __unwindfunclet$??0PropertyInfo@@QAE@AAV0@AAV?$_com_ptr_t@V?$_com_IIID@UPropertyObject@TS@@$1?_GUID_8d8769a0_09c0_11d1_93bd_0020af68e893@@3U__s_GUID@@B@@@@V_bstr_t@@@Z$1 10027498 f   TSDatalink.obj
 0001:000264a0       __unwindfunclet$??0PropertyInfo@@QAE@AAV0@AAV?$_com_ptr_t@V?$_com_IIID@UPropertyObject@TS@@$1?_GUID_8d8769a0_09c0_11d1_93bd_0020af68e893@@3U__s_GUID@@B@@@@V_bstr_t@@@Z$2 100274a0 f   TSDatalink.obj
 0001:000264ab       __unwindfunclet$??0PropertyInfo@@QAE@AAV0@AAV?$_com_ptr_t@V?$_com_IIID@UPropertyObject@TS@@$1?_GUID_8d8769a0_09c0_11d1_93bd_0020af68e893@@3U__s_GUID@@B@@@@V_bstr_t@@@Z$3 100274ab f   TSDatalink.obj
 0001:000264c4       __unwindfunclet$??0PropertyInfo@@QAE@AAV0@AAV?$_com_ptr_t@V?$_com_IIID@UPropertyObject@TS@@$1?_GUID_8d8769a0_09c0_11d1_93bd_0020af68e893@@3U__s_GUID@@B@@@@V_bstr_t@@@Z$4 100274c4 f   TSDatalink.obj
 0001:000264dd       __unwindfunclet$??0PropertyInfo@@QAE@AAV0@AAV?$_com_ptr_t@V?$_com_IIID@UPropertyObject@TS@@$1?_GUID_8d8769a0_09c0_11d1_93bd_0020af68e893@@3U__s_GUID@@B@@@@V_bstr_t@@@Z$5 100274dd f   TSDatalink.obj
 0001:000264e5       __unwindfunclet$??0PropertyInfo@@QAE@AAV0@AAV?$_com_ptr_t@V?$_com_IIID@UPropertyObject@TS@@$1?_GUID_8d8769a0_09c0_11d1_93bd_0020af68e893@@3U__s_GUID@@B@@@@V_bstr_t@@@Z$6 100274e5 f   TSDatalink.obj
 0001:000264ed       __ehhandler$??0PropertyInfo@@QAE@AAV0@AAV?$_com_ptr_t@V?$_com_IIID@UPropertyObject@TS@@$1?_GUID_8d8769a0_09c0_11d1_93bd_0020af68e893@@3U__s_GUID@@B@@@@V_bstr_t@@@Z 100274ed f   TSDatalink.obj
 0001:00026500       __unwindfunclet$?UpdateLoggingInfo@PropertyInfo@@QAEXAAVLoggingInfo@@@Z$0 10027500 f   TSDatalink.obj
 0001:00026508       __unwindfunclet$?UpdateLoggingInfo@PropertyInfo@@QAEXAAVLoggingInfo@@@Z$1 10027508 f   TSDatalink.obj
 0001:00026510       __ehhandler$?UpdateLoggingInfo@PropertyInfo@@QAEXAAVLoggingInfo@@@Z 10027510 f   TSDatalink.obj
 0001:00026520       __unwindfunclet$??1CTSDatalink@@QAE@XZ$2 10027520 f   TSDatalink.obj
 0001:0002652b       __unwindfunclet$??1CTSDatalink@@QAE@XZ$3 1002752b f   TSDatalink.obj
 0001:00026536       __unwindfunclet$??1CTSDatalink@@QAE@XZ$4 10027536 f   TSDatalink.obj
 0001:00026541       __unwindfunclet$??1CTSDatalink@@QAE@XZ$5 10027541 f   TSDatalink.obj
 0001:0002654c       __unwindfunclet$??1CTSDatalink@@QAE@XZ$6 1002754c f   TSDatalink.obj
 0001:00026557       __unwindfunclet$??1CTSDatalink@@QAE@XZ$7 10027557 f   TSDatalink.obj
 0001:00026562       __unwindfunclet$??1CTSDatalink@@QAE@XZ$8 10027562 f   TSDatalink.obj
 0001:0002656d       __unwindfunclet$??1CTSDatalink@@QAE@XZ$9 1002756d f   TSDatalink.obj
 0001:00026578       __unwindfunclet$??1CTSDatalink@@QAE@XZ$10 10027578 f   TSDatalink.obj
 0001:00026580       __ehhandler$??1CTSDatalink@@QAE@XZ 10027580 f   TSDatalink.obj
 0001:00026590       __unwindfunclet$?SetRuntimeBooleans@CTSDatalink@@UAGJPAUIDispatch@@0@Z$0 10027590 f   TSDatalink.obj
 0001:00026598       __unwindfunclet$?SetRuntimeBooleans@CTSDatalink@@UAGJPAUIDispatch@@0@Z$1 10027598 f   TSDatalink.obj
 0001:000265a0       __unwindfunclet$?SetRuntimeBooleans@CTSDatalink@@UAGJPAUIDispatch@@0@Z$14 100275a0 f   TSDatalink.obj
 0001:000265ab       __unwindfunclet$?SetRuntimeBooleans@CTSDatalink@@UAGJPAUIDispatch@@0@Z$2 100275ab f   TSDatalink.obj
 0001:000265b3       __unwindfunclet$?SetRuntimeBooleans@CTSDatalink@@UAGJPAUIDispatch@@0@Z$15 100275b3 f   TSDatalink.obj
 0001:000265be       __unwindfunclet$?SetRuntimeBooleans@CTSDatalink@@UAGJPAUIDispatch@@0@Z$3 100275be f   TSDatalink.obj
 0001:000265c6       __unwindfunclet$?SetRuntimeBooleans@CTSDatalink@@UAGJPAUIDispatch@@0@Z$16 100275c6 f   TSDatalink.obj
 0001:000265d1       __unwindfunclet$?SetRuntimeBooleans@CTSDatalink@@UAGJPAUIDispatch@@0@Z$4 100275d1 f   TSDatalink.obj
 0001:000265d9       __unwindfunclet$?SetRuntimeBooleans@CTSDatalink@@UAGJPAUIDispatch@@0@Z$17 100275d9 f   TSDatalink.obj
 0001:000265e4       __unwindfunclet$?SetRuntimeBooleans@CTSDatalink@@UAGJPAUIDispatch@@0@Z$5 100275e4 f   TSDatalink.obj
 0001:000265ec       __unwindfunclet$?SetRuntimeBooleans@CTSDatalink@@UAGJPAUIDispatch@@0@Z$18 100275ec f   TSDatalink.obj
 0001:000265f7       __unwindfunclet$?SetRuntimeBooleans@CTSDatalink@@UAGJPAUIDispatch@@0@Z$6 100275f7 f   TSDatalink.obj
 0001:000265ff       __unwindfunclet$?SetRuntimeBooleans@CTSDatalink@@UAGJPAUIDispatch@@0@Z$7 100275ff f   TSDatalink.obj
 0001:00026607       __unwindfunclet$?SetRuntimeBooleans@CTSDatalink@@UAGJPAUIDispatch@@0@Z$19 10027607 f   TSDatalink.obj
 0001:00026612       __unwindfunclet$?SetRuntimeBooleans@CTSDatalink@@UAGJPAUIDispatch@@0@Z$8 10027612 f   TSDatalink.obj
 0001:0002661a       __unwindfunclet$?SetRuntimeBooleans@CTSDatalink@@UAGJPAUIDispatch@@0@Z$20 1002761a f   TSDatalink.obj
 0001:00026625       __unwindfunclet$?SetRuntimeBooleans@CTSDatalink@@UAGJPAUIDispatch@@0@Z$9 10027625 f   TSDatalink.obj
 0001:0002662d       __unwindfunclet$?SetRuntimeBooleans@CTSDatalink@@UAGJPAUIDispatch@@0@Z$21 1002762d f   TSDatalink.obj
 0001:00026638       __unwindfunclet$?SetRuntimeBooleans@CTSDatalink@@UAGJPAUIDispatch@@0@Z$10 10027638 f   TSDatalink.obj
 0001:00026640       __unwindfunclet$?SetRuntimeBooleans@CTSDatalink@@UAGJPAUIDispatch@@0@Z$11 10027640 f   TSDatalink.obj
 0001:00026659       __unwindfunclet$?SetRuntimeBooleans@CTSDatalink@@UAGJPAUIDispatch@@0@Z$12 10027659 f   TSDatalink.obj
 0001:00026672       __unwindfunclet$?SetRuntimeBooleans@CTSDatalink@@UAGJPAUIDispatch@@0@Z$13 10027672 f   TSDatalink.obj
 0001:0002668b       __ehhandler$?SetRuntimeBooleans@CTSDatalink@@UAGJPAUIDispatch@@0@Z 1002768b f   TSDatalink.obj
 0001:000266a0       __unwindfunclet$?GetDateDataType@CTSDatalink@@QAE?AW4DataTypeEnum@@XZ$0 100276a0 f   TSDatalink.obj
 0001:000266a8       __unwindfunclet$?GetDateDataType@CTSDatalink@@QAE?AW4DataTypeEnum@@XZ$1 100276a8 f   TSDatalink.obj
 0001:000266b1       __ehhandler$?GetDateDataType@CTSDatalink@@QAE?AW4DataTypeEnum@@XZ 100276b1 f   TSDatalink.obj
 0001:000266c0       __unwindfunclet$?LogUUTResult@CTSDatalink@@UAGJPAUIDispatch@@0@Z$3 100276c0 f   TSDatalink.obj
 0001:000266c8       __unwindfunclet$?LogUUTResult@CTSDatalink@@UAGJPAUIDispatch@@0@Z$4 100276c8 f   TSDatalink.obj
 0001:000266d0       __unwindfunclet$?LogUUTResult@CTSDatalink@@UAGJPAUIDispatch@@0@Z$5 100276d0 f   TSDatalink.obj
 0001:000266d8       __unwindfunclet$?LogUUTResult@CTSDatalink@@UAGJPAUIDispatch@@0@Z$6 100276d8 f   TSDatalink.obj
 0001:000266e3       __unwindfunclet$?LogUUTResult@CTSDatalink@@UAGJPAUIDispatch@@0@Z$8 100276e3 f   TSDatalink.obj
 0001:000266eb       __ehhandler$?LogUUTResult@CTSDatalink@@UAGJPAUIDispatch@@0@Z 100276eb f   TSDatalink.obj
 0001:00026700       __unwindfunclet$?Initialize@CTSDatalink@@UAGJPAUIDispatch@@0@Z$6 10027700 f   TSDatalink.obj
 0001:0002670b       __unwindfunclet$?Initialize@CTSDatalink@@UAGJPAUIDispatch@@0@Z$7 1002770b f   TSDatalink.obj
 0001:00026713       __unwindfunclet$?Initialize@CTSDatalink@@UAGJPAUIDispatch@@0@Z$8 10027713 f   TSDatalink.obj
 0001:0002671b       __unwindfunclet$?Initialize@CTSDatalink@@UAGJPAUIDispatch@@0@Z$48 1002771b f   TSDatalink.obj
 0001:00026723       __unwindfunclet$?Initialize@CTSDatalink@@UAGJPAUIDispatch@@0@Z$9 10027723 f   TSDatalink.obj
 0001:0002672b       __unwindfunclet$?Initialize@CTSDatalink@@UAGJPAUIDispatch@@0@Z$10 1002772b f   TSDatalink.obj
 0001:00026733       __unwindfunclet$?Initialize@CTSDatalink@@UAGJPAUIDispatch@@0@Z$11 10027733 f   TSDatalink.obj
 0001:0002673b       __unwindfunclet$?Initialize@CTSDatalink@@UAGJPAUIDispatch@@0@Z$12 1002773b f   TSDatalink.obj
 0001:00026743       __unwindfunclet$?Initialize@CTSDatalink@@UAGJPAUIDispatch@@0@Z$13 10027743 f   TSDatalink.obj
 0001:0002674b       __unwindfunclet$?Initialize@CTSDatalink@@UAGJPAUIDispatch@@0@Z$14 1002774b f   TSDatalink.obj
 0001:00026753       __unwindfunclet$?Initialize@CTSDatalink@@UAGJPAUIDispatch@@0@Z$15 10027753 f   TSDatalink.obj
 0001:0002675b       __unwindfunclet$?Initialize@CTSDatalink@@UAGJPAUIDispatch@@0@Z$16 1002775b f   TSDatalink.obj
 0001:00026763       __unwindfunclet$?Initialize@CTSDatalink@@UAGJPAUIDispatch@@0@Z$17 10027763 f   TSDatalink.obj
 0001:0002676c       __unwindfunclet$?Initialize@CTSDatalink@@UAGJPAUIDispatch@@0@Z$18 1002776c f   TSDatalink.obj
 0001:00026775       __unwindfunclet$?Initialize@CTSDatalink@@UAGJPAUIDispatch@@0@Z$19 10027775 f   TSDatalink.obj
 0001:0002677d       __unwindfunclet$?Initialize@CTSDatalink@@UAGJPAUIDispatch@@0@Z$20 1002777d f   TSDatalink.obj
 0001:00026785       __unwindfunclet$?Initialize@CTSDatalink@@UAGJPAUIDispatch@@0@Z$21 10027785 f   TSDatalink.obj
 0001:0002678d       __unwindfunclet$?Initialize@CTSDatalink@@UAGJPAUIDispatch@@0@Z$22 1002778d f   TSDatalink.obj
 0001:00026796       __unwindfunclet$?Initialize@CTSDatalink@@UAGJPAUIDispatch@@0@Z$23 10027796 f   TSDatalink.obj
 0001:000267af       __unwindfunclet$?Initialize@CTSDatalink@@UAGJPAUIDispatch@@0@Z$24 100277af f   TSDatalink.obj
 0001:000267c8       __unwindfunclet$?Initialize@CTSDatalink@@UAGJPAUIDispatch@@0@Z$25 100277c8 f   TSDatalink.obj
 0001:000267d0       __unwindfunclet$?Initialize@CTSDatalink@@UAGJPAUIDispatch@@0@Z$26 100277d0 f   TSDatalink.obj
 0001:000267d9       __unwindfunclet$?Initialize@CTSDatalink@@UAGJPAUIDispatch@@0@Z$27 100277d9 f   TSDatalink.obj
 0001:000267e1       __unwindfunclet$?Initialize@CTSDatalink@@UAGJPAUIDispatch@@0@Z$28 100277e1 f   TSDatalink.obj
 0001:000267e9       __unwindfunclet$?Initialize@CTSDatalink@@UAGJPAUIDispatch@@0@Z$29 100277e9 f   TSDatalink.obj
 0001:000267f1       __unwindfunclet$?Initialize@CTSDatalink@@UAGJPAUIDispatch@@0@Z$30 100277f1 f   TSDatalink.obj
 0001:000267f9       __unwindfunclet$?Initialize@CTSDatalink@@UAGJPAUIDispatch@@0@Z$31 100277f9 f   TSDatalink.obj
 0001:00026801       __unwindfunclet$?Initialize@CTSDatalink@@UAGJPAUIDispatch@@0@Z$38 10027801 f   TSDatalink.obj
 0001:00026809       __unwindfunclet$?Initialize@CTSDatalink@@UAGJPAUIDispatch@@0@Z$39 10027809 f   TSDatalink.obj
 0001:00026811       __unwindfunclet$?Initialize@CTSDatalink@@UAGJPAUIDispatch@@0@Z$42 10027811 f   TSDatalink.obj
 0001:00026819       __unwindfunclet$?Initialize@CTSDatalink@@UAGJPAUIDispatch@@0@Z$43 10027819 f   TSDatalink.obj
 0001:00026821       __unwindfunclet$?Initialize@CTSDatalink@@UAGJPAUIDispatch@@0@Z$44 10027821 f   TSDatalink.obj
 0001:00026829       __unwindfunclet$?Initialize@CTSDatalink@@UAGJPAUIDispatch@@0@Z$45 10027829 f   TSDatalink.obj
 0001:00026831       __unwindfunclet$?Initialize@CTSDatalink@@UAGJPAUIDispatch@@0@Z$46 10027831 f   TSDatalink.obj
 0001:00026839       __unwindfunclet$?Initialize@CTSDatalink@@UAGJPAUIDispatch@@0@Z$47 10027839 f   TSDatalink.obj
 0001:00026844       __unwindfunclet$?Initialize@CTSDatalink@@UAGJPAUIDispatch@@0@Z$41 10027844 f   TSDatalink.obj
 0001:0002684c       __unwindfunclet$?Initialize@CTSDatalink@@UAGJPAUIDispatch@@0@Z$32 1002784c f   TSDatalink.obj
 0001:00026854       __unwindfunclet$?Initialize@CTSDatalink@@UAGJPAUIDispatch@@0@Z$33 10027854 f   TSDatalink.obj
 0001:0002685c       __unwindfunclet$?Initialize@CTSDatalink@@UAGJPAUIDispatch@@0@Z$34 1002785c f   TSDatalink.obj
 0001:00026864       __unwindfunclet$?Initialize@CTSDatalink@@UAGJPAUIDispatch@@0@Z$35 10027864 f   TSDatalink.obj
 0001:0002686c       __unwindfunclet$?Initialize@CTSDatalink@@UAGJPAUIDispatch@@0@Z$36 1002786c f   TSDatalink.obj
 0001:00026874       __unwindfunclet$?Initialize@CTSDatalink@@UAGJPAUIDispatch@@0@Z$37 10027874 f   TSDatalink.obj
 0001:0002687c       __ehhandler$?Initialize@CTSDatalink@@UAGJPAUIDispatch@@0@Z 1002787c f   TSDatalink.obj
 0001:00026890       __unwindfunclet$?RecursePropertyResults@CTSDatalink@@AAEXAAVLoggingInfo@@AAVPropertyInfo@@J@Z$22 10027890 f   TSDatalink.obj
 0001:0002689b       __unwindfunclet$?RecursePropertyResults@CTSDatalink@@AAEXAAVLoggingInfo@@AAVPropertyInfo@@J@Z$0 1002789b f   TSDatalink.obj
 0001:000268a3       __unwindfunclet$?RecursePropertyResults@CTSDatalink@@AAEXAAVLoggingInfo@@AAVPropertyInfo@@J@Z$1 100278a3 f   TSDatalink.obj
 0001:000268ab       __unwindfunclet$?RecursePropertyResults@CTSDatalink@@AAEXAAVLoggingInfo@@AAVPropertyInfo@@J@Z$2 100278ab f   TSDatalink.obj
 0001:000268b3       __unwindfunclet$?RecursePropertyResults@CTSDatalink@@AAEXAAVLoggingInfo@@AAVPropertyInfo@@J@Z$3 100278b3 f   TSDatalink.obj
 0001:000268bb       __unwindfunclet$?RecursePropertyResults@CTSDatalink@@AAEXAAVLoggingInfo@@AAVPropertyInfo@@J@Z$4 100278bb f   TSDatalink.obj
 0001:000268c3       __unwindfunclet$?RecursePropertyResults@CTSDatalink@@AAEXAAVLoggingInfo@@AAVPropertyInfo@@J@Z$5 100278c3 f   TSDatalink.obj
 0001:000268cb       __unwindfunclet$?RecursePropertyResults@CTSDatalink@@AAEXAAVLoggingInfo@@AAVPropertyInfo@@J@Z$6 100278cb f   TSDatalink.obj
 0001:000268d3       __unwindfunclet$?RecursePropertyResults@CTSDatalink@@AAEXAAVLoggingInfo@@AAVPropertyInfo@@J@Z$7 100278d3 f   TSDatalink.obj
 0001:000268db       __unwindfunclet$?RecursePropertyResults@CTSDatalink@@AAEXAAVLoggingInfo@@AAVPropertyInfo@@J@Z$8 100278db f   TSDatalink.obj
 0001:000268e3       __unwindfunclet$?RecursePropertyResults@CTSDatalink@@AAEXAAVLoggingInfo@@AAVPropertyInfo@@J@Z$9 100278e3 f   TSDatalink.obj
 0001:000268eb       __unwindfunclet$?RecursePropertyResults@CTSDatalink@@AAEXAAVLoggingInfo@@AAVPropertyInfo@@J@Z$10 100278eb f   TSDatalink.obj
 0001:000268f3       __unwindfunclet$?RecursePropertyResults@CTSDatalink@@AAEXAAVLoggingInfo@@AAVPropertyInfo@@J@Z$11 100278f3 f   TSDatalink.obj
 0001:000268fb       __unwindfunclet$?RecursePropertyResults@CTSDatalink@@AAEXAAVLoggingInfo@@AAVPropertyInfo@@J@Z$12 100278fb f   TSDatalink.obj
 0001:00026903       __unwindfunclet$?RecursePropertyResults@CTSDatalink@@AAEXAAVLoggingInfo@@AAVPropertyInfo@@J@Z$13 10027903 f   TSDatalink.obj
 0001:0002690b       __unwindfunclet$?RecursePropertyResults@CTSDatalink@@AAEXAAVLoggingInfo@@AAVPropertyInfo@@J@Z$14 1002790b f   TSDatalink.obj
 0001:00026913       __unwindfunclet$?RecursePropertyResults@CTSDatalink@@AAEXAAVLoggingInfo@@AAVPropertyInfo@@J@Z$15 10027913 f   TSDatalink.obj
 0001:0002691b       __unwindfunclet$?RecursePropertyResults@CTSDatalink@@AAEXAAVLoggingInfo@@AAVPropertyInfo@@J@Z$16 1002791b f   TSDatalink.obj
 0001:00026923       __unwindfunclet$?RecursePropertyResults@CTSDatalink@@AAEXAAVLoggingInfo@@AAVPropertyInfo@@J@Z$17 10027923 f   TSDatalink.obj
 0001:0002693c       __unwindfunclet$?RecursePropertyResults@CTSDatalink@@AAEXAAVLoggingInfo@@AAVPropertyInfo@@J@Z$18 1002793c f   TSDatalink.obj
 0001:00026944       __unwindfunclet$?RecursePropertyResults@CTSDatalink@@AAEXAAVLoggingInfo@@AAVPropertyInfo@@J@Z$19 10027944 f   TSDatalink.obj
 0001:0002694c       __unwindfunclet$?RecursePropertyResults@CTSDatalink@@AAEXAAVLoggingInfo@@AAVPropertyInfo@@J@Z$20 1002794c f   TSDatalink.obj
 0001:00026954       __unwindfunclet$?RecursePropertyResults@CTSDatalink@@AAEXAAVLoggingInfo@@AAVPropertyInfo@@J@Z$21 10027954 f   TSDatalink.obj
 0001:0002695c       __ehhandler$?RecursePropertyResults@CTSDatalink@@AAEXAAVLoggingInfo@@AAVPropertyInfo@@J@Z 1002795c f   TSDatalink.obj
 0001:00026970       __unwindfunclet$?LogOneResult@CTSDatalink@@UAGJPAUIDispatch@@0@Z$3 10027970 f   TSDatalink.obj
 0001:00026978       __unwindfunclet$?LogOneResult@CTSDatalink@@UAGJPAUIDispatch@@0@Z$4 10027978 f   TSDatalink.obj
 0001:00026980       __unwindfunclet$?LogOneResult@CTSDatalink@@UAGJPAUIDispatch@@0@Z$5 10027980 f   TSDatalink.obj
 0001:00026988       __unwindfunclet$?LogOneResult@CTSDatalink@@UAGJPAUIDispatch@@0@Z$6 10027988 f   TSDatalink.obj
 0001:00026990       __unwindfunclet$?LogOneResult@CTSDatalink@@UAGJPAUIDispatch@@0@Z$7 10027990 f   TSDatalink.obj
 0001:0002699b       __unwindfunclet$?LogOneResult@CTSDatalink@@UAGJPAUIDispatch@@0@Z$8 1002799b f   TSDatalink.obj
 0001:000269a3       __unwindfunclet$?LogOneResult@CTSDatalink@@UAGJPAUIDispatch@@0@Z$9 100279a3 f   TSDatalink.obj
 0001:000269ab       __unwindfunclet$?LogOneResult@CTSDatalink@@UAGJPAUIDispatch@@0@Z$10 100279ab f   TSDatalink.obj
 0001:000269b3       __unwindfunclet$?LogOneResult@CTSDatalink@@UAGJPAUIDispatch@@0@Z$12 100279b3 f   TSDatalink.obj
 0001:000269bb       __ehhandler$?LogOneResult@CTSDatalink@@UAGJPAUIDispatch@@0@Z 100279bb f   TSDatalink.obj
 0001:000269d0       __unwindfunclet$??0CTSDatalink@@QAE@XZ$13 100279d0 f   TSDatalink.obj
 0001:000269d8       __unwindfunclet$??0CTSDatalink@@QAE@XZ$12 100279d8 f   TSDatalink.obj
 0001:000269e3       __unwindfunclet$??0CTSDatalink@@QAE@XZ$2 100279e3 f   TSDatalink.obj
 0001:000269ee       __unwindfunclet$??0CTSDatalink@@QAE@XZ$3 100279ee f   TSDatalink.obj
 0001:000269f9       __unwindfunclet$??0CTSDatalink@@QAE@XZ$4 100279f9 f   TSDatalink.obj
 0001:00026a04       __unwindfunclet$??0CTSDatalink@@QAE@XZ$5 10027a04 f   TSDatalink.obj
 0001:00026a0f       __unwindfunclet$??0CTSDatalink@@QAE@XZ$6 10027a0f f   TSDatalink.obj
 0001:00026a1a       __unwindfunclet$??0CTSDatalink@@QAE@XZ$7 10027a1a f   TSDatalink.obj
 0001:00026a25       __unwindfunclet$??0CTSDatalink@@QAE@XZ$8 10027a25 f   TSDatalink.obj
 0001:00026a30       __unwindfunclet$??0CTSDatalink@@QAE@XZ$9 10027a30 f   TSDatalink.obj
 0001:00026a38       __unwindfunclet$??0CTSDatalink@@QAE@XZ$10 10027a38 f   TSDatalink.obj
 0001:00026a40       __unwindfunclet$??0CTSDatalink@@QAE@XZ$11 10027a40 f   TSDatalink.obj
 0001:00026a48       __ehhandler$??0CTSDatalink@@QAE@XZ 10027a48 f   TSDatalink.obj
 0001:00026a60       __unwindfunclet$?RecurseResultsTree@CTSDatalink@@AAEXAAVLoggingInfo@@H@Z$4 10027a60 f   TSDatalink.obj
 0001:00026a68       __unwindfunclet$?RecurseResultsTree@CTSDatalink@@AAEXAAVLoggingInfo@@H@Z$5 10027a68 f   TSDatalink.obj
 0001:00026a70       __unwindfunclet$?RecurseResultsTree@CTSDatalink@@AAEXAAVLoggingInfo@@H@Z$6 10027a70 f   TSDatalink.obj
 0001:00026a78       __unwindfunclet$?RecurseResultsTree@CTSDatalink@@AAEXAAVLoggingInfo@@H@Z$7 10027a78 f   TSDatalink.obj
 0001:00026a80       __unwindfunclet$?RecurseResultsTree@CTSDatalink@@AAEXAAVLoggingInfo@@H@Z$8 10027a80 f   TSDatalink.obj
 0001:00026a88       __unwindfunclet$?RecurseResultsTree@CTSDatalink@@AAEXAAVLoggingInfo@@H@Z$9 10027a88 f   TSDatalink.obj
 0001:00026a90       __unwindfunclet$?RecurseResultsTree@CTSDatalink@@AAEXAAVLoggingInfo@@H@Z$10 10027a90 f   TSDatalink.obj
 0001:00026a98       __unwindfunclet$?RecurseResultsTree@CTSDatalink@@AAEXAAVLoggingInfo@@H@Z$11 10027a98 f   TSDatalink.obj
 0001:00026aa0       __unwindfunclet$?RecurseResultsTree@CTSDatalink@@AAEXAAVLoggingInfo@@H@Z$12 10027aa0 f   TSDatalink.obj
 0001:00026aa8       __unwindfunclet$?RecurseResultsTree@CTSDatalink@@AAEXAAVLoggingInfo@@H@Z$13 10027aa8 f   TSDatalink.obj
 0001:00026ab0       __unwindfunclet$?RecurseResultsTree@CTSDatalink@@AAEXAAVLoggingInfo@@H@Z$14 10027ab0 f   TSDatalink.obj
 0001:00026ab8       __unwindfunclet$?RecurseResultsTree@CTSDatalink@@AAEXAAVLoggingInfo@@H@Z$15 10027ab8 f   TSDatalink.obj
 0001:00026ac0       __unwindfunclet$?RecurseResultsTree@CTSDatalink@@AAEXAAVLoggingInfo@@H@Z$16 10027ac0 f   TSDatalink.obj
 0001:00026ac8       __unwindfunclet$?RecurseResultsTree@CTSDatalink@@AAEXAAVLoggingInfo@@H@Z$17 10027ac8 f   TSDatalink.obj
 0001:00026ad0       __unwindfunclet$?RecurseResultsTree@CTSDatalink@@AAEXAAVLoggingInfo@@H@Z$18 10027ad0 f   TSDatalink.obj
 0001:00026ad8       __unwindfunclet$?RecurseResultsTree@CTSDatalink@@AAEXAAVLoggingInfo@@H@Z$19 10027ad8 f   TSDatalink.obj
 0001:00026ae0       __unwindfunclet$?RecurseResultsTree@CTSDatalink@@AAEXAAVLoggingInfo@@H@Z$20 10027ae0 f   TSDatalink.obj
 0001:00026ae8       __unwindfunclet$?RecurseResultsTree@CTSDatalink@@AAEXAAVLoggingInfo@@H@Z$21 10027ae8 f   TSDatalink.obj
 0001:00026af0       __unwindfunclet$?RecurseResultsTree@CTSDatalink@@AAEXAAVLoggingInfo@@H@Z$22 10027af0 f   TSDatalink.obj
 0001:00026af8       __ehhandler$?RecurseResultsTree@CTSDatalink@@AAEXAAVLoggingInfo@@H@Z 10027af8 f   TSDatalink.obj
 0001:00026b10       __unwindfunclet$?LogResults@CTSDatalink@@UAGJPAUIDispatch@@0@Z$14 10027b10 f   TSDatalink.obj
 0001:00026b18       __unwindfunclet$?LogResults@CTSDatalink@@UAGJPAUIDispatch@@0@Z$15 10027b18 f   TSDatalink.obj
 0001:00026b20       __unwindfunclet$?LogResults@CTSDatalink@@UAGJPAUIDispatch@@0@Z$16 10027b20 f   TSDatalink.obj
 0001:00026b28       __unwindfunclet$?LogResults@CTSDatalink@@UAGJPAUIDispatch@@0@Z$17 10027b28 f   TSDatalink.obj
 0001:00026b33       __unwindfunclet$?LogResults@CTSDatalink@@UAGJPAUIDispatch@@0@Z$18 10027b33 f   TSDatalink.obj
 0001:00026b3b       __unwindfunclet$?LogResults@CTSDatalink@@UAGJPAUIDispatch@@0@Z$19 10027b3b f   TSDatalink.obj
 0001:00026b43       __unwindfunclet$?LogResults@CTSDatalink@@UAGJPAUIDispatch@@0@Z$20 10027b43 f   TSDatalink.obj
 0001:00026b4b       __unwindfunclet$?LogResults@CTSDatalink@@UAGJPAUIDispatch@@0@Z$21 10027b4b f   TSDatalink.obj
 0001:00026b53       __unwindfunclet$?LogResults@CTSDatalink@@UAGJPAUIDispatch@@0@Z$22 10027b53 f   TSDatalink.obj
 0001:00026b5b       __unwindfunclet$?LogResults@CTSDatalink@@UAGJPAUIDispatch@@0@Z$23 10027b5b f   TSDatalink.obj
 0001:00026b63       __unwindfunclet$?LogResults@CTSDatalink@@UAGJPAUIDispatch@@0@Z$24 10027b63 f   TSDatalink.obj
 0001:00026b6b       __unwindfunclet$?LogResults@CTSDatalink@@UAGJPAUIDispatch@@0@Z$25 10027b6b f   TSDatalink.obj
 0001:00026b73       __unwindfunclet$?LogResults@CTSDatalink@@UAGJPAUIDispatch@@0@Z$26 10027b73 f   TSDatalink.obj
 0001:00026b7b       __unwindfunclet$?LogResults@CTSDatalink@@UAGJPAUIDispatch@@0@Z$27 10027b7b f   TSDatalink.obj
 0001:00026b83       __unwindfunclet$?LogResults@CTSDatalink@@UAGJPAUIDispatch@@0@Z$28 10027b83 f   TSDatalink.obj
 0001:00026b8b       __unwindfunclet$?LogResults@CTSDatalink@@UAGJPAUIDispatch@@0@Z$29 10027b8b f   TSDatalink.obj
 0001:00026b93       __unwindfunclet$?LogResults@CTSDatalink@@UAGJPAUIDispatch@@0@Z$30 10027b93 f   TSDatalink.obj
 0001:00026b9b       __unwindfunclet$?LogResults@CTSDatalink@@UAGJPAUIDispatch@@0@Z$31 10027b9b f   TSDatalink.obj
 0001:00026ba3       __unwindfunclet$?LogResults@CTSDatalink@@UAGJPAUIDispatch@@0@Z$32 10027ba3 f   TSDatalink.obj
 0001:00026bab       __unwindfunclet$?LogResults@CTSDatalink@@UAGJPAUIDispatch@@0@Z$33 10027bab f   TSDatalink.obj
 0001:00026bb3       __unwindfunclet$?LogResults@CTSDatalink@@UAGJPAUIDispatch@@0@Z$34 10027bb3 f   TSDatalink.obj
 0001:00026bbb       __unwindfunclet$?LogResults@CTSDatalink@@UAGJPAUIDispatch@@0@Z$35 10027bbb f   TSDatalink.obj
 0001:00026bc3       __unwindfunclet$?LogResults@CTSDatalink@@UAGJPAUIDispatch@@0@Z$36 10027bc3 f   TSDatalink.obj
 0001:00026bcb       __unwindfunclet$?LogResults@CTSDatalink@@UAGJPAUIDispatch@@0@Z$37 10027bcb f   TSDatalink.obj
 0001:00026bd3       __unwindfunclet$?LogResults@CTSDatalink@@UAGJPAUIDispatch@@0@Z$38 10027bd3 f   TSDatalink.obj
 0001:00026bdb       __unwindfunclet$?LogResults@CTSDatalink@@UAGJPAUIDispatch@@0@Z$39 10027bdb f   TSDatalink.obj
 0001:00026be3       __unwindfunclet$?LogResults@CTSDatalink@@UAGJPAUIDispatch@@0@Z$40 10027be3 f   TSDatalink.obj
 0001:00026beb       __unwindfunclet$?LogResults@CTSDatalink@@UAGJPAUIDispatch@@0@Z$41 10027beb f   TSDatalink.obj
 0001:00026bf3       __unwindfunclet$?LogResults@CTSDatalink@@UAGJPAUIDispatch@@0@Z$42 10027bf3 f   TSDatalink.obj
 0001:00026bfb       __ehhandler$?LogResults@CTSDatalink@@UAGJPAUIDispatch@@0@Z 10027bfb f   TSDatalink.obj
 0001:00026c10       __unwindfunclet$??$_QueryInterface@V?$_com_ptr_t@V?$_com_IIID@UIUnknown@@$1?_GUID_00000000_0000_0000_c000_000000000046@@3U__s_GUID@@B@@@@@?$_com_ptr_t@V?$_com_IIID@UITSDatalink@@$1?_GUID_9d6338d0_57fb_11d4_8105_0090276f59e1@@3U__s_GUID@@B@@@@AAEJV?$_com_ptr_t@V?$_com_IIID@UIUnknown@@$1?_GUID_00000000_0000_0000_c000_000000000046@@3U__s_GUID@@B@@@@@Z$0 10027c10 f   TSDBLog.obj
 0001:00026c10       __unwindfunclet$??$_QueryInterface@V?$_com_ptr_t@V?$_com_IIID@UITSDatalink@@$1?_GUID_9d6338d0_57fb_11d4_8105_0090276f59e1@@3U__s_GUID@@B@@@@@?$_com_ptr_t@V?$_com_IIID@UIDispatch@@$1?_GUID_00020400_0000_0000_c000_000000000046@@3U__s_GUID@@B@@@@AAEJV?$_com_ptr_t@V?$_com_IIID@UITSDatalink@@$1?_GUID_9d6338d0_57fb_11d4_8105_0090276f59e1@@3U__s_GUID@@B@@@@@Z$0 10027c10 f   TSDBLog.obj
 0001:00026c10       __unwindfunclet$??$_QueryInterface@V?$_com_ptr_t@V?$_com_IIID@USequenceContext@TS@@$1?_GUID_6427d0e0_e410_11d0_93b4_0020af68e893@@3U__s_GUID@@B@@@@@?$_com_ptr_t@V?$_com_IIID@UPropertyObject@TS@@$1?_GUID_8d8769a0_09c0_11d1_93bd_0020af68e893@@3U__s_GUID@@B@@@@AAEJV?$_com_ptr_t@V?$_com_IIID@USequenceContext@TS@@$1?_GUID_6427d0e0_e410_11d0_93b4_0020af68e893@@3U__s_GUID@@B@@@@@Z$0 10027c10 f   TSDBLog.obj
 0001:00026c10       __unwindfunclet$??$_QueryInterface@V?$_com_ptr_t@V?$_com_IIID@UIDispatch@@$1?_GUID_00020400_0000_0000_c000_000000000046@@3U__s_GUID@@B@@@@@?$_com_ptr_t@V?$_com_IIID@UITSDatalink@@$1?_GUID_9d6338d0_57fb_11d4_8105_0090276f59e1@@3U__s_GUID@@B@@@@AAEJV?$_com_ptr_t@V?$_com_IIID@UIDispatch@@$1?_GUID_00020400_0000_0000_c000_000000000046@@3U__s_GUID@@B@@@@@Z$0 10027c10 f   TSDBLog.obj
 0001:00026c10       __unwindfunclet$??$_QueryInterface@V?$_com_ptr_t@V?$_com_IIID@UIInstrSession@SM@@$1?_GUID_8ab74eec_6c57_11d3_8de1_006097053485@@3U__s_GUID@@B@@@@@?$_com_ptr_t@V?$_com_IIID@UIDispatch@@$1?_GUID_00020400_0000_0000_c000_000000000046@@3U__s_GUID@@B@@@@AAEJV?$_com_ptr_t@V?$_com_IIID@UIInstrSession@SM@@$1?_GUID_8ab74eec_6c57_11d3_8de1_006097053485@@3U__s_GUID@@B@@@@@Z$0 10027c10 f   TSDBLog.obj
 0001:00026c18       __ehhandler$??$_QueryInterface@V?$_com_ptr_t@V?$_com_IIID@UITSDatalink@@$1?_GUID_9d6338d0_57fb_11d4_8105_0090276f59e1@@3U__s_GUID@@B@@@@@?$_com_ptr_t@V?$_com_IIID@UIDispatch@@$1?_GUID_00020400_0000_0000_c000_000000000046@@3U__s_GUID@@B@@@@AAEJV?$_com_ptr_t@V?$_com_IIID@UITSDatalink@@$1?_GUID_9d6338d0_57fb_11d4_8105_0090276f59e1@@3U__s_GUID@@B@@@@@Z 10027c18 f   TSDBLog.obj
 0001:00026c18       __ehhandler$??$_QueryInterface@V?$_com_ptr_t@V?$_com_IIID@USequenceContext@TS@@$1?_GUID_6427d0e0_e410_11d0_93b4_0020af68e893@@3U__s_GUID@@B@@@@@?$_com_ptr_t@V?$_com_IIID@UPropertyObject@TS@@$1?_GUID_8d8769a0_09c0_11d1_93bd_0020af68e893@@3U__s_GUID@@B@@@@AAEJV?$_com_ptr_t@V?$_com_IIID@USequenceContext@TS@@$1?_GUID_6427d0e0_e410_11d0_93b4_0020af68e893@@3U__s_GUID@@B@@@@@Z 10027c18 f   TSDBLog.obj
 0001:00026c18       __ehhandler$??$_QueryInterface@V?$_com_ptr_t@V?$_com_IIID@UIInstrSession@SM@@$1?_GUID_8ab74eec_6c57_11d3_8de1_006097053485@@3U__s_GUID@@B@@@@@?$_com_ptr_t@V?$_com_IIID@UIDispatch@@$1?_GUID_00020400_0000_0000_c000_000000000046@@3U__s_GUID@@B@@@@AAEJV?$_com_ptr_t@V?$_com_IIID@UIInstrSession@SM@@$1?_GUID_8ab74eec_6c57_11d3_8de1_006097053485@@3U__s_GUID@@B@@@@@Z 10027c18 f   TSDBLog.obj
 0001:00026c18       __ehhandler$??$_QueryInterface@V?$_com_ptr_t@V?$_com_IIID@UIUnknown@@$1?_GUID_00000000_0000_0000_c000_000000000046@@3U__s_GUID@@B@@@@@?$_com_ptr_t@V?$_com_IIID@UITSDatalink@@$1?_GUID_9d6338d0_57fb_11d4_8105_0090276f59e1@@3U__s_GUID@@B@@@@AAEJV?$_com_ptr_t@V?$_com_IIID@UIUnknown@@$1?_GUID_00000000_0000_0000_c000_000000000046@@3U__s_GUID@@B@@@@@Z 10027c18 f   TSDBLog.obj
 0001:00026c18       __ehhandler$??$_QueryInterface@V?$_com_ptr_t@V?$_com_IIID@UIDispatch@@$1?_GUID_00020400_0000_0000_c000_000000000046@@3U__s_GUID@@B@@@@@?$_com_ptr_t@V?$_com_IIID@UITSDatalink@@$1?_GUID_9d6338d0_57fb_11d4_8105_0090276f59e1@@3U__s_GUID@@B@@@@AAEJV?$_com_ptr_t@V?$_com_IIID@UIDispatch@@$1?_GUID_00020400_0000_0000_c000_000000000046@@3U__s_GUID@@B@@@@@Z 10027c18 f   TSDBLog.obj
 0001:00026c30       __unwindfunclet$??$?4V?$_com_IIID@UIUnknown@@$1?_GUID_00000000_0000_0000_c000_000000000046@@3U__s_GUID@@B@@@?$_com_ptr_t@V?$_com_IIID@UITSDatalink@@$1?_GUID_9d6338d0_57fb_11d4_8105_0090276f59e1@@3U__s_GUID@@B@@@@QAEAAV0@ABV?$_com_ptr_t@V?$_com_IIID@UIUnknown@@$1?_GUID_00000000_0000_0000_c000_000000000046@@3U__s_GUID@@B@@@@@Z$0 10027c30 f   TSDBLog.obj
 0001:00026c30       __unwindfunclet$??1?$CComPtr@UITypeLib@@@ATL@@QAE@XZ$0 10027c30 f   TSDBLog.obj
 0001:00026c30       __unwindfunclet$??$?0V?$_com_IIID@UIInstrSession@SM@@$1?_GUID_8ab74eec_6c57_11d3_8de1_006097053485@@3U__s_GUID@@B@@@?$_com_ptr_t@V?$_com_IIID@UIDispatch@@$1?_GUID_00020400_0000_0000_c000_000000000046@@3U__s_GUID@@B@@@@QAE@ABV?$_com_ptr_t@V?$_com_IIID@UIInstrSession@SM@@$1?_GUID_8ab74eec_6c57_11d3_8de1_006097053485@@3U__s_GUID@@B@@@@@Z$0 10027c30 f   TSDBLog.obj
 0001:00026c30       __unwindfunclet$??1?$CComPtr@UITypeInfo@@@ATL@@QAE@XZ$0 10027c30 f   TSDBLog.obj
 0001:00026c30       __unwindfunclet$??$?0V?$_com_IIID@USequenceContext@TS@@$1?_GUID_6427d0e0_e410_11d0_93b4_0020af68e893@@3U__s_GUID@@B@@@?$_com_ptr_t@V?$_com_IIID@UPropertyObject@TS@@$1?_GUID_8d8769a0_09c0_11d1_93bd_0020af68e893@@3U__s_GUID@@B@@@@QAE@ABV?$_com_ptr_t@V?$_com_IIID@USequenceContext@TS@@$1?_GUID_6427d0e0_e410_11d0_93b4_0020af68e893@@3U__s_GUID@@B@@@@@Z$0 10027c30 f   TSDBLog.obj
 0001:00026c30       __unwindfunclet$??1?$CComPtr@UITypeInfo2@@@ATL@@QAE@XZ$0 10027c30 f   TSDBLog.obj
 0001:00026c30       __unwindfunclet$??1?$CComPtr@UIUnknown@@@ATL@@QAE@XZ$0 10027c30 f   TSDBLog.obj
 0001:00026c30       __unwindfunclet$??1?$CComPtr@UIRegistrar@@@ATL@@QAE@XZ$0 10027c30 f   TSDBLog.obj
 0001:00026c30       __unwindfunclet$??$?4V?$_com_IIID@UITSDatalink@@$1?_GUID_9d6338d0_57fb_11d4_8105_0090276f59e1@@3U__s_GUID@@B@@@?$_com_ptr_t@V?$_com_IIID@UIDispatch@@$1?_GUID_00020400_0000_0000_c000_000000000046@@3U__s_GUID@@B@@@@QAEAAV0@ABV?$_com_ptr_t@V?$_com_IIID@UITSDatalink@@$1?_GUID_9d6338d0_57fb_11d4_8105_0090276f59e1@@3U__s_GUID@@B@@@@@Z$0 10027c30 f   TSDBLog.obj
 0001:00026c38       __ehhandler$??$?0V?$_com_IIID@USequenceContext@TS@@$1?_GUID_6427d0e0_e410_11d0_93b4_0020af68e893@@3U__s_GUID@@B@@@?$_com_ptr_t@V?$_com_IIID@UPropertyObject@TS@@$1?_GUID_8d8769a0_09c0_11d1_93bd_0020af68e893@@3U__s_GUID@@B@@@@QAE@ABV?$_com_ptr_t@V?$_com_IIID@USequenceContext@TS@@$1?_GUID_6427d0e0_e410_11d0_93b4_0020af68e893@@3U__s_GUID@@B@@@@@Z 10027c38 f   TSDBLog.obj
 0001:00026c38       __ehhandler$??1?$CComPtr@UIUnknown@@@ATL@@QAE@XZ 10027c38 f   TSDBLog.obj
 0001:00026c38       __ehhandler$??1?$CComPtr@UITypeInfo2@@@ATL@@QAE@XZ 10027c38 f   TSDBLog.obj
 0001:00026c38       __ehhandler$??1?$CComPtr@UITypeInfo@@@ATL@@QAE@XZ 10027c38 f   TSDBLog.obj
 0001:00026c38       __ehhandler$??1?$CComPtr@UITypeLib@@@ATL@@QAE@XZ 10027c38 f   TSDBLog.obj
 0001:00026c38       __ehhandler$??$?0V?$_com_IIID@UIInstrSession@SM@@$1?_GUID_8ab74eec_6c57_11d3_8de1_006097053485@@3U__s_GUID@@B@@@?$_com_ptr_t@V?$_com_IIID@UIDispatch@@$1?_GUID_00020400_0000_0000_c000_000000000046@@3U__s_GUID@@B@@@@QAE@ABV?$_com_ptr_t@V?$_com_IIID@UIInstrSession@SM@@$1?_GUID_8ab74eec_6c57_11d3_8de1_006097053485@@3U__s_GUID@@B@@@@@Z 10027c38 f   TSDBLog.obj
 0001:00026c38       __ehhandler$??1?$CComPtr@UIRegistrar@@@ATL@@QAE@XZ 10027c38 f   TSDBLog.obj
 0001:00026c38       __ehhandler$??$?4V?$_com_IIID@UIUnknown@@$1?_GUID_00000000_0000_0000_c000_000000000046@@3U__s_GUID@@B@@@?$_com_ptr_t@V?$_com_IIID@UITSDatalink@@$1?_GUID_9d6338d0_57fb_11d4_8105_0090276f59e1@@3U__s_GUID@@B@@@@QAEAAV0@ABV?$_com_ptr_t@V?$_com_IIID@UIUnknown@@$1?_GUID_00000000_0000_0000_c000_000000000046@@3U__s_GUID@@B@@@@@Z 10027c38 f   TSDBLog.obj
 0001:00026c38       __ehhandler$??$?4V?$_com_IIID@UITSDatalink@@$1?_GUID_9d6338d0_57fb_11d4_8105_0090276f59e1@@3U__s_GUID@@B@@@?$_com_ptr_t@V?$_com_IIID@UIDispatch@@$1?_GUID_00020400_0000_0000_c000_000000000046@@3U__s_GUID@@B@@@@QAEAAV0@ABV?$_com_ptr_t@V?$_com_IIID@UITSDatalink@@$1?_GUID_9d6338d0_57fb_11d4_8105_0090276f59e1@@3U__s_GUID@@B@@@@@Z 10027c38 f   TSDBLog.obj
 0001:00026c50       __unwindfunclet$?GetDatalink@CTSDBLog@@IAEJV?$_com_ptr_t@V?$_com_IIID@USequenceContext@TS@@$1?_GUID_6427d0e0_e410_11d0_93b4_0020af68e893@@3U__s_GUID@@B@@@@AAV?$_com_ptr_t@V?$_com_IIID@UPropertyObject@TS@@$1?_GUID_8d8769a0_09c0_11d1_93bd_0020af68e893@@3U__s_GUID@@B@@@@AAV_bstr_t@@@Z$14 10027c50 f   TSDBLog.obj
 0001:00026c58       __unwindfunclet$?GetDatalink@CTSDBLog@@IAEJV?$_com_ptr_t@V?$_com_IIID@USequenceContext@TS@@$1?_GUID_6427d0e0_e410_11d0_93b4_0020af68e893@@3U__s_GUID@@B@@@@AAV?$_com_ptr_t@V?$_com_IIID@UPropertyObject@TS@@$1?_GUID_8d8769a0_09c0_11d1_93bd_0020af68e893@@3U__s_GUID@@B@@@@AAV_bstr_t@@@Z$15 10027c58 f   TSDBLog.obj
 0001:00026c60       __unwindfunclet$?GetDatalink@CTSDBLog@@IAEJV?$_com_ptr_t@V?$_com_IIID@USequenceContext@TS@@$1?_GUID_6427d0e0_e410_11d0_93b4_0020af68e893@@3U__s_GUID@@B@@@@AAV?$_com_ptr_t@V?$_com_IIID@UPropertyObject@TS@@$1?_GUID_8d8769a0_09c0_11d1_93bd_0020af68e893@@3U__s_GUID@@B@@@@AAV_bstr_t@@@Z$51 10027c60 f   TSDBLog.obj
 0001:00026c6b       __unwindfunclet$?GetDatalink@CTSDBLog@@IAEJV?$_com_ptr_t@V?$_com_IIID@USequenceContext@TS@@$1?_GUID_6427d0e0_e410_11d0_93b4_0020af68e893@@3U__s_GUID@@B@@@@AAV?$_com_ptr_t@V?$_com_IIID@UPropertyObject@TS@@$1?_GUID_8d8769a0_09c0_11d1_93bd_0020af68e893@@3U__s_GUID@@B@@@@AAV_bstr_t@@@Z$16 10027c6b f   TSDBLog.obj
 0001:00026c73       __unwindfunclet$?GetDatalink@CTSDBLog@@IAEJV?$_com_ptr_t@V?$_com_IIID@USequenceContext@TS@@$1?_GUID_6427d0e0_e410_11d0_93b4_0020af68e893@@3U__s_GUID@@B@@@@AAV?$_com_ptr_t@V?$_com_IIID@UPropertyObject@TS@@$1?_GUID_8d8769a0_09c0_11d1_93bd_0020af68e893@@3U__s_GUID@@B@@@@AAV_bstr_t@@@Z$52 10027c73 f   TSDBLog.obj
 0001:00026c7e       __unwindfunclet$?GetDatalink@CTSDBLog@@IAEJV?$_com_ptr_t@V?$_com_IIID@USequenceContext@TS@@$1?_GUID_6427d0e0_e410_11d0_93b4_0020af68e893@@3U__s_GUID@@B@@@@AAV?$_com_ptr_t@V?$_com_IIID@UPropertyObject@TS@@$1?_GUID_8d8769a0_09c0_11d1_93bd_0020af68e893@@3U__s_GUID@@B@@@@AAV_bstr_t@@@Z$17 10027c7e f   TSDBLog.obj
 0001:00026c86       __unwindfunclet$?GetDatalink@CTSDBLog@@IAEJV?$_com_ptr_t@V?$_com_IIID@USequenceContext@TS@@$1?_GUID_6427d0e0_e410_11d0_93b4_0020af68e893@@3U__s_GUID@@B@@@@AAV?$_com_ptr_t@V?$_com_IIID@UPropertyObject@TS@@$1?_GUID_8d8769a0_09c0_11d1_93bd_0020af68e893@@3U__s_GUID@@B@@@@AAV_bstr_t@@@Z$53 10027c86 f   TSDBLog.obj
 0001:00026c91       __unwindfunclet$?GetDatalink@CTSDBLog@@IAEJV?$_com_ptr_t@V?$_com_IIID@USequenceContext@TS@@$1?_GUID_6427d0e0_e410_11d0_93b4_0020af68e893@@3U__s_GUID@@B@@@@AAV?$_com_ptr_t@V?$_com_IIID@UPropertyObject@TS@@$1?_GUID_8d8769a0_09c0_11d1_93bd_0020af68e893@@3U__s_GUID@@B@@@@AAV_bstr_t@@@Z$18 10027c91 f   TSDBLog.obj
 0001:00026c99       __unwindfunclet$?GetDatalink@CTSDBLog@@IAEJV?$_com_ptr_t@V?$_com_IIID@USequenceContext@TS@@$1?_GUID_6427d0e0_e410_11d0_93b4_0020af68e893@@3U__s_GUID@@B@@@@AAV?$_com_ptr_t@V?$_com_IIID@UPropertyObject@TS@@$1?_GUID_8d8769a0_09c0_11d1_93bd_0020af68e893@@3U__s_GUID@@B@@@@AAV_bstr_t@@@Z$19 10027c99 f   TSDBLog.obj
 0001:00026ca1       __unwindfunclet$?GetDatalink@CTSDBLog@@IAEJV?$_com_ptr_t@V?$_com_IIID@USequenceContext@TS@@$1?_GUID_6427d0e0_e410_11d0_93b4_0020af68e893@@3U__s_GUID@@B@@@@AAV?$_com_ptr_t@V?$_com_IIID@UPropertyObject@TS@@$1?_GUID_8d8769a0_09c0_11d1_93bd_0020af68e893@@3U__s_GUID@@B@@@@AAV_bstr_t@@@Z$20 10027ca1 f   TSDBLog.obj
 0001:00026ca9       __unwindfunclet$?GetDatalink@CTSDBLog@@IAEJV?$_com_ptr_t@V?$_com_IIID@USequenceContext@TS@@$1?_GUID_6427d0e0_e410_11d0_93b4_0020af68e893@@3U__s_GUID@@B@@@@AAV?$_com_ptr_t@V?$_com_IIID@UPropertyObject@TS@@$1?_GUID_8d8769a0_09c0_11d1_93bd_0020af68e893@@3U__s_GUID@@B@@@@AAV_bstr_t@@@Z$21 10027ca9 f   TSDBLog.obj
 0001:00026cb1       __unwindfunclet$?GetDatalink@CTSDBLog@@IAEJV?$_com_ptr_t@V?$_com_IIID@USequenceContext@TS@@$1?_GUID_6427d0e0_e410_11d0_93b4_0020af68e893@@3U__s_GUID@@B@@@@AAV?$_com_ptr_t@V?$_com_IIID@UPropertyObject@TS@@$1?_GUID_8d8769a0_09c0_11d1_93bd_0020af68e893@@3U__s_GUID@@B@@@@AAV_bstr_t@@@Z$22 10027cb1 f   TSDBLog.obj
 0001:00026cb9       __unwindfunclet$?GetDatalink@CTSDBLog@@IAEJV?$_com_ptr_t@V?$_com_IIID@USequenceContext@TS@@$1?_GUID_6427d0e0_e410_11d0_93b4_0020af68e893@@3U__s_GUID@@B@@@@AAV?$_com_ptr_t@V?$_com_IIID@UPropertyObject@TS@@$1?_GUID_8d8769a0_09c0_11d1_93bd_0020af68e893@@3U__s_GUID@@B@@@@AAV_bstr_t@@@Z$23 10027cb9 f   TSDBLog.obj
 0001:00026cc1       __unwindfunclet$?GetDatalink@CTSDBLog@@IAEJV?$_com_ptr_t@V?$_com_IIID@USequenceContext@TS@@$1?_GUID_6427d0e0_e410_11d0_93b4_0020af68e893@@3U__s_GUID@@B@@@@AAV?$_com_ptr_t@V?$_com_IIID@UPropertyObject@TS@@$1?_GUID_8d8769a0_09c0_11d1_93bd_0020af68e893@@3U__s_GUID@@B@@@@AAV_bstr_t@@@Z$24 10027cc1 f   TSDBLog.obj
 0001:00026cc9       __unwindfunclet$?GetDatalink@CTSDBLog@@IAEJV?$_com_ptr_t@V?$_com_IIID@USequenceContext@TS@@$1?_GUID_6427d0e0_e410_11d0_93b4_0020af68e893@@3U__s_GUID@@B@@@@AAV?$_com_ptr_t@V?$_com_IIID@UPropertyObject@TS@@$1?_GUID_8d8769a0_09c0_11d1_93bd_0020af68e893@@3U__s_GUID@@B@@@@AAV_bstr_t@@@Z$25 10027cc9 f   TSDBLog.obj
 0001:00026cd1       __unwindfunclet$?GetDatalink@CTSDBLog@@IAEJV?$_com_ptr_t@V?$_com_IIID@USequenceContext@TS@@$1?_GUID_6427d0e0_e410_11d0_93b4_0020af68e893@@3U__s_GUID@@B@@@@AAV?$_com_ptr_t@V?$_com_IIID@UPropertyObject@TS@@$1?_GUID_8d8769a0_09c0_11d1_93bd_0020af68e893@@3U__s_GUID@@B@@@@AAV_bstr_t@@@Z$26 10027cd1 f   TSDBLog.obj
 0001:00026cd9       __unwindfunclet$?GetDatalink@CTSDBLog@@IAEJV?$_com_ptr_t@V?$_com_IIID@USequenceContext@TS@@$1?_GUID_6427d0e0_e410_11d0_93b4_0020af68e893@@3U__s_GUID@@B@@@@AAV?$_com_ptr_t@V?$_com_IIID@UPropertyObject@TS@@$1?_GUID_8d8769a0_09c0_11d1_93bd_0020af68e893@@3U__s_GUID@@B@@@@AAV_bstr_t@@@Z$27 10027cd9 f   TSDBLog.obj
 0001:00026ce1       __unwindfunclet$?GetDatalink@CTSDBLog@@IAEJV?$_com_ptr_t@V?$_com_IIID@USequenceContext@TS@@$1?_GUID_6427d0e0_e410_11d0_93b4_0020af68e893@@3U__s_GUID@@B@@@@AAV?$_com_ptr_t@V?$_com_IIID@UPropertyObject@TS@@$1?_GUID_8d8769a0_09c0_11d1_93bd_0020af68e893@@3U__s_GUID@@B@@@@AAV_bstr_t@@@Z$28 10027ce1 f   TSDBLog.obj
 0001:00026ce9       __unwindfunclet$?GetDatalink@CTSDBLog@@IAEJV?$_com_ptr_t@V?$_com_IIID@USequenceContext@TS@@$1?_GUID_6427d0e0_e410_11d0_93b4_0020af68e893@@3U__s_GUID@@B@@@@AAV?$_com_ptr_t@V?$_com_IIID@UPropertyObject@TS@@$1?_GUID_8d8769a0_09c0_11d1_93bd_0020af68e893@@3U__s_GUID@@B@@@@AAV_bstr_t@@@Z$29 10027ce9 f   TSDBLog.obj
 0001:00026cf1       __unwindfunclet$?GetDatalink@CTSDBLog@@IAEJV?$_com_ptr_t@V?$_com_IIID@USequenceContext@TS@@$1?_GUID_6427d0e0_e410_11d0_93b4_0020af68e893@@3U__s_GUID@@B@@@@AAV?$_com_ptr_t@V?$_com_IIID@UPropertyObject@TS@@$1?_GUID_8d8769a0_09c0_11d1_93bd_0020af68e893@@3U__s_GUID@@B@@@@AAV_bstr_t@@@Z$30 10027cf1 f   TSDBLog.obj
 0001:00026cf9       __unwindfunclet$?GetDatalink@CTSDBLog@@IAEJV?$_com_ptr_t@V?$_com_IIID@USequenceContext@TS@@$1?_GUID_6427d0e0_e410_11d0_93b4_0020af68e893@@3U__s_GUID@@B@@@@AAV?$_com_ptr_t@V?$_com_IIID@UPropertyObject@TS@@$1?_GUID_8d8769a0_09c0_11d1_93bd_0020af68e893@@3U__s_GUID@@B@@@@AAV_bstr_t@@@Z$31 10027cf9 f   TSDBLog.obj
 0001:00026d01       __unwindfunclet$?GetDatalink@CTSDBLog@@IAEJV?$_com_ptr_t@V?$_com_IIID@USequenceContext@TS@@$1?_GUID_6427d0e0_e410_11d0_93b4_0020af68e893@@3U__s_GUID@@B@@@@AAV?$_com_ptr_t@V?$_com_IIID@UPropertyObject@TS@@$1?_GUID_8d8769a0_09c0_11d1_93bd_0020af68e893@@3U__s_GUID@@B@@@@AAV_bstr_t@@@Z$32 10027d01 f   TSDBLog.obj
 0001:00026d09       __unwindfunclet$?GetDatalink@CTSDBLog@@IAEJV?$_com_ptr_t@V?$_com_IIID@USequenceContext@TS@@$1?_GUID_6427d0e0_e410_11d0_93b4_0020af68e893@@3U__s_GUID@@B@@@@AAV?$_com_ptr_t@V?$_com_IIID@UPropertyObject@TS@@$1?_GUID_8d8769a0_09c0_11d1_93bd_0020af68e893@@3U__s_GUID@@B@@@@AAV_bstr_t@@@Z$54 10027d09 f   TSDBLog.obj
 0001:00026d14       __unwindfunclet$?GetDatalink@CTSDBLog@@IAEJV?$_com_ptr_t@V?$_com_IIID@USequenceContext@TS@@$1?_GUID_6427d0e0_e410_11d0_93b4_0020af68e893@@3U__s_GUID@@B@@@@AAV?$_com_ptr_t@V?$_com_IIID@UPropertyObject@TS@@$1?_GUID_8d8769a0_09c0_11d1_93bd_0020af68e893@@3U__s_GUID@@B@@@@AAV_bstr_t@@@Z$33 10027d14 f   TSDBLog.obj
 0001:00026d1c       __unwindfunclet$?GetDatalink@CTSDBLog@@IAEJV?$_com_ptr_t@V?$_com_IIID@USequenceContext@TS@@$1?_GUID_6427d0e0_e410_11d0_93b4_0020af68e893@@3U__s_GUID@@B@@@@AAV?$_com_ptr_t@V?$_com_IIID@UPropertyObject@TS@@$1?_GUID_8d8769a0_09c0_11d1_93bd_0020af68e893@@3U__s_GUID@@B@@@@AAV_bstr_t@@@Z$55 10027d1c f   TSDBLog.obj
 0001:00026d24       __unwindfunclet$?GetDatalink@CTSDBLog@@IAEJV?$_com_ptr_t@V?$_com_IIID@USequenceContext@TS@@$1?_GUID_6427d0e0_e410_11d0_93b4_0020af68e893@@3U__s_GUID@@B@@@@AAV?$_com_ptr_t@V?$_com_IIID@UPropertyObject@TS@@$1?_GUID_8d8769a0_09c0_11d1_93bd_0020af68e893@@3U__s_GUID@@B@@@@AAV_bstr_t@@@Z$34 10027d24 f   TSDBLog.obj
 0001:00026d2c       __unwindfunclet$?GetDatalink@CTSDBLog@@IAEJV?$_com_ptr_t@V?$_com_IIID@USequenceContext@TS@@$1?_GUID_6427d0e0_e410_11d0_93b4_0020af68e893@@3U__s_GUID@@B@@@@AAV?$_com_ptr_t@V?$_com_IIID@UPropertyObject@TS@@$1?_GUID_8d8769a0_09c0_11d1_93bd_0020af68e893@@3U__s_GUID@@B@@@@AAV_bstr_t@@@Z$35 10027d2c f   TSDBLog.obj
 0001:00026d34       __unwindfunclet$?GetDatalink@CTSDBLog@@IAEJV?$_com_ptr_t@V?$_com_IIID@USequenceContext@TS@@$1?_GUID_6427d0e0_e410_11d0_93b4_0020af68e893@@3U__s_GUID@@B@@@@AAV?$_com_ptr_t@V?$_com_IIID@UPropertyObject@TS@@$1?_GUID_8d8769a0_09c0_11d1_93bd_0020af68e893@@3U__s_GUID@@B@@@@AAV_bstr_t@@@Z$36 10027d34 f   TSDBLog.obj
 0001:00026d3c       __unwindfunclet$?GetDatalink@CTSDBLog@@IAEJV?$_com_ptr_t@V?$_com_IIID@USequenceContext@TS@@$1?_GUID_6427d0e0_e410_11d0_93b4_0020af68e893@@3U__s_GUID@@B@@@@AAV?$_com_ptr_t@V?$_com_IIID@UPropertyObject@TS@@$1?_GUID_8d8769a0_09c0_11d1_93bd_0020af68e893@@3U__s_GUID@@B@@@@AAV_bstr_t@@@Z$37 10027d3c f   TSDBLog.obj
 0001:00026d44       __unwindfunclet$?GetDatalink@CTSDBLog@@IAEJV?$_com_ptr_t@V?$_com_IIID@USequenceContext@TS@@$1?_GUID_6427d0e0_e410_11d0_93b4_0020af68e893@@3U__s_GUID@@B@@@@AAV?$_com_ptr_t@V?$_com_IIID@UPropertyObject@TS@@$1?_GUID_8d8769a0_09c0_11d1_93bd_0020af68e893@@3U__s_GUID@@B@@@@AAV_bstr_t@@@Z$38 10027d44 f   TSDBLog.obj
 0001:00026d4c       __unwindfunclet$?GetDatalink@CTSDBLog@@IAEJV?$_com_ptr_t@V?$_com_IIID@USequenceContext@TS@@$1?_GUID_6427d0e0_e410_11d0_93b4_0020af68e893@@3U__s_GUID@@B@@@@AAV?$_com_ptr_t@V?$_com_IIID@UPropertyObject@TS@@$1?_GUID_8d8769a0_09c0_11d1_93bd_0020af68e893@@3U__s_GUID@@B@@@@AAV_bstr_t@@@Z$39 10027d4c f   TSDBLog.obj
 0001:00026d54       __unwindfunclet$?GetDatalink@CTSDBLog@@IAEJV?$_com_ptr_t@V?$_com_IIID@USequenceContext@TS@@$1?_GUID_6427d0e0_e410_11d0_93b4_0020af68e893@@3U__s_GUID@@B@@@@AAV?$_com_ptr_t@V?$_com_IIID@UPropertyObject@TS@@$1?_GUID_8d8769a0_09c0_11d1_93bd_0020af68e893@@3U__s_GUID@@B@@@@AAV_bstr_t@@@Z$40 10027d54 f   TSDBLog.obj
 0001:00026d5c       __unwindfunclet$?GetDatalink@CTSDBLog@@IAEJV?$_com_ptr_t@V?$_com_IIID@USequenceContext@TS@@$1?_GUID_6427d0e0_e410_11d0_93b4_0020af68e893@@3U__s_GUID@@B@@@@AAV?$_com_ptr_t@V?$_com_IIID@UPropertyObject@TS@@$1?_GUID_8d8769a0_09c0_11d1_93bd_0020af68e893@@3U__s_GUID@@B@@@@AAV_bstr_t@@@Z$41 10027d5c f   TSDBLog.obj
 0001:00026d64       __unwindfunclet$?GetDatalink@CTSDBLog@@IAEJV?$_com_ptr_t@V?$_com_IIID@USequenceContext@TS@@$1?_GUID_6427d0e0_e410_11d0_93b4_0020af68e893@@3U__s_GUID@@B@@@@AAV?$_com_ptr_t@V?$_com_IIID@UPropertyObject@TS@@$1?_GUID_8d8769a0_09c0_11d1_93bd_0020af68e893@@3U__s_GUID@@B@@@@AAV_bstr_t@@@Z$42 10027d64 f   TSDBLog.obj
 0001:00026d6c       __unwindfunclet$?GetDatalink@CTSDBLog@@IAEJV?$_com_ptr_t@V?$_com_IIID@USequenceContext@TS@@$1?_GUID_6427d0e0_e410_11d0_93b4_0020af68e893@@3U__s_GUID@@B@@@@AAV?$_com_ptr_t@V?$_com_IIID@UPropertyObject@TS@@$1?_GUID_8d8769a0_09c0_11d1_93bd_0020af68e893@@3U__s_GUID@@B@@@@AAV_bstr_t@@@Z$43 10027d6c f   TSDBLog.obj
 0001:00026d74       __unwindfunclet$?GetDatalink@CTSDBLog@@IAEJV?$_com_ptr_t@V?$_com_IIID@USequenceContext@TS@@$1?_GUID_6427d0e0_e410_11d0_93b4_0020af68e893@@3U__s_GUID@@B@@@@AAV?$_com_ptr_t@V?$_com_IIID@UPropertyObject@TS@@$1?_GUID_8d8769a0_09c0_11d1_93bd_0020af68e893@@3U__s_GUID@@B@@@@AAV_bstr_t@@@Z$44 10027d74 f   TSDBLog.obj
 0001:00026d7c       __unwindfunclet$?GetDatalink@CTSDBLog@@IAEJV?$_com_ptr_t@V?$_com_IIID@USequenceContext@TS@@$1?_GUID_6427d0e0_e410_11d0_93b4_0020af68e893@@3U__s_GUID@@B@@@@AAV?$_com_ptr_t@V?$_com_IIID@UPropertyObject@TS@@$1?_GUID_8d8769a0_09c0_11d1_93bd_0020af68e893@@3U__s_GUID@@B@@@@AAV_bstr_t@@@Z$45 10027d7c f   TSDBLog.obj
 0001:00026d84       __unwindfunclet$?GetDatalink@CTSDBLog@@IAEJV?$_com_ptr_t@V?$_com_IIID@USequenceContext@TS@@$1?_GUID_6427d0e0_e410_11d0_93b4_0020af68e893@@3U__s_GUID@@B@@@@AAV?$_com_ptr_t@V?$_com_IIID@UPropertyObject@TS@@$1?_GUID_8d8769a0_09c0_11d1_93bd_0020af68e893@@3U__s_GUID@@B@@@@AAV_bstr_t@@@Z$46 10027d84 f   TSDBLog.obj
 0001:00026d8c       __unwindfunclet$?GetDatalink@CTSDBLog@@IAEJV?$_com_ptr_t@V?$_com_IIID@USequenceContext@TS@@$1?_GUID_6427d0e0_e410_11d0_93b4_0020af68e893@@3U__s_GUID@@B@@@@AAV?$_com_ptr_t@V?$_com_IIID@UPropertyObject@TS@@$1?_GUID_8d8769a0_09c0_11d1_93bd_0020af68e893@@3U__s_GUID@@B@@@@AAV_bstr_t@@@Z$47 10027d8c f   TSDBLog.obj
 0001:00026d94       __unwindfunclet$?GetDatalink@CTSDBLog@@IAEJV?$_com_ptr_t@V?$_com_IIID@USequenceContext@TS@@$1?_GUID_6427d0e0_e410_11d0_93b4_0020af68e893@@3U__s_GUID@@B@@@@AAV?$_com_ptr_t@V?$_com_IIID@UPropertyObject@TS@@$1?_GUID_8d8769a0_09c0_11d1_93bd_0020af68e893@@3U__s_GUID@@B@@@@AAV_bstr_t@@@Z$48 10027d94 f   TSDBLog.obj
 0001:00026d9c       __unwindfunclet$?GetDatalink@CTSDBLog@@IAEJV?$_com_ptr_t@V?$_com_IIID@USequenceContext@TS@@$1?_GUID_6427d0e0_e410_11d0_93b4_0020af68e893@@3U__s_GUID@@B@@@@AAV?$_com_ptr_t@V?$_com_IIID@UPropertyObject@TS@@$1?_GUID_8d8769a0_09c0_11d1_93bd_0020af68e893@@3U__s_GUID@@B@@@@AAV_bstr_t@@@Z$49 10027d9c f   TSDBLog.obj
 0001:00026da4       __unwindfunclet$?GetDatalink@CTSDBLog@@IAEJV?$_com_ptr_t@V?$_com_IIID@USequenceContext@TS@@$1?_GUID_6427d0e0_e410_11d0_93b4_0020af68e893@@3U__s_GUID@@B@@@@AAV?$_com_ptr_t@V?$_com_IIID@UPropertyObject@TS@@$1?_GUID_8d8769a0_09c0_11d1_93bd_0020af68e893@@3U__s_GUID@@B@@@@AAV_bstr_t@@@Z$50 10027da4 f   TSDBLog.obj
 0001:00026dac       __unwindfunclet$?GetDatalink@CTSDBLog@@IAEJV?$_com_ptr_t@V?$_com_IIID@USequenceContext@TS@@$1?_GUID_6427d0e0_e410_11d0_93b4_0020af68e893@@3U__s_GUID@@B@@@@AAV?$_com_ptr_t@V?$_com_IIID@UPropertyObject@TS@@$1?_GUID_8d8769a0_09c0_11d1_93bd_0020af68e893@@3U__s_GUID@@B@@@@AAV_bstr_t@@@Z$56 10027dac f   TSDBLog.obj
 0001:00026db4       __ehhandler$?GetDatalink@CTSDBLog@@IAEJV?$_com_ptr_t@V?$_com_IIID@USequenceContext@TS@@$1?_GUID_6427d0e0_e410_11d0_93b4_0020af68e893@@3U__s_GUID@@B@@@@AAV?$_com_ptr_t@V?$_com_IIID@UPropertyObject@TS@@$1?_GUID_8d8769a0_09c0_11d1_93bd_0020af68e893@@3U__s_GUID@@B@@@@AAV_bstr_t@@@Z 10027db4 f   TSDBLog.obj
 0001:00026dc0       __unwindfunclet$?NewUUT@CTSDBLog@@UAGJPAUIDispatch@@00000@Z$6 10027dc0 f   TSDBLog.obj
 0001:00026dc8       __unwindfunclet$?NewUUT@CTSDBLog@@UAGJPAUIDispatch@@00000@Z$7 10027dc8 f   TSDBLog.obj
 0001:00026dd0       __unwindfunclet$?NewUUT@CTSDBLog@@UAGJPAUIDispatch@@00000@Z$8 10027dd0 f   TSDBLog.obj
 0001:00026dd8       __unwindfunclet$?NewUUT@CTSDBLog@@UAGJPAUIDispatch@@00000@Z$9 10027dd8 f   TSDBLog.obj
 0001:00026de0       __unwindfunclet$?NewUUT@CTSDBLog@@UAGJPAUIDispatch@@00000@Z$10 10027de0 f   TSDBLog.obj
 0001:00026de8       __unwindfunclet$?NewUUT@CTSDBLog@@UAGJPAUIDispatch@@00000@Z$11 10027de8 f   TSDBLog.obj
 0001:00026df0       __unwindfunclet$?NewUUT@CTSDBLog@@UAGJPAUIDispatch@@00000@Z$12 10027df0 f   TSDBLog.obj
 0001:00026df8       __unwindfunclet$?NewUUT@CTSDBLog@@UAGJPAUIDispatch@@00000@Z$13 10027df8 f   TSDBLog.obj
 0001:00026e00       __unwindfunclet$?NewUUT@CTSDBLog@@UAGJPAUIDispatch@@00000@Z$14 10027e00 f   TSDBLog.obj
 0001:00026e08       __unwindfunclet$?NewUUT@CTSDBLog@@UAGJPAUIDispatch@@00000@Z$15 10027e08 f   TSDBLog.obj
 0001:00026e10       __unwindfunclet$?NewUUT@CTSDBLog@@UAGJPAUIDispatch@@00000@Z$16 10027e10 f   TSDBLog.obj
 0001:00026e18       __ehhandler$?NewUUT@CTSDBLog@@UAGJPAUIDispatch@@00000@Z 10027e18 f   TSDBLog.obj
 0001:00026e30       __unwindfunclet$?LogUUTResult@CTSDBLog@@UAGJPAUIDispatch@@0@Z$6 10027e30 f   TSDBLog.obj
 0001:00026e38       __unwindfunclet$?LogUUTResult@CTSDBLog@@UAGJPAUIDispatch@@0@Z$7 10027e38 f   TSDBLog.obj
 0001:00026e40       __unwindfunclet$?LogUUTResult@CTSDBLog@@UAGJPAUIDispatch@@0@Z$8 10027e40 f   TSDBLog.obj
 0001:00026e48       __unwindfunclet$?LogUUTResult@CTSDBLog@@UAGJPAUIDispatch@@0@Z$9 10027e48 f   TSDBLog.obj
 0001:00026e50       __unwindfunclet$?LogUUTResult@CTSDBLog@@UAGJPAUIDispatch@@0@Z$10 10027e50 f   TSDBLog.obj
 0001:00026e58       __unwindfunclet$?LogUUTResult@CTSDBLog@@UAGJPAUIDispatch@@0@Z$11 10027e58 f   TSDBLog.obj
 0001:00026e60       __ehhandler$?LogUUTResult@CTSDBLog@@UAGJPAUIDispatch@@0@Z 10027e60 f   TSDBLog.obj
 0001:00026e70       __unwindfunclet$?LogOneResult@CTSDBLog@@UAGJPAUIDispatch@@0@Z$6 10027e70 f   TSDBLog.obj
 0001:00026e78       __unwindfunclet$?LogOneResult@CTSDBLog@@UAGJPAUIDispatch@@0@Z$7 10027e78 f   TSDBLog.obj
 0001:00026e80       __unwindfunclet$?LogOneResult@CTSDBLog@@UAGJPAUIDispatch@@0@Z$8 10027e80 f   TSDBLog.obj
 0001:00026e88       __unwindfunclet$?LogOneResult@CTSDBLog@@UAGJPAUIDispatch@@0@Z$9 10027e88 f   TSDBLog.obj
 0001:00026e90       __unwindfunclet$?LogOneResult@CTSDBLog@@UAGJPAUIDispatch@@0@Z$10 10027e90 f   TSDBLog.obj
 0001:00026e98       __unwindfunclet$?LogOneResult@CTSDBLog@@UAGJPAUIDispatch@@0@Z$11 10027e98 f   TSDBLog.obj
 0001:00026ea0       __ehhandler$?LogOneResult@CTSDBLog@@UAGJPAUIDispatch@@0@Z 10027ea0 f   TSDBLog.obj
 0001:00026eb0       __unwindfunclet$?LogResults@CTSDBLog@@UAGJPAUIDispatch@@00@Z$10 10027eb0 f   TSDBLog.obj
 0001:00026eb8       __unwindfunclet$?LogResults@CTSDBLog@@UAGJPAUIDispatch@@00@Z$11 10027eb8 f   TSDBLog.obj
 0001:00026ec0       __unwindfunclet$?LogResults@CTSDBLog@@UAGJPAUIDispatch@@00@Z$12 10027ec0 f   TSDBLog.obj
 0001:00026ec8       __unwindfunclet$?LogResults@CTSDBLog@@UAGJPAUIDispatch@@00@Z$13 10027ec8 f   TSDBLog.obj
 0001:00026ed0       __unwindfunclet$?LogResults@CTSDBLog@@UAGJPAUIDispatch@@00@Z$14 10027ed0 f   TSDBLog.obj
 0001:00026ed8       __unwindfunclet$?LogResults@CTSDBLog@@UAGJPAUIDispatch@@00@Z$15 10027ed8 f   TSDBLog.obj
 0001:00026ee0       __unwindfunclet$?LogResults@CTSDBLog@@UAGJPAUIDispatch@@00@Z$16 10027ee0 f   TSDBLog.obj
 0001:00026ee8       __unwindfunclet$?LogResults@CTSDBLog@@UAGJPAUIDispatch@@00@Z$17 10027ee8 f   TSDBLog.obj
 0001:00026ef0       __unwindfunclet$?LogResults@CTSDBLog@@UAGJPAUIDispatch@@00@Z$18 10027ef0 f   TSDBLog.obj
 0001:00026ef8       __unwindfunclet$?LogResults@CTSDBLog@@UAGJPAUIDispatch@@00@Z$19 10027ef8 f   TSDBLog.obj
 0001:00026f00       __unwindfunclet$?LogResults@CTSDBLog@@UAGJPAUIDispatch@@00@Z$20 10027f00 f   TSDBLog.obj
 0001:00026f08       __unwindfunclet$?LogResults@CTSDBLog@@UAGJPAUIDispatch@@00@Z$21 10027f08 f   TSDBLog.obj
 0001:00026f10       __unwindfunclet$?LogResults@CTSDBLog@@UAGJPAUIDispatch@@00@Z$22 10027f10 f   TSDBLog.obj
 0001:00026f18       __unwindfunclet$?LogResults@CTSDBLog@@UAGJPAUIDispatch@@00@Z$23 10027f18 f   TSDBLog.obj
 0001:00026f20       __unwindfunclet$?LogResults@CTSDBLog@@UAGJPAUIDispatch@@00@Z$24 10027f20 f   TSDBLog.obj
 0001:00026f28       __unwindfunclet$?LogResults@CTSDBLog@@UAGJPAUIDispatch@@00@Z$25 10027f28 f   TSDBLog.obj
 0001:00026f30       __unwindfunclet$?LogResults@CTSDBLog@@UAGJPAUIDispatch@@00@Z$26 10027f30 f   TSDBLog.obj
 0001:00026f38       __ehhandler$?LogResults@CTSDBLog@@UAGJPAUIDispatch@@00@Z 10027f38 f   TSDBLog.obj
 0001:00026f42       __unwindfunclet$?AfxWndProcDllStatic@@YGJPAUHWND__@@IIJ@Z$0 10027f42 f   mfcs100:dllmodul.obj
 0001:00026f4a       __ehhandler$?AfxWndProcDllStatic@@YGJPAUHWND__@@IIJ@Z 10027f4a f   mfcs100:dllmodul.obj
 0001:00026f65       __unwindfunclet$_InternalDllMain@12$5 10027f65 f   mfcs100:dllmodul.obj
 0001:00026f6e       __unwindfunclet$_InternalDllMain@12$6 10027f6e f   mfcs100:dllmodul.obj
 0001:00026f76       __ehhandler$_InternalDllMain@12 10027f76 f   mfcs100:dllmodul.obj
 0001:00026fa0       __ehhandler$?ConvertBSTRToString@_com_util@@YGPADPA_W@Z 10027fa0 f   comsuppw:comutil.obj
 0001:00026fc0       ??__E_Module@@YAXXZ        10027fc0 f   DBLog.obj
 0001:00027020       ??__EtheApp@@YAXXZ         10028020 f   DBLog.obj
 0001:00027074       ??__EafxModuleState@@YAXXZ 10028074 f   mfcs100:dllmodul.obj
 0001:000270a2       ??__E_AtlComModule@ATL@@YAXXZ 100280a2 f   atls:atlcommodule.obj
 0001:000270b8       ??__E_AtlBaseModule@ATL@@YAXXZ 100280b8 f   atls:atlbase.obj
 0001:000270d0       ??__EvtMissing@@YAXXZ      100280d0 f   comsuppw:comutil.obj
 0001:000270e0       ??__FtheApp@@YAXXZ         100280e0 f   DBLog.obj
 0001:00027120       ??__F_Module@@YAXXZ        10028120 f   DBLog.obj
 0001:000271a2       ??__FafxModuleState@@YAXXZ 100281a2 f   mfcs100:dllmodul.obj
 0001:000271ac       ??__F_AtlComModule@ATL@@YAXXZ 100281ac f   atls:atlcommodule.obj
 0001:000271b6       ??__F_AtlBaseModule@ATL@@YAXXZ 100281b6 f   atls:atlbase.obj
 0001:000271c0       ??__FvtMissing@@YAXXZ      100281c0 f   comsuppw:comutil.obj

 Exports

  ordinal    name

        1    _DllCanUnloadNow@0
               exported name: DllCanUnloadNow
        2    _DllGetClassObject@12
               exported name: DllGetClassObject
        3    _DllRegisterServer@0
               exported name: DllRegisterServer
        4    _DllUnregisterServer@0
               exported name: DllUnregisterServer
